SF:/Users/rt/workspace/apply-the/boundline/src/assistant_plugin_validation.rs
FN:54,_RNCNCNvNtCsLzMacAlof9_9boundline27assistant_plugin_validation12string_arrays_00B7_
FN:79,_RNCNCNvNtCsLzMacAlof9_9boundline27assistant_plugin_validation8id_arrays_00B7_
FN:50,_RNCNvNtCsLzMacAlof9_9boundline27assistant_plugin_validation12string_array0B5_
FN:54,_RNCNvNtCsLzMacAlof9_9boundline27assistant_plugin_validation12string_arrays_0B5_
FN:114,_RNCNvNtCsLzMacAlof9_9boundline27assistant_plugin_validation15manifest_errors0B5_
FN:119,_RNCNvNtCsLzMacAlof9_9boundline27assistant_plugin_validation15manifest_errorss_0B5_
FN:88,_RNCNvNtCsLzMacAlof9_9boundline27assistant_plugin_validation19string_contains_any0B5_
FN:91,_RNCNvNtCsLzMacAlof9_9boundline27assistant_plugin_validation19string_contains_anys0_0B5_
FN:93,_RNCNvNtCsLzMacAlof9_9boundline27assistant_plugin_validation19string_contains_anys1_0B5_
FN:89,_RNCNvNtCsLzMacAlof9_9boundline27assistant_plugin_validation19string_contains_anys_0B5_
FN:39,_RNCNvNtCsLzMacAlof9_9boundline27assistant_plugin_validation27workspace_version_from_toml0B5_
FN:43,_RNCNvNtCsLzMacAlof9_9boundline27assistant_plugin_validation27workspace_version_from_tomls_0B5_
FN:70,_RNCNvNtCsLzMacAlof9_9boundline27assistant_plugin_validation8id_array0B5_
FN:74,_RNCNvNtCsLzMacAlof9_9boundline27assistant_plugin_validation8id_arrays_0B5_
FN:62,_RNvNtCsLzMacAlof9_9boundline27assistant_plugin_validation11command_ids
FN:46,_RNvNtCsLzMacAlof9_9boundline27assistant_plugin_validation12string_array
FN:58,_RNvNtCsLzMacAlof9_9boundline27assistant_plugin_validation14capability_ids
FN:98,_RNvNtCsLzMacAlof9_9boundline27assistant_plugin_validation15manifest_errors
FN:84,_RNvNtCsLzMacAlof9_9boundline27assistant_plugin_validation19string_contains_any
FN:37,_RNvNtCsLzMacAlof9_9boundline27assistant_plugin_validation27workspace_version_from_toml
FN:66,_RNvNtCsLzMacAlof9_9boundline27assistant_plugin_validation8id_array
FNDA:0,_RNCNCNvNtCsLzMacAlof9_9boundline27assistant_plugin_validation12string_arrays_00B7_
FNDA:0,_RNCNCNvNtCsLzMacAlof9_9boundline27assistant_plugin_validation8id_arrays_00B7_
FNDA:0,_RNCNvNtCsLzMacAlof9_9boundline27assistant_plugin_validation12string_array0B5_
FNDA:0,_RNCNvNtCsLzMacAlof9_9boundline27assistant_plugin_validation12string_arrays_0B5_
FNDA:0,_RNCNvNtCsLzMacAlof9_9boundline27assistant_plugin_validation15manifest_errors0B5_
FNDA:0,_RNCNvNtCsLzMacAlof9_9boundline27assistant_plugin_validation15manifest_errorss_0B5_
FNDA:0,_RNCNvNtCsLzMacAlof9_9boundline27assistant_plugin_validation19string_contains_any0B5_
FNDA:0,_RNCNvNtCsLzMacAlof9_9boundline27assistant_plugin_validation19string_contains_anys0_0B5_
FNDA:0,_RNCNvNtCsLzMacAlof9_9boundline27assistant_plugin_validation19string_contains_anys1_0B5_
FNDA:0,_RNCNvNtCsLzMacAlof9_9boundline27assistant_plugin_validation19string_contains_anys_0B5_
FNDA:0,_RNCNvNtCsLzMacAlof9_9boundline27assistant_plugin_validation27workspace_version_from_toml0B5_
FNDA:0,_RNCNvNtCsLzMacAlof9_9boundline27assistant_plugin_validation27workspace_version_from_tomls_0B5_
FNDA:0,_RNCNvNtCsLzMacAlof9_9boundline27assistant_plugin_validation8id_array0B5_
FNDA:0,_RNCNvNtCsLzMacAlof9_9boundline27assistant_plugin_validation8id_arrays_0B5_
FNDA:0,_RNvNtCsLzMacAlof9_9boundline27assistant_plugin_validation11command_ids
FNDA:0,_RNvNtCsLzMacAlof9_9boundline27assistant_plugin_validation12string_array
FNDA:0,_RNvNtCsLzMacAlof9_9boundline27assistant_plugin_validation14capability_ids
FNDA:0,_RNvNtCsLzMacAlof9_9boundline27assistant_plugin_validation15manifest_errors
FNDA:0,_RNvNtCsLzMacAlof9_9boundline27assistant_plugin_validation19string_contains_any
FNDA:0,_RNvNtCsLzMacAlof9_9boundline27assistant_plugin_validation27workspace_version_from_toml
FNDA:0,_RNvNtCsLzMacAlof9_9boundline27assistant_plugin_validation8id_array
FNF:21
FNH:0
DA:37,0
DA:38,0
DA:39,0
DA:40,0
DA:41,0
DA:42,0
DA:43,0
DA:44,0
DA:46,0
DA:47,0
DA:48,0
DA:49,0
DA:50,0
DA:52,0
DA:53,0
DA:54,0
DA:55,0
DA:56,0
DA:58,0
DA:59,0
DA:60,0
DA:62,0
DA:63,0
DA:64,0
DA:66,0
DA:67,0
DA:68,0
DA:69,0
DA:70,0
DA:72,0
DA:73,0
DA:74,0
DA:75,0
DA:76,0
DA:77,0
DA:78,0
DA:79,0
DA:80,0
DA:81,0
DA:82,0
DA:84,0
DA:85,0
DA:86,0
DA:87,0
DA:88,0
DA:89,0
DA:90,0
DA:91,0
DA:93,0
DA:94,0
DA:96,0
DA:98,0
DA:99,0
DA:101,0
DA:102,0
DA:103,0
DA:104,0
DA:107,0
DA:108,0
DA:109,0
DA:111,0
DA:112,0
DA:113,0
DA:114,0
DA:115,0
DA:116,0
DA:118,0
DA:119,0
DA:120,0
DA:121,0
DA:124,0
DA:127,0
DA:128,0
DA:129,0
DA:130,0
DA:131,0
DA:133,0
DA:134,0
DA:135,0
DA:137,0
DA:138,0
DA:139,0
DA:141,0
DA:142,0
DA:143,0
DA:145,0
DA:146,0
BRF:0
BRH:0
LF:101
LH:0
end_of_record
SF:/Users/rt/workspace/apply-the/boundline/src/bin/boundline.rs
FN:3,_RNvCstw4geZRArc_9boundline4main
FNDA:0,_RNvCstw4geZRArc_9boundline4main
FNF:1
FNH:0
DA:3,0
DA:4,0
BRF:0
BRH:0
LF:2
LH:0
end_of_record