SF:/Users/rt/workspace/apply-the/boundline/crates/boundline-adapters/src/../../../src/adapters/agent.rs
FN:22,_RNvMNtNtCsgV4MOW29Zwc_18boundline_adapters8adapters5agentINtB2_14FnAgentAdapterNCNvNtNtB6_7fixture12fixture_impl34build_fixture_runtime_from_profiles0_0E3newB6_
FN:22,_RNvMNtNtCsgV4MOW29Zwc_18boundline_adapters8adapters5agentINtB2_14FnAgentAdapterNCNvNtNtB6_7fixture12fixture_impl34build_fixture_runtime_from_profiles1_0E3newB6_
FN:22,_RNvMNtNtCsgV4MOW29Zwc_18boundline_adapters8adapters5agentINtB2_14FnAgentAdapterNCNvNtNtB6_7fixture12fixture_impl34build_fixture_runtime_from_profiles2_0E3newB6_
FN:31,_RNvXs_NtNtCsgV4MOW29Zwc_18boundline_adapters8adapters5agentINtB4_14FnAgentAdapterNCNvNtNtB8_7fixture12fixture_impl34build_fixture_runtime_from_profiles0_0ENtB4_12AgentAdapter7executeB8_
FN:31,_RNvXs_NtNtCsgV4MOW29Zwc_18boundline_adapters8adapters5agentINtB4_14FnAgentAdapterNCNvNtNtB8_7fixture12fixture_impl34build_fixture_runtime_from_profiles1_0ENtB4_12AgentAdapter7executeB8_
FN:31,_RNvXs_NtNtCsgV4MOW29Zwc_18boundline_adapters8adapters5agentINtB4_14FnAgentAdapterNCNvNtNtB8_7fixture12fixture_impl34build_fixture_runtime_from_profiles2_0ENtB4_12AgentAdapter7executeB8_
FN:22,_RNvMNtNtCsblqRvDQyS7m_18boundline_adapters8adapters5agentINtB2_14FnAgentAdapterNCNvNtNtB6_7fixture12fixture_impl34build_fixture_runtime_from_profiles0_0E3newB6_
FN:22,_RNvMNtNtCsblqRvDQyS7m_18boundline_adapters8adapters5agentINtB2_14FnAgentAdapterNCNvNtNtB6_7fixture12fixture_impl34build_fixture_runtime_from_profiles1_0E3newB6_
FN:22,_RNvMNtNtCsblqRvDQyS7m_18boundline_adapters8adapters5agentINtB2_14FnAgentAdapterNCNvNtNtB6_7fixture12fixture_impl34build_fixture_runtime_from_profiles2_0E3newB6_
FN:22,_RNvMNtNtCsblqRvDQyS7m_18boundline_adapters8adapters5agentINtB2_14FnAgentAdapterNCNvNtNtNtB6_12orchestrator6engine5testss_59execute_step_dispatches_registered_agent_and_tool_endpoints0E3newB6_
FN:22,_RNvMNtNtCsblqRvDQyS7m_18boundline_adapters8adapters5agentINtB2_14FnAgentAdapterNCNvNtNtNtB6_12orchestrator6engine5testss_64run_normalizes_invalid_agent_results_into_unrecoverable_failures0E3newB6_
FN:31,_RNvXs_NtNtCsblqRvDQyS7m_18boundline_adapters8adapters5agentINtB4_14FnAgentAdapterNCNvNtNtB8_7fixture12fixture_impl34build_fixture_runtime_from_profiles0_0ENtB4_12AgentAdapter7executeB8_
FN:31,_RNvXs_NtNtCsblqRvDQyS7m_18boundline_adapters8adapters5agentINtB4_14FnAgentAdapterNCNvNtNtB8_7fixture12fixture_impl34build_fixture_runtime_from_profiles1_0ENtB4_12AgentAdapter7executeB8_
FN:31,_RNvXs_NtNtCsblqRvDQyS7m_18boundline_adapters8adapters5agentINtB4_14FnAgentAdapterNCNvNtNtB8_7fixture12fixture_impl34build_fixture_runtime_from_profiles2_0ENtB4_12AgentAdapter7executeB8_
FN:31,_RNvXs_NtNtCsblqRvDQyS7m_18boundline_adapters8adapters5agentINtB4_14FnAgentAdapterNCNvNtNtNtB8_12orchestrator6engine5testss_59execute_step_dispatches_registered_agent_and_tool_endpoints0ENtB4_12AgentAdapter7executeB8_
FN:31,_RNvXs_NtNtCsblqRvDQyS7m_18boundline_adapters8adapters5agentINtB4_14FnAgentAdapterNCNvNtNtNtB8_12orchestrator6engine5testss_64run_normalizes_invalid_agent_results_into_unrecoverable_failures0ENtB4_12AgentAdapter7executeB8_
FN:22,_RNvMNtNtCsgV4MOW29Zwc_18boundline_adapters8adapters5agentINtB2_14FnAgentAdapterNCNvNtCsy8NdhUIsqy_4unit13decision_loop10build_loop0E3newB1l_
FN:22,_RNvMNtNtCsgV4MOW29Zwc_18boundline_adapters8adapters5agentINtB2_14FnAgentAdapterNCNvNtCsy8NdhUIsqy_4unit13decision_loop10build_loops_0E3newB1l_
FN:22,_RNvMNtNtCsgV4MOW29Zwc_18boundline_adapters8adapters5agentINtB2_14FnAgentAdapterNCNvNtCsy8NdhUIsqy_4unit13decision_loops_65decision_loop_preserves_structured_failure_output_in_tool_results0E3newB1l_
FN:31,_RNvXs_NtNtCsgV4MOW29Zwc_18boundline_adapters8adapters5agentINtB4_14FnAgentAdapterNCNvNtCsy8NdhUIsqy_4unit13decision_loop10build_loop0ENtB4_12AgentAdapter7executeB1n_
FN:31,_RNvXs_NtNtCsgV4MOW29Zwc_18boundline_adapters8adapters5agentINtB4_14FnAgentAdapterNCNvNtCsy8NdhUIsqy_4unit13decision_loop10build_loops_0ENtB4_12AgentAdapter7executeB1n_
FN:31,_RNvXs_NtNtCsgV4MOW29Zwc_18boundline_adapters8adapters5agentINtB4_14FnAgentAdapterNCNvNtCsy8NdhUIsqy_4unit13decision_loops_65decision_loop_preserves_structured_failure_output_in_tool_results0ENtB4_12AgentAdapter7executeB1n_
FNDA:10,_RNvMNtNtCsgV4MOW29Zwc_18boundline_adapters8adapters5agentINtB2_14FnAgentAdapterNCNvNtNtB6_7fixture12fixture_impl34build_fixture_runtime_from_profiles0_0E3newB6_
FNDA:10,_RNvMNtNtCsgV4MOW29Zwc_18boundline_adapters8adapters5agentINtB2_14FnAgentAdapterNCNvNtNtB6_7fixture12fixture_impl34build_fixture_runtime_from_profiles1_0E3newB6_
FNDA:10,_RNvMNtNtCsgV4MOW29Zwc_18boundline_adapters8adapters5agentINtB2_14FnAgentAdapterNCNvNtNtB6_7fixture12fixture_impl34build_fixture_runtime_from_profiles2_0E3newB6_
FNDA:4,_RNvXs_NtNtCsgV4MOW29Zwc_18boundline_adapters8adapters5agentINtB4_14FnAgentAdapterNCNvNtNtB8_7fixture12fixture_impl34build_fixture_runtime_from_profiles0_0ENtB4_12AgentAdapter7executeB8_
FNDA:5,_RNvXs_NtNtCsgV4MOW29Zwc_18boundline_adapters8adapters5agentINtB4_14FnAgentAdapterNCNvNtNtB8_7fixture12fixture_impl34build_fixture_runtime_from_profiles1_0ENtB4_12AgentAdapter7executeB8_
FNDA:0,_RNvXs_NtNtCsgV4MOW29Zwc_18boundline_adapters8adapters5agentINtB4_14FnAgentAdapterNCNvNtNtB8_7fixture12fixture_impl34build_fixture_runtime_from_profiles2_0ENtB4_12AgentAdapter7executeB8_
FNDA:13,_RNvMNtNtCsblqRvDQyS7m_18boundline_adapters8adapters5agentINtB2_14FnAgentAdapterNCNvNtNtB6_7fixture12fixture_impl34build_fixture_runtime_from_profiles0_0E3newB6_
FNDA:13,_RNvMNtNtCsblqRvDQyS7m_18boundline_adapters8adapters5agentINtB2_14FnAgentAdapterNCNvNtNtB6_7fixture12fixture_impl34build_fixture_runtime_from_profiles1_0E3newB6_
FNDA:13,_RNvMNtNtCsblqRvDQyS7m_18boundline_adapters8adapters5agentINtB2_14FnAgentAdapterNCNvNtNtB6_7fixture12fixture_impl34build_fixture_runtime_from_profiles2_0E3newB6_
FNDA:1,_RNvMNtNtCsblqRvDQyS7m_18boundline_adapters8adapters5agentINtB2_14FnAgentAdapterNCNvNtNtNtB6_12orchestrator6engine5testss_59execute_step_dispatches_registered_agent_and_tool_endpoints0E3newB6_
FNDA:1,_RNvMNtNtCsblqRvDQyS7m_18boundline_adapters8adapters5agentINtB2_14FnAgentAdapterNCNvNtNtNtB6_12orchestrator6engine5testss_64run_normalizes_invalid_agent_results_into_unrecoverable_failures0E3newB6_
FNDA:2,_RNvXs_NtNtCsblqRvDQyS7m_18boundline_adapters8adapters5agentINtB4_14FnAgentAdapterNCNvNtNtB8_7fixture12fixture_impl34build_fixture_runtime_from_profiles0_0ENtB4_12AgentAdapter7executeB8_
FNDA:0,_RNvXs_NtNtCsblqRvDQyS7m_18boundline_adapters8adapters5agentINtB4_14FnAgentAdapterNCNvNtNtB8_7fixture12fixture_impl34build_fixture_runtime_from_profiles1_0ENtB4_12AgentAdapter7executeB8_
FNDA:0,_RNvXs_NtNtCsblqRvDQyS7m_18boundline_adapters8adapters5agentINtB4_14FnAgentAdapterNCNvNtNtB8_7fixture12fixture_impl34build_fixture_runtime_from_profiles2_0ENtB4_12AgentAdapter7executeB8_
FNDA:1,_RNvXs_NtNtCsblqRvDQyS7m_18boundline_adapters8adapters5agentINtB4_14FnAgentAdapterNCNvNtNtNtB8_12orchestrator6engine5testss_59execute_step_dispatches_registered_agent_and_tool_endpoints0ENtB4_12AgentAdapter7executeB8_
FNDA:1,_RNvXs_NtNtCsblqRvDQyS7m_18boundline_adapters8adapters5agentINtB4_14FnAgentAdapterNCNvNtNtNtB8_12orchestrator6engine5testss_64run_normalizes_invalid_agent_results_into_unrecoverable_failures0ENtB4_12AgentAdapter7executeB8_
FNDA:9,_RNvMNtNtCsgV4MOW29Zwc_18boundline_adapters8adapters5agentINtB2_14FnAgentAdapterNCNvNtCsy8NdhUIsqy_4unit13decision_loop10build_loop0E3newB1l_
FNDA:9,_RNvMNtNtCsgV4MOW29Zwc_18boundline_adapters8adapters5agentINtB2_14FnAgentAdapterNCNvNtCsy8NdhUIsqy_4unit13decision_loop10build_loops_0E3newB1l_
FNDA:1,_RNvMNtNtCsgV4MOW29Zwc_18boundline_adapters8adapters5agentINtB2_14FnAgentAdapterNCNvNtCsy8NdhUIsqy_4unit13decision_loops_65decision_loop_preserves_structured_failure_output_in_tool_results0E3newB1l_
FNDA:10,_RNvXs_NtNtCsgV4MOW29Zwc_18boundline_adapters8adapters5agentINtB4_14FnAgentAdapterNCNvNtCsy8NdhUIsqy_4unit13decision_loop10build_loop0ENtB4_12AgentAdapter7executeB1n_
FNDA:1,_RNvXs_NtNtCsgV4MOW29Zwc_18boundline_adapters8adapters5agentINtB4_14FnAgentAdapterNCNvNtCsy8NdhUIsqy_4unit13decision_loop10build_loops_0ENtB4_12AgentAdapter7executeB1n_
FNDA:1,_RNvXs_NtNtCsgV4MOW29Zwc_18boundline_adapters8adapters5agentINtB4_14FnAgentAdapterNCNvNtCsy8NdhUIsqy_4unit13decision_loops_65decision_loop_preserves_structured_failure_output_in_tool_results0ENtB4_12AgentAdapter7executeB1n_
FNF:2
FNH:2
DA:22,90
DA:23,90
DA:24,90
DA:31,25
DA:32,25
DA:33,25
BRF:0
BRH:0
LF:6
LH:6
end_of_record
SF:/Users/rt/workspace/apply-the/boundline/crates/boundline-adapters/src/../../../src/adapters/checkpoint_store.rs
FN:44,_RINvMNtNtCsgV4MOW29Zwc_18boundline_adapters8adapters16checkpoint_storeNtB3_19FileCheckpointStore13for_workspaceRNtNtCsg55jX0GwzBC_3std4path7PathBufECs9UpcZiueOLV_13boundline_cli
FN:113,_RNvMNtNtCsgV4MOW29Zwc_18boundline_adapters8adapters16checkpoint_storeNtB2_19FileCheckpointStore10load_group
FN:268,_RNvMNtNtCsgV4MOW29Zwc_18boundline_adapters8adapters16checkpoint_storeNtB2_19FileCheckpointStore13manifest_path
FN:134,_RNvMNtNtCsgV4MOW29Zwc_18boundline_adapters8adapters16checkpoint_storeNtB2_19FileCheckpointStore14refuse_restore
FN:124,_RNvMNtNtCsgV4MOW29Zwc_18boundline_adapters8adapters16checkpoint_storeNtB2_19FileCheckpointStore17restore_conflicts
FN:292,_RNvMNtNtCsgV4MOW29Zwc_18boundline_adapters8adapters16checkpoint_storeNtB2_19FileCheckpointStore22persist_restore_result
FN:199,_RNvMNtNtCsgV4MOW29Zwc_18boundline_adapters8adapters16checkpoint_storeNtB2_19FileCheckpointStore22refresh_observed_state
FN:272,_RNvMNtNtCsgV4MOW29Zwc_18boundline_adapters8adapters16checkpoint_storeNtB2_19FileCheckpointStore25collect_restore_conflicts
FN:81,_RNvMNtNtCsgV4MOW29Zwc_18boundline_adapters8adapters16checkpoint_storeNtB2_19FileCheckpointStore4list
FN:64,_RNvMNtNtCsgV4MOW29Zwc_18boundline_adapters8adapters16checkpoint_storeNtB2_19FileCheckpointStore4load
FN:48,_RNvMNtNtCsgV4MOW29Zwc_18boundline_adapters8adapters16checkpoint_storeNtB2_19FileCheckpointStore4root
FN:153,_RNvMNtNtCsgV4MOW29Zwc_18boundline_adapters8adapters16checkpoint_storeNtB2_19FileCheckpointStore7capture
FN:52,_RNvMNtNtCsgV4MOW29Zwc_18boundline_adapters8adapters16checkpoint_storeNtB2_19FileCheckpointStore7persist
FN:217,_RNvMNtNtCsgV4MOW29Zwc_18boundline_adapters8adapters16checkpoint_storeNtB2_19FileCheckpointStore7restore
FN:315,_RNvNtNtCsgV4MOW29Zwc_18boundline_adapters8adapters16checkpoint_store22read_optional_contents
FN:44,_RINvMNtNtCsgV4MOW29Zwc_18boundline_adapters8adapters16checkpoint_storeNtB3_19FileCheckpointStore13for_workspaceRNtNtCsg55jX0GwzBC_3std4path4PathEB7_
FN:40,_RINvMNtNtCsgV4MOW29Zwc_18boundline_adapters8adapters16checkpoint_storeNtB3_19FileCheckpointStore3newNtNtCsg55jX0GwzBC_3std4path7PathBufEB7_
FN:108,_RNCNCNvMNtNtCsgV4MOW29Zwc_18boundline_adapters8adapters16checkpoint_storeNtB6_19FileCheckpointStore4lists0_00Ba_
FN:120,_RNCNvMNtNtCsgV4MOW29Zwc_18boundline_adapters8adapters16checkpoint_storeNtB4_19FileCheckpointStore10load_group0B8_
FN:90,_RNCNvMNtNtCsgV4MOW29Zwc_18boundline_adapters8adapters16checkpoint_storeNtB4_19FileCheckpointStore4list0B8_
FN:104,_RNCNvMNtNtCsgV4MOW29Zwc_18boundline_adapters8adapters16checkpoint_storeNtB4_19FileCheckpointStore4lists0_0B8_
FN:100,_RNCNvMNtNtCsgV4MOW29Zwc_18boundline_adapters8adapters16checkpoint_storeNtB4_19FileCheckpointStore4lists_0B8_
FN:77,_RNCNvMNtNtCsgV4MOW29Zwc_18boundline_adapters8adapters16checkpoint_storeNtB4_19FileCheckpointStore4load0B8_
FN:55,_RNCNvMNtNtCsgV4MOW29Zwc_18boundline_adapters8adapters16checkpoint_storeNtB4_19FileCheckpointStore7persist0B8_
FN:113,_RNvMNtNtCsblqRvDQyS7m_18boundline_adapters8adapters16checkpoint_storeNtB2_19FileCheckpointStore10load_group
FN:268,_RNvMNtNtCsblqRvDQyS7m_18boundline_adapters8adapters16checkpoint_storeNtB2_19FileCheckpointStore13manifest_path
FN:134,_RNvMNtNtCsblqRvDQyS7m_18boundline_adapters8adapters16checkpoint_storeNtB2_19FileCheckpointStore14refuse_restore
FN:124,_RNvMNtNtCsblqRvDQyS7m_18boundline_adapters8adapters16checkpoint_storeNtB2_19FileCheckpointStore17restore_conflicts
FN:292,_RNvMNtNtCsblqRvDQyS7m_18boundline_adapters8adapters16checkpoint_storeNtB2_19FileCheckpointStore22persist_restore_result
FN:199,_RNvMNtNtCsblqRvDQyS7m_18boundline_adapters8adapters16checkpoint_storeNtB2_19FileCheckpointStore22refresh_observed_state
FN:272,_RNvMNtNtCsblqRvDQyS7m_18boundline_adapters8adapters16checkpoint_storeNtB2_19FileCheckpointStore25collect_restore_conflicts
FN:81,_RNvMNtNtCsblqRvDQyS7m_18boundline_adapters8adapters16checkpoint_storeNtB2_19FileCheckpointStore4list
FN:64,_RNvMNtNtCsblqRvDQyS7m_18boundline_adapters8adapters16checkpoint_storeNtB2_19FileCheckpointStore4load
FN:48,_RNvMNtNtCsblqRvDQyS7m_18boundline_adapters8adapters16checkpoint_storeNtB2_19FileCheckpointStore4root
FN:153,_RNvMNtNtCsblqRvDQyS7m_18boundline_adapters8adapters16checkpoint_storeNtB2_19FileCheckpointStore7capture
FN:52,_RNvMNtNtCsblqRvDQyS7m_18boundline_adapters8adapters16checkpoint_storeNtB2_19FileCheckpointStore7persist
FN:217,_RNvMNtNtCsblqRvDQyS7m_18boundline_adapters8adapters16checkpoint_storeNtB2_19FileCheckpointStore7restore
FN:315,_RNvNtNtCsblqRvDQyS7m_18boundline_adapters8adapters16checkpoint_store22read_optional_contents
FN:44,_RINvMNtNtCsblqRvDQyS7m_18boundline_adapters8adapters16checkpoint_storeNtB3_19FileCheckpointStore13for_workspaceRNtNtCsg55jX0GwzBC_3std4path4PathEB7_
FN:44,_RINvMNtNtCsblqRvDQyS7m_18boundline_adapters8adapters16checkpoint_storeNtB3_19FileCheckpointStore13for_workspaceRNtNtCsg55jX0GwzBC_3std4path7PathBufEB7_
FN:40,_RINvMNtNtCsblqRvDQyS7m_18boundline_adapters8adapters16checkpoint_storeNtB3_19FileCheckpointStore3newNtNtCsg55jX0GwzBC_3std4path7PathBufEB7_
FN:108,_RNCNCNvMNtNtCsblqRvDQyS7m_18boundline_adapters8adapters16checkpoint_storeNtB6_19FileCheckpointStore4lists0_00Ba_
FN:120,_RNCNvMNtNtCsblqRvDQyS7m_18boundline_adapters8adapters16checkpoint_storeNtB4_19FileCheckpointStore10load_group0B8_
FN:90,_RNCNvMNtNtCsblqRvDQyS7m_18boundline_adapters8adapters16checkpoint_storeNtB4_19FileCheckpointStore4list0B8_
FN:104,_RNCNvMNtNtCsblqRvDQyS7m_18boundline_adapters8adapters16checkpoint_storeNtB4_19FileCheckpointStore4lists0_0B8_
FN:100,_RNCNvMNtNtCsblqRvDQyS7m_18boundline_adapters8adapters16checkpoint_storeNtB4_19FileCheckpointStore4lists_0B8_
FN:77,_RNCNvMNtNtCsblqRvDQyS7m_18boundline_adapters8adapters16checkpoint_storeNtB4_19FileCheckpointStore4load0B8_
FN:55,_RNCNvMNtNtCsblqRvDQyS7m_18boundline_adapters8adapters16checkpoint_storeNtB4_19FileCheckpointStore7persist0B8_
FN:357,_RNvNtNtNtCsblqRvDQyS7m_18boundline_adapters8adapters16checkpoint_store5tests14temp_workspace
FN:364,_RNvNtNtNtCsblqRvDQyS7m_18boundline_adapters8adapters16checkpoint_store5testss_54capture_refresh_and_restore_round_trip_workspace_files
FN:440,_RNvNtNtNtCsblqRvDQyS7m_18boundline_adapters8adapters16checkpoint_store5testss_56store_helpers_cover_missing_state_and_custom_root_access
FN:465,_RNvNtNtNtCsblqRvDQyS7m_18boundline_adapters8adapters16checkpoint_store5testss_69capture_filters_duplicate_paths_and_restore_recreates_missing_parents
FN:399,_RNvNtNtNtCsblqRvDQyS7m_18boundline_adapters8adapters16checkpoint_store5testss_75safe_restore_refuses_after_newer_edits_and_force_restores_original_contents
FNDA:27,_RINvMNtNtCsgV4MOW29Zwc_18boundline_adapters8adapters16checkpoint_storeNtB3_19FileCheckpointStore13for_workspaceRNtNtCsg55jX0GwzBC_3std4path7PathBufECs9UpcZiueOLV_13boundline_cli
FNDA:0,_RNvMNtNtCsgV4MOW29Zwc_18boundline_adapters8adapters16checkpoint_storeNtB2_19FileCheckpointStore10load_group
FNDA:22,_RNvMNtNtCsgV4MOW29Zwc_18boundline_adapters8adapters16checkpoint_storeNtB2_19FileCheckpointStore13manifest_path
FNDA:0,_RNvMNtNtCsgV4MOW29Zwc_18boundline_adapters8adapters16checkpoint_storeNtB2_19FileCheckpointStore14refuse_restore
FNDA:0,_RNvMNtNtCsgV4MOW29Zwc_18boundline_adapters8adapters16checkpoint_storeNtB2_19FileCheckpointStore17restore_conflicts
FNDA:0,_RNvMNtNtCsgV4MOW29Zwc_18boundline_adapters8adapters16checkpoint_storeNtB2_19FileCheckpointStore22persist_restore_result
FNDA:6,_RNvMNtNtCsgV4MOW29Zwc_18boundline_adapters8adapters16checkpoint_storeNtB2_19FileCheckpointStore22refresh_observed_state
FNDA:0,_RNvMNtNtCsgV4MOW29Zwc_18boundline_adapters8adapters16checkpoint_storeNtB2_19FileCheckpointStore25collect_restore_conflicts
FNDA:0,_RNvMNtNtCsgV4MOW29Zwc_18boundline_adapters8adapters16checkpoint_storeNtB2_19FileCheckpointStore4list
FNDA:6,_RNvMNtNtCsgV4MOW29Zwc_18boundline_adapters8adapters16checkpoint_storeNtB2_19FileCheckpointStore4load
FNDA:0,_RNvMNtNtCsgV4MOW29Zwc_18boundline_adapters8adapters16checkpoint_storeNtB2_19FileCheckpointStore4root
FNDA:10,_RNvMNtNtCsgV4MOW29Zwc_18boundline_adapters8adapters16checkpoint_storeNtB2_19FileCheckpointStore7capture
FNDA:16,_RNvMNtNtCsgV4MOW29Zwc_18boundline_adapters8adapters16checkpoint_storeNtB2_19FileCheckpointStore7persist
FNDA:0,_RNvMNtNtCsgV4MOW29Zwc_18boundline_adapters8adapters16checkpoint_storeNtB2_19FileCheckpointStore7restore
FNDA:16,_RNvNtNtCsgV4MOW29Zwc_18boundline_adapters8adapters16checkpoint_store22read_optional_contents
FNDA:16,_RINvMNtNtCsgV4MOW29Zwc_18boundline_adapters8adapters16checkpoint_storeNtB3_19FileCheckpointStore13for_workspaceRNtNtCsg55jX0GwzBC_3std4path4PathEB7_
FNDA:43,_RINvMNtNtCsgV4MOW29Zwc_18boundline_adapters8adapters16checkpoint_storeNtB3_19FileCheckpointStore3newNtNtCsg55jX0GwzBC_3std4path7PathBufEB7_
FNDA:0,_RNCNCNvMNtNtCsgV4MOW29Zwc_18boundline_adapters8adapters16checkpoint_storeNtB6_19FileCheckpointStore4lists0_00Ba_
FNDA:0,_RNCNvMNtNtCsgV4MOW29Zwc_18boundline_adapters8adapters16checkpoint_storeNtB4_19FileCheckpointStore10load_group0B8_
FNDA:0,_RNCNvMNtNtCsgV4MOW29Zwc_18boundline_adapters8adapters16checkpoint_storeNtB4_19FileCheckpointStore4list0B8_
FNDA:0,_RNCNvMNtNtCsgV4MOW29Zwc_18boundline_adapters8adapters16checkpoint_storeNtB4_19FileCheckpointStore4lists0_0B8_
FNDA:0,_RNCNvMNtNtCsgV4MOW29Zwc_18boundline_adapters8adapters16checkpoint_storeNtB4_19FileCheckpointStore4lists_0B8_
FNDA:0,_RNCNvMNtNtCsgV4MOW29Zwc_18boundline_adapters8adapters16checkpoint_storeNtB4_19FileCheckpointStore4load0B8_
FNDA:0,_RNCNvMNtNtCsgV4MOW29Zwc_18boundline_adapters8adapters16checkpoint_storeNtB4_19FileCheckpointStore7persist0B8_
FNDA:6,_RNvMNtNtCsblqRvDQyS7m_18boundline_adapters8adapters16checkpoint_storeNtB2_19FileCheckpointStore10load_group
FNDA:62,_RNvMNtNtCsblqRvDQyS7m_18boundline_adapters8adapters16checkpoint_storeNtB2_19FileCheckpointStore13manifest_path
FNDA:1,_RNvMNtNtCsblqRvDQyS7m_18boundline_adapters8adapters16checkpoint_storeNtB2_19FileCheckpointStore14refuse_restore
FNDA:2,_RNvMNtNtCsblqRvDQyS7m_18boundline_adapters8adapters16checkpoint_storeNtB2_19FileCheckpointStore17restore_conflicts
FNDA:4,_RNvMNtNtCsblqRvDQyS7m_18boundline_adapters8adapters16checkpoint_storeNtB2_19FileCheckpointStore22persist_restore_result
FNDA:16,_RNvMNtNtCsblqRvDQyS7m_18boundline_adapters8adapters16checkpoint_storeNtB2_19FileCheckpointStore22refresh_observed_state
FNDA:3,_RNvMNtNtCsblqRvDQyS7m_18boundline_adapters8adapters16checkpoint_storeNtB2_19FileCheckpointStore25collect_restore_conflicts
FNDA:8,_RNvMNtNtCsblqRvDQyS7m_18boundline_adapters8adapters16checkpoint_storeNtB2_19FileCheckpointStore4list
FNDA:26,_RNvMNtNtCsblqRvDQyS7m_18boundline_adapters8adapters16checkpoint_storeNtB2_19FileCheckpointStore4load
FNDA:2,_RNvMNtNtCsblqRvDQyS7m_18boundline_adapters8adapters16checkpoint_storeNtB2_19FileCheckpointStore4root
FNDA:17,_RNvMNtNtCsblqRvDQyS7m_18boundline_adapters8adapters16checkpoint_storeNtB2_19FileCheckpointStore7capture
FNDA:36,_RNvMNtNtCsblqRvDQyS7m_18boundline_adapters8adapters16checkpoint_storeNtB2_19FileCheckpointStore7persist
FNDA:5,_RNvMNtNtCsblqRvDQyS7m_18boundline_adapters8adapters16checkpoint_storeNtB2_19FileCheckpointStore7restore
FNDA:39,_RNvNtNtCsblqRvDQyS7m_18boundline_adapters8adapters16checkpoint_store22read_optional_contents
FNDA:26,_RINvMNtNtCsblqRvDQyS7m_18boundline_adapters8adapters16checkpoint_storeNtB3_19FileCheckpointStore13for_workspaceRNtNtCsg55jX0GwzBC_3std4path4PathEB7_
FNDA:26,_RINvMNtNtCsblqRvDQyS7m_18boundline_adapters8adapters16checkpoint_storeNtB3_19FileCheckpointStore13for_workspaceRNtNtCsg55jX0GwzBC_3std4path7PathBufEB7_
FNDA:53,_RINvMNtNtCsblqRvDQyS7m_18boundline_adapters8adapters16checkpoint_storeNtB3_19FileCheckpointStore3newNtNtCsg55jX0GwzBC_3std4path7PathBufEB7_
FNDA:0,_RNCNCNvMNtNtCsblqRvDQyS7m_18boundline_adapters8adapters16checkpoint_storeNtB6_19FileCheckpointStore4lists0_00Ba_
FNDA:7,_RNCNvMNtNtCsblqRvDQyS7m_18boundline_adapters8adapters16checkpoint_storeNtB4_19FileCheckpointStore10load_group0B8_
FNDA:11,_RNCNvMNtNtCsblqRvDQyS7m_18boundline_adapters8adapters16checkpoint_storeNtB4_19FileCheckpointStore4list0B8_
FNDA:2,_RNCNvMNtNtCsblqRvDQyS7m_18boundline_adapters8adapters16checkpoint_storeNtB4_19FileCheckpointStore4lists0_0B8_
FNDA:0,_RNCNvMNtNtCsblqRvDQyS7m_18boundline_adapters8adapters16checkpoint_storeNtB4_19FileCheckpointStore4lists_0B8_
FNDA:0,_RNCNvMNtNtCsblqRvDQyS7m_18boundline_adapters8adapters16checkpoint_storeNtB4_19FileCheckpointStore4load0B8_
FNDA:0,_RNCNvMNtNtCsblqRvDQyS7m_18boundline_adapters8adapters16checkpoint_storeNtB4_19FileCheckpointStore7persist0B8_
FNDA:3,_RNvNtNtNtCsblqRvDQyS7m_18boundline_adapters8adapters16checkpoint_store5tests14temp_workspace
FNDA:1,_RNvNtNtNtCsblqRvDQyS7m_18boundline_adapters8adapters16checkpoint_store5testss_54capture_refresh_and_restore_round_trip_workspace_files
FNDA:1,_RNvNtNtNtCsblqRvDQyS7m_18boundline_adapters8adapters16checkpoint_store5testss_56store_helpers_cover_missing_state_and_custom_root_access
FNDA:1,_RNvNtNtNtCsblqRvDQyS7m_18boundline_adapters8adapters16checkpoint_store5testss_69capture_filters_duplicate_paths_and_restore_recreates_missing_parents
FNDA:1,_RNvNtNtNtCsblqRvDQyS7m_18boundline_adapters8adapters16checkpoint_store5testss_75safe_restore_refuses_after_newer_edits_and_force_restores_original_contents
FNF:28
FNH:24
DA:40,96
DA:41,96
DA:42,96
DA:44,95
DA:45,95
DA:46,95
DA:48,2
DA:49,2
DA:50,2
DA:52,52
DA:53,52
DA:54,52
DA:55,52
DA:56,52
DA:57,52
DA:58,52
DA:59,52
DA:60,52
DA:61,52
DA:62,52
DA:64,32
DA:65,32
DA:66,32
DA:67,32
DA:68,32
DA:69,32
DA:70,5
DA:71,27
DA:72,27
DA:73,27
DA:74,27
DA:75,27
DA:76,27
DA:77,27
DA:78,27
DA:79,32
DA:81,8
DA:82,8
DA:83,1
DA:84,7
DA:86,7
DA:87,11
DA:88,11
DA:89,11
DA:90,11
DA:92,2
DA:93,9
DA:95,9
DA:96,9
DA:97,9
DA:98,9
DA:99,9
DA:100,9
DA:101,9
DA:104,7
DA:105,2
DA:106,2
DA:107,2
DA:108,2
DA:109,2
DA:110,7
DA:111,8
DA:113,6
DA:114,6
DA:115,6
DA:116,6
DA:117,6
DA:118,6
DA:119,6
DA:120,7
DA:121,6
DA:122,6
DA:124,2
DA:125,2
DA:126,2
DA:127,2
DA:128,2
DA:129,1
DA:131,1
DA:132,2
DA:134,1
DA:135,1
DA:136,1
DA:137,1
DA:138,1
DA:139,1
DA:140,1
DA:141,1
DA:144,0
DA:145,0
DA:146,0
DA:147,0
DA:148,0
DA:149,0
DA:151,1
DA:153,27
DA:154,27
DA:155,27
DA:156,27
DA:157,27
DA:158,27
DA:159,27
DA:160,27
DA:162,31
DA:163,31
DA:164,2
DA:165,29
DA:167,29
DA:168,29
DA:169,29
DA:170,18
DA:171,17
DA:172,11
DA:174,29
DA:175,29
DA:176,29
DA:177,29
DA:178,29
DA:182,27
DA:183,27
DA:184,27
DA:185,27
DA:186,27
DA:187,27
DA:188,27
DA:189,27
DA:190,27
DA:191,27
DA:192,27
DA:193,27
DA:194,27
DA:195,27
DA:196,27
DA:197,27
DA:199,22
DA:200,22
DA:201,22
DA:202,22
DA:203,22
DA:204,1
DA:207,22
DA:208,22
DA:209,22
DA:210,22
DA:213,21
DA:214,21
DA:215,22
DA:217,5
DA:218,5
DA:219,5
DA:220,5
DA:221,5
DA:222,5
DA:223,1
DA:226,4
DA:227,4
DA:228,2
DA:230,2
DA:232,4
DA:234,4
DA:235,1
DA:236,1
DA:237,1
DA:238,1
DA:239,1
DA:240,1
DA:242,3
DA:244,5
DA:245,5
DA:246,5
DA:247,2
DA:248,2
DA:249,0
DA:250,3
DA:251,3
DA:252,3
DA:253,0
DA:254,3
DA:255,0
DA:256,5
DA:259,3
DA:260,3
DA:261,3
DA:262,3
DA:263,3
DA:264,3
DA:266,5
DA:268,84
DA:269,84
DA:270,84
DA:272,3
DA:273,3
DA:274,3
DA:275,3
DA:276,3
DA:277,3
DA:279,4
DA:280,4
DA:281,4
DA:282,4
DA:283,4
DA:284,4
DA:285,2
DA:286,2
DA:289,3
DA:290,3
DA:292,4
DA:293,4
DA:294,4
DA:295,4
DA:296,4
DA:297,4
DA:298,4
DA:299,4
DA:300,4
DA:301,4
DA:302,4
DA:303,4
DA:304,4
DA:305,4
DA:306,4
DA:307,4
DA:308,4
DA:309,4
DA:311,4
DA:312,4
DA:315,55
DA:316,55
DA:317,20
DA:318,35
DA:319,35
DA:320,55
DA:357,3
DA:358,3
DA:359,3
DA:360,3
DA:361,3
DA:364,1
DA:365,1
DA:366,1
DA:368,1
DA:369,1
DA:370,1
DA:371,1
DA:372,1
DA:373,1
DA:374,1
DA:375,1
DA:376,1
DA:377,1
DA:378,1
DA:379,1
DA:380,1
DA:381,1
DA:382,1
DA:384,1
DA:385,1
DA:386,1
DA:388,1
DA:389,1
DA:390,1
DA:392,1
DA:393,1
DA:394,1
DA:395,1
DA:396,1
DA:399,1
DA:400,1
DA:401,1
DA:403,1
DA:404,1
DA:405,1
DA:406,1
DA:407,1
DA:408,1
DA:409,1
DA:410,1
DA:411,1
DA:412,1
DA:413,1
DA:414,1
DA:415,1
DA:416,1
DA:417,1
DA:419,1
DA:420,1
DA:421,1
DA:423,1
DA:424,1
DA:426,1
DA:427,1
DA:428,1
DA:429,1
DA:431,1
DA:432,1
DA:433,1
DA:435,1
DA:436,1
DA:437,1
DA:440,1
DA:441,1
DA:442,1
DA:443,1
DA:445,1
DA:446,1
DA:447,1
DA:448,1
DA:449,1
DA:450,1
DA:451,1
DA:452,1
DA:453,1
DA:454,1
DA:456,1
DA:458,1
DA:459,1
DA:460,1
DA:462,1
DA:465,1
DA:466,1
DA:467,1
DA:468,1
DA:470,1
DA:471,1
DA:472,1
DA:473,1
DA:474,1
DA:475,1
DA:476,1
DA:477,1
DA:478,1
DA:479,1
DA:480,1
DA:481,1
DA:482,1
DA:483,1
DA:484,1
DA:485,1
DA:486,1
DA:487,1
DA:488,1
DA:489,1
DA:490,1
DA:491,1
DA:492,1
DA:493,1
DA:494,1
DA:495,1
DA:496,1
DA:497,1
DA:498,1
DA:499,1
DA:500,1
DA:501,1
DA:502,1
DA:503,1
DA:505,1
DA:506,1
DA:507,1
DA:509,1
DA:510,1
DA:511,1
DA:512,1
DA:514,1
DA:515,1
DA:516,1
DA:518,1
DA:519,1
DA:520,1
DA:521,1
DA:522,1
BRF:0
BRH:0
LF:378
LH:365
end_of_record
SF:/Users/rt/workspace/apply-the/boundline/crates/boundline-adapters/src/../../../src/adapters/cluster_store.rs
FN:16,_RNvMNtNtCsgV4MOW29Zwc_18boundline_adapters8adapters13cluster_storeNtB2_16FileClusterStore13for_workspace
FN:20,_RNvMNtNtCsgV4MOW29Zwc_18boundline_adapters8adapters13cluster_storeNtB2_16FileClusterStore19cluster_config_path
FN:24,_RNvMNtNtCsgV4MOW29Zwc_18boundline_adapters8adapters13cluster_storeNtB2_16FileClusterStore4load
FN:28,_RNvMNtNtCsgV4MOW29Zwc_18boundline_adapters8adapters13cluster_storeNtB2_16FileClusterStore4save
FN:52,_RNvNtNtCsgV4MOW29Zwc_18boundline_adapters8adapters13cluster_store12save_to_path
FN:33,_RNvNtNtCsgV4MOW29Zwc_18boundline_adapters8adapters13cluster_store14load_from_path
FN:54,_RNCNvNtNtCsgV4MOW29Zwc_18boundline_adapters8adapters13cluster_store12save_to_path0B7_
FN:63,_RNCNvNtNtCsgV4MOW29Zwc_18boundline_adapters8adapters13cluster_store12save_to_paths0_0B7_
FN:67,_RNCNvNtNtCsgV4MOW29Zwc_18boundline_adapters8adapters13cluster_store12save_to_paths1_0B7_
FN:59,_RNCNvNtNtCsgV4MOW29Zwc_18boundline_adapters8adapters13cluster_store12save_to_paths_0B7_
FN:39,_RNCNvNtNtCsgV4MOW29Zwc_18boundline_adapters8adapters13cluster_store14load_from_path0B7_
FN:45,_RNCNvNtNtCsgV4MOW29Zwc_18boundline_adapters8adapters13cluster_store14load_from_paths0_0B7_
FN:42,_RNCNvNtNtCsgV4MOW29Zwc_18boundline_adapters8adapters13cluster_store14load_from_paths_0B7_
FN:98,_RNvNtNtNtCsblqRvDQyS7m_18boundline_adapters8adapters13cluster_store5testss_31cluster_config_round_trip_works
FN:16,_RNvMNtNtCsblqRvDQyS7m_18boundline_adapters8adapters13cluster_storeNtB2_16FileClusterStore13for_workspace
FN:20,_RNvMNtNtCsblqRvDQyS7m_18boundline_adapters8adapters13cluster_storeNtB2_16FileClusterStore19cluster_config_path
FN:24,_RNvMNtNtCsblqRvDQyS7m_18boundline_adapters8adapters13cluster_storeNtB2_16FileClusterStore4load
FN:28,_RNvMNtNtCsblqRvDQyS7m_18boundline_adapters8adapters13cluster_storeNtB2_16FileClusterStore4save
FN:52,_RNvNtNtCsblqRvDQyS7m_18boundline_adapters8adapters13cluster_store12save_to_path
FN:33,_RNvNtNtCsblqRvDQyS7m_18boundline_adapters8adapters13cluster_store14load_from_path
FN:54,_RNCNvNtNtCsblqRvDQyS7m_18boundline_adapters8adapters13cluster_store12save_to_path0B7_
FN:63,_RNCNvNtNtCsblqRvDQyS7m_18boundline_adapters8adapters13cluster_store12save_to_paths0_0B7_
FN:67,_RNCNvNtNtCsblqRvDQyS7m_18boundline_adapters8adapters13cluster_store12save_to_paths1_0B7_
FN:59,_RNCNvNtNtCsblqRvDQyS7m_18boundline_adapters8adapters13cluster_store12save_to_paths_0B7_
FN:39,_RNCNvNtNtCsblqRvDQyS7m_18boundline_adapters8adapters13cluster_store14load_from_path0B7_
FN:45,_RNCNvNtNtCsblqRvDQyS7m_18boundline_adapters8adapters13cluster_store14load_from_paths0_0B7_
FN:42,_RNCNvNtNtCsblqRvDQyS7m_18boundline_adapters8adapters13cluster_store14load_from_paths_0B7_
FNDA:90,_RNvMNtNtCsgV4MOW29Zwc_18boundline_adapters8adapters13cluster_storeNtB2_16FileClusterStore13for_workspace
FNDA:90,_RNvMNtNtCsgV4MOW29Zwc_18boundline_adapters8adapters13cluster_storeNtB2_16FileClusterStore19cluster_config_path
FNDA:90,_RNvMNtNtCsgV4MOW29Zwc_18boundline_adapters8adapters13cluster_storeNtB2_16FileClusterStore4load
FNDA:0,_RNvMNtNtCsgV4MOW29Zwc_18boundline_adapters8adapters13cluster_storeNtB2_16FileClusterStore4save
FNDA:0,_RNvNtNtCsgV4MOW29Zwc_18boundline_adapters8adapters13cluster_store12save_to_path
FNDA:90,_RNvNtNtCsgV4MOW29Zwc_18boundline_adapters8adapters13cluster_store14load_from_path
FNDA:0,_RNCNvNtNtCsgV4MOW29Zwc_18boundline_adapters8adapters13cluster_store12save_to_path0B7_
FNDA:0,_RNCNvNtNtCsgV4MOW29Zwc_18boundline_adapters8adapters13cluster_store12save_to_paths0_0B7_
FNDA:0,_RNCNvNtNtCsgV4MOW29Zwc_18boundline_adapters8adapters13cluster_store12save_to_paths1_0B7_
FNDA:0,_RNCNvNtNtCsgV4MOW29Zwc_18boundline_adapters8adapters13cluster_store12save_to_paths_0B7_
FNDA:0,_RNCNvNtNtCsgV4MOW29Zwc_18boundline_adapters8adapters13cluster_store14load_from_path0B7_
FNDA:0,_RNCNvNtNtCsgV4MOW29Zwc_18boundline_adapters8adapters13cluster_store14load_from_paths0_0B7_
FNDA:0,_RNCNvNtNtCsgV4MOW29Zwc_18boundline_adapters8adapters13cluster_store14load_from_paths_0B7_
FNDA:1,_RNvNtNtNtCsblqRvDQyS7m_18boundline_adapters8adapters13cluster_store5testss_31cluster_config_round_trip_works
FNDA:55,_RNvMNtNtCsblqRvDQyS7m_18boundline_adapters8adapters13cluster_storeNtB2_16FileClusterStore13for_workspace
FNDA:56,_RNvMNtNtCsblqRvDQyS7m_18boundline_adapters8adapters13cluster_storeNtB2_16FileClusterStore19cluster_config_path
FNDA:55,_RNvMNtNtCsblqRvDQyS7m_18boundline_adapters8adapters13cluster_storeNtB2_16FileClusterStore4load
FNDA:1,_RNvMNtNtCsblqRvDQyS7m_18boundline_adapters8adapters13cluster_storeNtB2_16FileClusterStore4save
FNDA:1,_RNvNtNtCsblqRvDQyS7m_18boundline_adapters8adapters13cluster_store12save_to_path
FNDA:55,_RNvNtNtCsblqRvDQyS7m_18boundline_adapters8adapters13cluster_store14load_from_path
FNDA:0,_RNCNvNtNtCsblqRvDQyS7m_18boundline_adapters8adapters13cluster_store12save_to_path0B7_
FNDA:0,_RNCNvNtNtCsblqRvDQyS7m_18boundline_adapters8adapters13cluster_store12save_to_paths0_0B7_
FNDA:0,_RNCNvNtNtCsblqRvDQyS7m_18boundline_adapters8adapters13cluster_store12save_to_paths1_0B7_
FNDA:0,_RNCNvNtNtCsblqRvDQyS7m_18boundline_adapters8adapters13cluster_store12save_to_paths_0B7_
FNDA:0,_RNCNvNtNtCsblqRvDQyS7m_18boundline_adapters8adapters13cluster_store14load_from_path0B7_
FNDA:0,_RNCNvNtNtCsblqRvDQyS7m_18boundline_adapters8adapters13cluster_store14load_from_paths0_0B7_
FNDA:0,_RNCNvNtNtCsblqRvDQyS7m_18boundline_adapters8adapters13cluster_store14load_from_paths_0B7_
FNF:14
FNH:7
DA:16,145
DA:17,145
DA:18,145
DA:20,146
DA:21,146
DA:22,146
DA:24,145
DA:25,145
DA:26,145
DA:28,1
DA:29,1
DA:30,1
DA:33,145
DA:34,145
DA:35,144
DA:36,1
DA:38,1
DA:39,1
DA:41,1
DA:42,1
DA:44,1
DA:45,0
DA:46,0
DA:47,0
DA:49,1
DA:50,145
DA:52,1
DA:53,1
DA:54,0
DA:55,0
DA:56,0
DA:58,1
DA:59,1
DA:61,1
DA:62,1
DA:63,1
DA:64,0
DA:66,1
DA:67,1
DA:69,1
DA:70,1
DA:98,1
DA:99,1
DA:100,1
DA:102,1
DA:103,1
DA:104,1
DA:105,1
DA:106,1
DA:107,1
DA:108,1
DA:109,1
DA:110,1
DA:111,1
DA:112,1
DA:113,1
DA:114,1
DA:115,1
DA:116,1
DA:117,1
DA:118,1
DA:119,1
DA:120,1
DA:121,1
DA:122,1
DA:123,1
DA:124,1
DA:126,1
DA:127,1
DA:129,1
DA:130,1
DA:131,1
BRF:0
BRH:0
LF:79
LH:65
end_of_record
SF:/Users/rt/workspace/apply-the/boundline/crates/boundline-adapters/src/../../../src/adapters/config_store.rs
FN:34,_RNvMNtNtCsgV4MOW29Zwc_18boundline_adapters8adapters12config_storeNtB2_15FileConfigStore10load_local
FN:38,_RNvMNtNtCsgV4MOW29Zwc_18boundline_adapters8adapters12config_storeNtB2_15FileConfigStore10save_local
FN:42,_RNvMNtNtCsgV4MOW29Zwc_18boundline_adapters8adapters12config_storeNtB2_15FileConfigStore11load_global
FN:46,_RNvMNtNtCsgV4MOW29Zwc_18boundline_adapters8adapters12config_storeNtB2_15FileConfigStore11save_global
FN:17,_RNvMNtNtCsgV4MOW29Zwc_18boundline_adapters8adapters12config_storeNtB2_15FileConfigStore13for_workspace
FN:50,_RNvMNtNtCsgV4MOW29Zwc_18boundline_adapters8adapters12config_storeNtB2_15FileConfigStore13local_routing
FN:54,_RNvMNtNtCsgV4MOW29Zwc_18boundline_adapters8adapters12config_storeNtB2_15FileConfigStore14global_routing
FN:21,_RNvMNtNtCsgV4MOW29Zwc_18boundline_adapters8adapters12config_storeNtB2_15FileConfigStore17local_config_path
FN:25,_RNvMNtNtCsgV4MOW29Zwc_18boundline_adapters8adapters12config_storeNtB2_15FileConfigStore18global_config_path
FN:78,_RNvNtNtCsgV4MOW29Zwc_18boundline_adapters8adapters12config_store12save_to_path
FN:59,_RNvNtNtCsgV4MOW29Zwc_18boundline_adapters8adapters12config_store14load_from_path
FN:30,_RNCNvMNtNtCsgV4MOW29Zwc_18boundline_adapters8adapters12config_storeNtB4_15FileConfigStore18global_config_path0B8_
FN:80,_RNCNvNtNtCsgV4MOW29Zwc_18boundline_adapters8adapters12config_store12save_to_path0B7_
FN:89,_RNCNvNtNtCsgV4MOW29Zwc_18boundline_adapters8adapters12config_store12save_to_paths0_0B7_
FN:93,_RNCNvNtNtCsgV4MOW29Zwc_18boundline_adapters8adapters12config_store12save_to_paths1_0B7_
FN:85,_RNCNvNtNtCsgV4MOW29Zwc_18boundline_adapters8adapters12config_store12save_to_paths_0B7_
FN:65,_RNCNvNtNtCsgV4MOW29Zwc_18boundline_adapters8adapters12config_store14load_from_path0B7_
FN:71,_RNCNvNtNtCsgV4MOW29Zwc_18boundline_adapters8adapters12config_store14load_from_paths0_0B7_
FN:68,_RNCNvNtNtCsgV4MOW29Zwc_18boundline_adapters8adapters12config_store14load_from_paths_0B7_
FN:122,_RNvNtNtNtCsblqRvDQyS7m_18boundline_adapters8adapters12config_store5testss_22local_round_trip_works
FN:139,_RNvNtNtNtCsblqRvDQyS7m_18boundline_adapters8adapters12config_store5testss_39local_routing_returns_none_when_missing
FN:148,_RNvNtNtNtCsblqRvDQyS7m_18boundline_adapters8adapters12config_store5testss_40invalid_routing_is_rejected_before_write
FN:34,_RNvMNtNtCsblqRvDQyS7m_18boundline_adapters8adapters12config_storeNtB2_15FileConfigStore10load_local
FN:38,_RNvMNtNtCsblqRvDQyS7m_18boundline_adapters8adapters12config_storeNtB2_15FileConfigStore10save_local
FN:42,_RNvMNtNtCsblqRvDQyS7m_18boundline_adapters8adapters12config_storeNtB2_15FileConfigStore11load_global
FN:17,_RNvMNtNtCsblqRvDQyS7m_18boundline_adapters8adapters12config_storeNtB2_15FileConfigStore13for_workspace
FN:50,_RNvMNtNtCsblqRvDQyS7m_18boundline_adapters8adapters12config_storeNtB2_15FileConfigStore13local_routing
FN:54,_RNvMNtNtCsblqRvDQyS7m_18boundline_adapters8adapters12config_storeNtB2_15FileConfigStore14global_routing
FN:21,_RNvMNtNtCsblqRvDQyS7m_18boundline_adapters8adapters12config_storeNtB2_15FileConfigStore17local_config_path
FN:25,_RNvMNtNtCsblqRvDQyS7m_18boundline_adapters8adapters12config_storeNtB2_15FileConfigStore18global_config_path
FN:78,_RNvNtNtCsblqRvDQyS7m_18boundline_adapters8adapters12config_store12save_to_path
FN:59,_RNvNtNtCsblqRvDQyS7m_18boundline_adapters8adapters12config_store14load_from_path
FN:30,_RNCNvMNtNtCsblqRvDQyS7m_18boundline_adapters8adapters12config_storeNtB4_15FileConfigStore18global_config_path0B8_
FN:80,_RNCNvNtNtCsblqRvDQyS7m_18boundline_adapters8adapters12config_store12save_to_path0B7_
FN:89,_RNCNvNtNtCsblqRvDQyS7m_18boundline_adapters8adapters12config_store12save_to_paths0_0B7_
FN:93,_RNCNvNtNtCsblqRvDQyS7m_18boundline_adapters8adapters12config_store12save_to_paths1_0B7_
FN:85,_RNCNvNtNtCsblqRvDQyS7m_18boundline_adapters8adapters12config_store12save_to_paths_0B7_
FN:65,_RNCNvNtNtCsblqRvDQyS7m_18boundline_adapters8adapters12config_store14load_from_path0B7_
FN:71,_RNCNvNtNtCsblqRvDQyS7m_18boundline_adapters8adapters12config_store14load_from_paths0_0B7_
FN:68,_RNCNvNtNtCsblqRvDQyS7m_18boundline_adapters8adapters12config_store14load_from_paths_0B7_
FN:46,_RNvMNtNtCsblqRvDQyS7m_18boundline_adapters8adapters12config_storeNtB2_15FileConfigStore11save_global
FNDA:118,_RNvMNtNtCsgV4MOW29Zwc_18boundline_adapters8adapters12config_storeNtB2_15FileConfigStore10load_local
FNDA:3,_RNvMNtNtCsgV4MOW29Zwc_18boundline_adapters8adapters12config_storeNtB2_15FileConfigStore10save_local
FNDA:90,_RNvMNtNtCsgV4MOW29Zwc_18boundline_adapters8adapters12config_storeNtB2_15FileConfigStore11load_global
FNDA:0,_RNvMNtNtCsgV4MOW29Zwc_18boundline_adapters8adapters12config_storeNtB2_15FileConfigStore11save_global
FNDA:122,_RNvMNtNtCsgV4MOW29Zwc_18boundline_adapters8adapters12config_storeNtB2_15FileConfigStore13for_workspace
FNDA:116,_RNvMNtNtCsgV4MOW29Zwc_18boundline_adapters8adapters12config_storeNtB2_15FileConfigStore13local_routing
FNDA:90,_RNvMNtNtCsgV4MOW29Zwc_18boundline_adapters8adapters12config_storeNtB2_15FileConfigStore14global_routing
FNDA:122,_RNvMNtNtCsgV4MOW29Zwc_18boundline_adapters8adapters12config_storeNtB2_15FileConfigStore17local_config_path
FNDA:91,_RNvMNtNtCsgV4MOW29Zwc_18boundline_adapters8adapters12config_storeNtB2_15FileConfigStore18global_config_path
FNDA:3,_RNvNtNtCsgV4MOW29Zwc_18boundline_adapters8adapters12config_store12save_to_path
FNDA:208,_RNvNtNtCsgV4MOW29Zwc_18boundline_adapters8adapters12config_store14load_from_path
FNDA:0,_RNCNvMNtNtCsgV4MOW29Zwc_18boundline_adapters8adapters12config_storeNtB4_15FileConfigStore18global_config_path0B8_
FNDA:0,_RNCNvNtNtCsgV4MOW29Zwc_18boundline_adapters8adapters12config_store12save_to_path0B7_
FNDA:0,_RNCNvNtNtCsgV4MOW29Zwc_18boundline_adapters8adapters12config_store12save_to_paths0_0B7_
FNDA:0,_RNCNvNtNtCsgV4MOW29Zwc_18boundline_adapters8adapters12config_store12save_to_paths1_0B7_
FNDA:0,_RNCNvNtNtCsgV4MOW29Zwc_18boundline_adapters8adapters12config_store12save_to_paths_0B7_
FNDA:0,_RNCNvNtNtCsgV4MOW29Zwc_18boundline_adapters8adapters12config_store14load_from_path0B7_
FNDA:0,_RNCNvNtNtCsgV4MOW29Zwc_18boundline_adapters8adapters12config_store14load_from_paths0_0B7_
FNDA:0,_RNCNvNtNtCsgV4MOW29Zwc_18boundline_adapters8adapters12config_store14load_from_paths_0B7_
FNDA:1,_RNvNtNtNtCsblqRvDQyS7m_18boundline_adapters8adapters12config_store5testss_22local_round_trip_works
FNDA:1,_RNvNtNtNtCsblqRvDQyS7m_18boundline_adapters8adapters12config_store5testss_39local_routing_returns_none_when_missing
FNDA:1,_RNvNtNtNtCsblqRvDQyS7m_18boundline_adapters8adapters12config_store5testss_40invalid_routing_is_rejected_before_write
FNDA:56,_RNvMNtNtCsblqRvDQyS7m_18boundline_adapters8adapters12config_storeNtB2_15FileConfigStore10load_local
FNDA:8,_RNvMNtNtCsblqRvDQyS7m_18boundline_adapters8adapters12config_storeNtB2_15FileConfigStore10save_local
FNDA:54,_RNvMNtNtCsblqRvDQyS7m_18boundline_adapters8adapters12config_storeNtB2_15FileConfigStore11load_global
FNDA:63,_RNvMNtNtCsblqRvDQyS7m_18boundline_adapters8adapters12config_storeNtB2_15FileConfigStore13for_workspace
FNDA:55,_RNvMNtNtCsblqRvDQyS7m_18boundline_adapters8adapters12config_storeNtB2_15FileConfigStore13local_routing
FNDA:54,_RNvMNtNtCsblqRvDQyS7m_18boundline_adapters8adapters12config_storeNtB2_15FileConfigStore14global_routing
FNDA:64,_RNvMNtNtCsblqRvDQyS7m_18boundline_adapters8adapters12config_storeNtB2_15FileConfigStore17local_config_path
FNDA:54,_RNvMNtNtCsblqRvDQyS7m_18boundline_adapters8adapters12config_storeNtB2_15FileConfigStore18global_config_path
FNDA:8,_RNvNtNtCsblqRvDQyS7m_18boundline_adapters8adapters12config_store12save_to_path
FNDA:110,_RNvNtNtCsblqRvDQyS7m_18boundline_adapters8adapters12config_store14load_from_path
FNDA:0,_RNCNvMNtNtCsblqRvDQyS7m_18boundline_adapters8adapters12config_storeNtB4_15FileConfigStore18global_config_path0B8_
FNDA:1,_RNCNvNtNtCsblqRvDQyS7m_18boundline_adapters8adapters12config_store12save_to_path0B7_
FNDA:0,_RNCNvNtNtCsblqRvDQyS7m_18boundline_adapters8adapters12config_store12save_to_paths0_0B7_
FNDA:0,_RNCNvNtNtCsblqRvDQyS7m_18boundline_adapters8adapters12config_store12save_to_paths1_0B7_
FNDA:0,_RNCNvNtNtCsblqRvDQyS7m_18boundline_adapters8adapters12config_store12save_to_paths_0B7_
FNDA:0,_RNCNvNtNtCsblqRvDQyS7m_18boundline_adapters8adapters12config_store14load_from_path0B7_
FNDA:0,_RNCNvNtNtCsblqRvDQyS7m_18boundline_adapters8adapters12config_store14load_from_paths0_0B7_
FNDA:0,_RNCNvNtNtCsblqRvDQyS7m_18boundline_adapters8adapters12config_store14load_from_paths_0B7_
FNDA:0,_RNvMNtNtCsblqRvDQyS7m_18boundline_adapters8adapters12config_storeNtB2_15FileConfigStore11save_global
FNF:22
FNH:14
DA:17,185
DA:18,185
DA:19,185
DA:21,186
DA:22,186
DA:23,186
DA:25,145
DA:26,145
DA:27,0
DA:28,145
DA:30,145
DA:31,145
DA:32,145
DA:34,174
DA:35,174
DA:36,174
DA:38,11
DA:39,11
DA:40,11
DA:42,144
DA:43,144
DA:44,144
DA:46,0
DA:47,0
DA:48,0
DA:50,171
DA:51,171
DA:52,171
DA:54,144
DA:55,144
DA:56,144
DA:59,318
DA:60,318
DA:61,301
DA:62,17
DA:64,17
DA:65,17
DA:67,17
DA:68,17
DA:70,17
DA:71,0
DA:72,0
DA:73,0
DA:75,17
DA:76,318
DA:78,11
DA:79,11
DA:80,1
DA:81,1
DA:82,1
DA:84,10
DA:85,10
DA:87,10
DA:88,10
DA:89,10
DA:90,0
DA:92,10
DA:93,10
DA:95,10
DA:96,11
DA:122,1
DA:123,1
DA:124,1
DA:126,1
DA:127,1
DA:128,1
DA:129,1
DA:131,1
DA:132,1
DA:134,1
DA:135,1
DA:136,1
DA:139,1
DA:140,1
DA:141,1
DA:142,1
DA:143,1
DA:144,1
DA:145,1
DA:148,1
DA:149,1
DA:150,1
DA:151,1
DA:153,1
DA:154,1
DA:155,1
DA:156,1
DA:157,1
DA:158,1
DA:159,1
DA:160,1
DA:161,1
DA:163,1
DA:164,1
DA:165,1
BRF:0
BRH:0
LF:103
LH:88
end_of_record
SF:/Users/rt/workspace/apply-the/boundline/crates/boundline-adapters/src/../../../src/adapters/governance_runtime.rs
FN:206,_RINvMs_NtNtCsgV4MOW29Zwc_18boundline_adapters8adapters18governance_runtimeNtB5_15CanonCliRuntime22with_working_directoryRNtNtCsg55jX0GwzBC_3std4path7PathBufEB9_
FN:202,_RINvMs_NtNtCsgV4MOW29Zwc_18boundline_adapters8adapters18governance_runtimeNtB5_15CanonCliRuntime3newNtNtCs1OjIl8oxbrv_5alloc6string6StringEB9_
FN:517,_RNCNCNvNtNtCsgV4MOW29Zwc_18boundline_adapters8adapters18governance_runtime24normalize_canon_response00B9_
FN:543,_RNCNCNvNtNtCsgV4MOW29Zwc_18boundline_adapters8adapters18governance_runtime24normalize_canon_response0s_0B9_
FN:120,_RNCNCNvXNtNtCsgV4MOW29Zwc_18boundline_adapters8adapters18governance_runtimeNtB6_22LocalGovernanceRuntimeNtB6_17GovernanceRuntime7execute00Ba_
FN:121,_RNCNCNvXNtNtCsgV4MOW29Zwc_18boundline_adapters8adapters18governance_runtimeNtB6_22LocalGovernanceRuntimeNtB6_17GovernanceRuntime7execute0s_0Ba_
FN:394,_RNCNvNtNtCsgV4MOW29Zwc_18boundline_adapters8adapters18governance_runtime22validate_canon_request0B7_
FN:515,_RNCNvNtNtCsgV4MOW29Zwc_18boundline_adapters8adapters18governance_runtime24normalize_canon_response0B7_
FN:551,_RNCNvNtNtCsgV4MOW29Zwc_18boundline_adapters8adapters18governance_runtime24normalize_canon_responses_0B7_
FN:116,_RNCNvXNtNtCsgV4MOW29Zwc_18boundline_adapters8adapters18governance_runtimeNtB4_22LocalGovernanceRuntimeNtB4_17GovernanceRuntime7execute0B8_
FN:147,_RNCNvXNtNtCsgV4MOW29Zwc_18boundline_adapters8adapters18governance_runtimeNtB4_22LocalGovernanceRuntimeNtB4_17GovernanceRuntime7executes0_0B8_
FN:148,_RNCNvXNtNtCsgV4MOW29Zwc_18boundline_adapters8adapters18governance_runtimeNtB4_22LocalGovernanceRuntimeNtB4_17GovernanceRuntime7executes1_0B8_
FN:151,_RNCNvXNtNtCsgV4MOW29Zwc_18boundline_adapters8adapters18governance_runtimeNtB4_22LocalGovernanceRuntimeNtB4_17GovernanceRuntime7executes2_0B8_
FN:158,_RNCNvXNtNtCsgV4MOW29Zwc_18boundline_adapters8adapters18governance_runtimeNtB4_22LocalGovernanceRuntimeNtB4_17GovernanceRuntime7executes3_0B8_
FN:138,_RNCNvXNtNtCsgV4MOW29Zwc_18boundline_adapters8adapters18governance_runtimeNtB4_22LocalGovernanceRuntimeNtB4_17GovernanceRuntime7executes_0B8_
FN:246,_RNCNvXs0_NtNtCsgV4MOW29Zwc_18boundline_adapters8adapters18governance_runtimeNtB7_15CanonCliRuntimeNtB7_17GovernanceRuntime7execute0Bb_
FN:215,_RNvMs_NtNtCsgV4MOW29Zwc_18boundline_adapters8adapters18governance_runtimeNtB4_15CanonCliRuntime17working_directory
FN:211,_RNvMs_NtNtCsgV4MOW29Zwc_18boundline_adapters8adapters18governance_runtimeNtB4_15CanonCliRuntime7command
FN:360,_RNvNtNtCsgV4MOW29Zwc_18boundline_adapters8adapters18governance_runtime17request_kind_text
FN:499,_RNvNtNtCsgV4MOW29Zwc_18boundline_adapters8adapters18governance_runtime20parse_canon_response
FN:578,_RNvNtNtCsgV4MOW29Zwc_18boundline_adapters8adapters18governance_runtime21failed_canon_response
FN:567,_RNvNtNtCsgV4MOW29Zwc_18boundline_adapters8adapters18governance_runtime22blocked_canon_response
FN:367,_RNvNtNtCsgV4MOW29Zwc_18boundline_adapters8adapters18governance_runtime22default_approval_state
FN:375,_RNvNtNtCsgV4MOW29Zwc_18boundline_adapters8adapters18governance_runtime22validate_canon_request
FN:371,_RNvNtNtCsgV4MOW29Zwc_18boundline_adapters8adapters18governance_runtime24default_packet_readiness
FN:511,_RNvNtNtCsgV4MOW29Zwc_18boundline_adapters8adapters18governance_runtime24normalize_canon_response
FN:481,_RNvNtNtCsgV4MOW29Zwc_18boundline_adapters8adapters18governance_runtime24parse_canon_capabilities
FN:402,_RNvNtNtCsgV4MOW29Zwc_18boundline_adapters8adapters18governance_runtime24query_canon_capabilities
FN:440,_RNvNtNtCsgV4MOW29Zwc_18boundline_adapters8adapters18governance_runtime31query_canon_capabilities_output
FN:422,_RNvNtNtCsgV4MOW29Zwc_18boundline_adapters8adapters18governance_runtime32build_canon_capabilities_process
FN:96,_RNvXNtNtCsgV4MOW29Zwc_18boundline_adapters8adapters18governance_runtimeNtB2_22LocalGovernanceRuntimeNtB2_17GovernanceRuntime4kind
FN:100,_RNvXNtNtCsgV4MOW29Zwc_18boundline_adapters8adapters18governance_runtimeNtB2_22LocalGovernanceRuntimeNtB2_17GovernanceRuntime7execute
FN:221,_RNvXs0_NtNtCsgV4MOW29Zwc_18boundline_adapters8adapters18governance_runtimeNtB5_15CanonCliRuntimeNtB5_17GovernanceRuntime4kind
FN:225,_RNvXs0_NtNtCsgV4MOW29Zwc_18boundline_adapters8adapters18governance_runtimeNtB5_15CanonCliRuntimeNtB5_17GovernanceRuntime7execute
FN:617,_RNvNtNtNtCsblqRvDQyS7m_18boundline_adapters8adapters18governance_runtime5tests14temp_workspace
FN:623,_RNvNtNtNtCsblqRvDQyS7m_18boundline_adapters8adapters18governance_runtime5tests18write_shell_script
FN:633,_RNvNtNtNtCsblqRvDQyS7m_18boundline_adapters8adapters18governance_runtime5tests7request
FN:746,_RNvNtNtNtCsblqRvDQyS7m_18boundline_adapters8adapters18governance_runtime5testss_41query_canon_capabilities_reads_cli_output
FN:713,_RNvNtNtNtCsblqRvDQyS7m_18boundline_adapters8adapters18governance_runtime5testss_48parse_canon_capabilities_reads_supported_surface
FN:686,_RNvNtNtNtCsblqRvDQyS7m_18boundline_adapters8adapters18governance_runtime5testss_57normalize_canon_response_blocks_non_reusable_ready_packet
FN:658,_RNvNtNtNtCsblqRvDQyS7m_18boundline_adapters8adapters18governance_runtime5testss_62parse_canon_response_preserves_reason_code_and_packet_metadata
FN:733,_RNvNtNtNtCsblqRvDQyS7m_18boundline_adapters8adapters18governance_runtime5testss_66query_canon_capabilities_returns_none_for_blank_or_missing_command
FN:766,_RNvNtNtNtCsblqRvDQyS7m_18boundline_adapters8adapters18governance_runtime5testss_70query_canon_capabilities_falls_back_to_shell_for_non_executable_script
FN:206,_RINvMs_NtNtCsblqRvDQyS7m_18boundline_adapters8adapters18governance_runtimeNtB5_15CanonCliRuntime22with_working_directoryRNtNtCsg55jX0GwzBC_3std4path7PathBufEB9_
FN:202,_RINvMs_NtNtCsblqRvDQyS7m_18boundline_adapters8adapters18governance_runtimeNtB5_15CanonCliRuntime3newNtNtCs1OjIl8oxbrv_5alloc6string6StringEB9_
FN:517,_RNCNCNvNtNtCsblqRvDQyS7m_18boundline_adapters8adapters18governance_runtime24normalize_canon_response00B9_
FN:543,_RNCNCNvNtNtCsblqRvDQyS7m_18boundline_adapters8adapters18governance_runtime24normalize_canon_response0s_0B9_
FN:120,_RNCNCNvXNtNtCsblqRvDQyS7m_18boundline_adapters8adapters18governance_runtimeNtB6_22LocalGovernanceRuntimeNtB6_17GovernanceRuntime7execute00Ba_
FN:121,_RNCNCNvXNtNtCsblqRvDQyS7m_18boundline_adapters8adapters18governance_runtimeNtB6_22LocalGovernanceRuntimeNtB6_17GovernanceRuntime7execute0s_0Ba_
FN:394,_RNCNvNtNtCsblqRvDQyS7m_18boundline_adapters8adapters18governance_runtime22validate_canon_request0B7_
FN:515,_RNCNvNtNtCsblqRvDQyS7m_18boundline_adapters8adapters18governance_runtime24normalize_canon_response0B7_
FN:551,_RNCNvNtNtCsblqRvDQyS7m_18boundline_adapters8adapters18governance_runtime24normalize_canon_responses_0B7_
FN:116,_RNCNvXNtNtCsblqRvDQyS7m_18boundline_adapters8adapters18governance_runtimeNtB4_22LocalGovernanceRuntimeNtB4_17GovernanceRuntime7execute0B8_
FN:147,_RNCNvXNtNtCsblqRvDQyS7m_18boundline_adapters8adapters18governance_runtimeNtB4_22LocalGovernanceRuntimeNtB4_17GovernanceRuntime7executes0_0B8_
FN:148,_RNCNvXNtNtCsblqRvDQyS7m_18boundline_adapters8adapters18governance_runtimeNtB4_22LocalGovernanceRuntimeNtB4_17GovernanceRuntime7executes1_0B8_
FN:151,_RNCNvXNtNtCsblqRvDQyS7m_18boundline_adapters8adapters18governance_runtimeNtB4_22LocalGovernanceRuntimeNtB4_17GovernanceRuntime7executes2_0B8_
FN:158,_RNCNvXNtNtCsblqRvDQyS7m_18boundline_adapters8adapters18governance_runtimeNtB4_22LocalGovernanceRuntimeNtB4_17GovernanceRuntime7executes3_0B8_
FN:138,_RNCNvXNtNtCsblqRvDQyS7m_18boundline_adapters8adapters18governance_runtimeNtB4_22LocalGovernanceRuntimeNtB4_17GovernanceRuntime7executes_0B8_
FN:246,_RNCNvXs0_NtNtCsblqRvDQyS7m_18boundline_adapters8adapters18governance_runtimeNtB7_15CanonCliRuntimeNtB7_17GovernanceRuntime7execute0Bb_
FN:360,_RNvNtNtCsblqRvDQyS7m_18boundline_adapters8adapters18governance_runtime17request_kind_text
FN:499,_RNvNtNtCsblqRvDQyS7m_18boundline_adapters8adapters18governance_runtime20parse_canon_response
FN:578,_RNvNtNtCsblqRvDQyS7m_18boundline_adapters8adapters18governance_runtime21failed_canon_response
FN:567,_RNvNtNtCsblqRvDQyS7m_18boundline_adapters8adapters18governance_runtime22blocked_canon_response
FN:367,_RNvNtNtCsblqRvDQyS7m_18boundline_adapters8adapters18governance_runtime22default_approval_state
FN:375,_RNvNtNtCsblqRvDQyS7m_18boundline_adapters8adapters18governance_runtime22validate_canon_request
FN:371,_RNvNtNtCsblqRvDQyS7m_18boundline_adapters8adapters18governance_runtime24default_packet_readiness
FN:511,_RNvNtNtCsblqRvDQyS7m_18boundline_adapters8adapters18governance_runtime24normalize_canon_response
FN:481,_RNvNtNtCsblqRvDQyS7m_18boundline_adapters8adapters18governance_runtime24parse_canon_capabilities
FN:402,_RNvNtNtCsblqRvDQyS7m_18boundline_adapters8adapters18governance_runtime24query_canon_capabilities
FN:440,_RNvNtNtCsblqRvDQyS7m_18boundline_adapters8adapters18governance_runtime31query_canon_capabilities_output
FN:422,_RNvNtNtCsblqRvDQyS7m_18boundline_adapters8adapters18governance_runtime32build_canon_capabilities_process
FN:100,_RNvXNtNtCsblqRvDQyS7m_18boundline_adapters8adapters18governance_runtimeNtB2_22LocalGovernanceRuntimeNtB2_17GovernanceRuntime7execute
FN:225,_RNvXs0_NtNtCsblqRvDQyS7m_18boundline_adapters8adapters18governance_runtimeNtB5_15CanonCliRuntimeNtB5_17GovernanceRuntime7execute
FN:215,_RNvMs_NtNtCsblqRvDQyS7m_18boundline_adapters8adapters18governance_runtimeNtB4_15CanonCliRuntime17working_directory
FN:211,_RNvMs_NtNtCsblqRvDQyS7m_18boundline_adapters8adapters18governance_runtimeNtB4_15CanonCliRuntime7command
FN:96,_RNvXNtNtCsblqRvDQyS7m_18boundline_adapters8adapters18governance_runtimeNtB2_22LocalGovernanceRuntimeNtB2_17GovernanceRuntime4kind
FN:221,_RNvXs0_NtNtCsblqRvDQyS7m_18boundline_adapters8adapters18governance_runtimeNtB5_15CanonCliRuntimeNtB5_17GovernanceRuntime4kind
FN:202,_RINvMs_NtNtCsgV4MOW29Zwc_18boundline_adapters8adapters18governance_runtimeNtB5_15CanonCliRuntime3newReECsy8NdhUIsqy_4unit
FNDA:10,_RINvMs_NtNtCsgV4MOW29Zwc_18boundline_adapters8adapters18governance_runtimeNtB5_15CanonCliRuntime22with_working_directoryRNtNtCsg55jX0GwzBC_3std4path7PathBufEB9_
FNDA:9,_RINvMs_NtNtCsgV4MOW29Zwc_18boundline_adapters8adapters18governance_runtimeNtB5_15CanonCliRuntime3newNtNtCs1OjIl8oxbrv_5alloc6string6StringEB9_
FNDA:1,_RNCNCNvNtNtCsgV4MOW29Zwc_18boundline_adapters8adapters18governance_runtime24normalize_canon_response00B9_
FNDA:1,_RNCNCNvNtNtCsgV4MOW29Zwc_18boundline_adapters8adapters18governance_runtime24normalize_canon_response0s_0B9_
FNDA:1,_RNCNCNvXNtNtCsgV4MOW29Zwc_18boundline_adapters8adapters18governance_runtimeNtB6_22LocalGovernanceRuntimeNtB6_17GovernanceRuntime7execute00Ba_
FNDA:1,_RNCNCNvXNtNtCsgV4MOW29Zwc_18boundline_adapters8adapters18governance_runtimeNtB6_22LocalGovernanceRuntimeNtB6_17GovernanceRuntime7execute0s_0Ba_
FNDA:6,_RNCNvNtNtCsgV4MOW29Zwc_18boundline_adapters8adapters18governance_runtime22validate_canon_request0B7_
FNDA:4,_RNCNvNtNtCsgV4MOW29Zwc_18boundline_adapters8adapters18governance_runtime24normalize_canon_response0B7_
FNDA:2,_RNCNvNtNtCsgV4MOW29Zwc_18boundline_adapters8adapters18governance_runtime24normalize_canon_responses_0B7_
FNDA:3,_RNCNvXNtNtCsgV4MOW29Zwc_18boundline_adapters8adapters18governance_runtimeNtB4_22LocalGovernanceRuntimeNtB4_17GovernanceRuntime7execute0B8_
FNDA:1,_RNCNvXNtNtCsgV4MOW29Zwc_18boundline_adapters8adapters18governance_runtimeNtB4_22LocalGovernanceRuntimeNtB4_17GovernanceRuntime7executes0_0B8_
FNDA:1,_RNCNvXNtNtCsgV4MOW29Zwc_18boundline_adapters8adapters18governance_runtimeNtB4_22LocalGovernanceRuntimeNtB4_17GovernanceRuntime7executes1_0B8_
FNDA:1,_RNCNvXNtNtCsgV4MOW29Zwc_18boundline_adapters8adapters18governance_runtimeNtB4_22LocalGovernanceRuntimeNtB4_17GovernanceRuntime7executes2_0B8_
FNDA:1,_RNCNvXNtNtCsgV4MOW29Zwc_18boundline_adapters8adapters18governance_runtimeNtB4_22LocalGovernanceRuntimeNtB4_17GovernanceRuntime7executes3_0B8_
FNDA:1,_RNCNvXNtNtCsgV4MOW29Zwc_18boundline_adapters8adapters18governance_runtimeNtB4_22LocalGovernanceRuntimeNtB4_17GovernanceRuntime7executes_0B8_
FNDA:0,_RNCNvXs0_NtNtCsgV4MOW29Zwc_18boundline_adapters8adapters18governance_runtimeNtB7_15CanonCliRuntimeNtB7_17GovernanceRuntime7execute0Bb_
FNDA:1,_RNvMs_NtNtCsgV4MOW29Zwc_18boundline_adapters8adapters18governance_runtimeNtB4_15CanonCliRuntime17working_directory
FNDA:1,_RNvMs_NtNtCsgV4MOW29Zwc_18boundline_adapters8adapters18governance_runtimeNtB4_15CanonCliRuntime7command
FNDA:8,_RNvNtNtCsgV4MOW29Zwc_18boundline_adapters8adapters18governance_runtime17request_kind_text
FNDA:7,_RNvNtNtCsgV4MOW29Zwc_18boundline_adapters8adapters18governance_runtime20parse_canon_response
FNDA:3,_RNvNtNtCsgV4MOW29Zwc_18boundline_adapters8adapters18governance_runtime21failed_canon_response
FNDA:6,_RNvNtNtCsgV4MOW29Zwc_18boundline_adapters8adapters18governance_runtime22blocked_canon_response
FNDA:1,_RNvNtNtCsgV4MOW29Zwc_18boundline_adapters8adapters18governance_runtime22default_approval_state
FNDA:14,_RNvNtNtCsgV4MOW29Zwc_18boundline_adapters8adapters18governance_runtime22validate_canon_request
FNDA:2,_RNvNtNtCsgV4MOW29Zwc_18boundline_adapters8adapters18governance_runtime24default_packet_readiness
FNDA:5,_RNvNtNtCsgV4MOW29Zwc_18boundline_adapters8adapters18governance_runtime24normalize_canon_response
FNDA:0,_RNvNtNtCsgV4MOW29Zwc_18boundline_adapters8adapters18governance_runtime24parse_canon_capabilities
FNDA:0,_RNvNtNtCsgV4MOW29Zwc_18boundline_adapters8adapters18governance_runtime24query_canon_capabilities
FNDA:0,_RNvNtNtCsgV4MOW29Zwc_18boundline_adapters8adapters18governance_runtime31query_canon_capabilities_output
FNDA:0,_RNvNtNtCsgV4MOW29Zwc_18boundline_adapters8adapters18governance_runtime32build_canon_capabilities_process
FNDA:1,_RNvXNtNtCsgV4MOW29Zwc_18boundline_adapters8adapters18governance_runtimeNtB2_22LocalGovernanceRuntimeNtB2_17GovernanceRuntime4kind
FNDA:5,_RNvXNtNtCsgV4MOW29Zwc_18boundline_adapters8adapters18governance_runtimeNtB2_22LocalGovernanceRuntimeNtB2_17GovernanceRuntime7execute
FNDA:1,_RNvXs0_NtNtCsgV4MOW29Zwc_18boundline_adapters8adapters18governance_runtimeNtB5_15CanonCliRuntimeNtB5_17GovernanceRuntime4kind
FNDA:14,_RNvXs0_NtNtCsgV4MOW29Zwc_18boundline_adapters8adapters18governance_runtimeNtB5_15CanonCliRuntimeNtB5_17GovernanceRuntime7execute
FNDA:7,_RNvNtNtNtCsblqRvDQyS7m_18boundline_adapters8adapters18governance_runtime5tests14temp_workspace
FNDA:2,_RNvNtNtNtCsblqRvDQyS7m_18boundline_adapters8adapters18governance_runtime5tests18write_shell_script
FNDA:2,_RNvNtNtNtCsblqRvDQyS7m_18boundline_adapters8adapters18governance_runtime5tests7request
FNDA:1,_RNvNtNtNtCsblqRvDQyS7m_18boundline_adapters8adapters18governance_runtime5testss_41query_canon_capabilities_reads_cli_output
FNDA:1,_RNvNtNtNtCsblqRvDQyS7m_18boundline_adapters8adapters18governance_runtime5testss_48parse_canon_capabilities_reads_supported_surface
FNDA:1,_RNvNtNtNtCsblqRvDQyS7m_18boundline_adapters8adapters18governance_runtime5testss_57normalize_canon_response_blocks_non_reusable_ready_packet
FNDA:1,_RNvNtNtNtCsblqRvDQyS7m_18boundline_adapters8adapters18governance_runtime5testss_62parse_canon_response_preserves_reason_code_and_packet_metadata
FNDA:1,_RNvNtNtNtCsblqRvDQyS7m_18boundline_adapters8adapters18governance_runtime5testss_66query_canon_capabilities_returns_none_for_blank_or_missing_command
FNDA:1,_RNvNtNtNtCsblqRvDQyS7m_18boundline_adapters8adapters18governance_runtime5testss_70query_canon_capabilities_falls_back_to_shell_for_non_executable_script
FNDA:0,_RINvMs_NtNtCsblqRvDQyS7m_18boundline_adapters8adapters18governance_runtimeNtB5_15CanonCliRuntime22with_working_directoryRNtNtCsg55jX0GwzBC_3std4path7PathBufEB9_
FNDA:1,_RINvMs_NtNtCsblqRvDQyS7m_18boundline_adapters8adapters18governance_runtimeNtB5_15CanonCliRuntime3newNtNtCs1OjIl8oxbrv_5alloc6string6StringEB9_
FNDA:0,_RNCNCNvNtNtCsblqRvDQyS7m_18boundline_adapters8adapters18governance_runtime24normalize_canon_response00B9_
FNDA:0,_RNCNCNvNtNtCsblqRvDQyS7m_18boundline_adapters8adapters18governance_runtime24normalize_canon_response0s_0B9_
FNDA:0,_RNCNCNvXNtNtCsblqRvDQyS7m_18boundline_adapters8adapters18governance_runtimeNtB6_22LocalGovernanceRuntimeNtB6_17GovernanceRuntime7execute00Ba_
FNDA:0,_RNCNCNvXNtNtCsblqRvDQyS7m_18boundline_adapters8adapters18governance_runtimeNtB6_22LocalGovernanceRuntimeNtB6_17GovernanceRuntime7execute0s_0Ba_
FNDA:0,_RNCNvNtNtCsblqRvDQyS7m_18boundline_adapters8adapters18governance_runtime22validate_canon_request0B7_
FNDA:3,_RNCNvNtNtCsblqRvDQyS7m_18boundline_adapters8adapters18governance_runtime24normalize_canon_response0B7_
FNDA:3,_RNCNvNtNtCsblqRvDQyS7m_18boundline_adapters8adapters18governance_runtime24normalize_canon_responses_0B7_
FNDA:3,_RNCNvXNtNtCsblqRvDQyS7m_18boundline_adapters8adapters18governance_runtimeNtB4_22LocalGovernanceRuntimeNtB4_17GovernanceRuntime7execute0B8_
FNDA:3,_RNCNvXNtNtCsblqRvDQyS7m_18boundline_adapters8adapters18governance_runtimeNtB4_22LocalGovernanceRuntimeNtB4_17GovernanceRuntime7executes0_0B8_
FNDA:0,_RNCNvXNtNtCsblqRvDQyS7m_18boundline_adapters8adapters18governance_runtimeNtB4_22LocalGovernanceRuntimeNtB4_17GovernanceRuntime7executes1_0B8_
FNDA:3,_RNCNvXNtNtCsblqRvDQyS7m_18boundline_adapters8adapters18governance_runtimeNtB4_22LocalGovernanceRuntimeNtB4_17GovernanceRuntime7executes2_0B8_
FNDA:0,_RNCNvXNtNtCsblqRvDQyS7m_18boundline_adapters8adapters18governance_runtimeNtB4_22LocalGovernanceRuntimeNtB4_17GovernanceRuntime7executes3_0B8_
FNDA:3,_RNCNvXNtNtCsblqRvDQyS7m_18boundline_adapters8adapters18governance_runtimeNtB4_22LocalGovernanceRuntimeNtB4_17GovernanceRuntime7executes_0B8_
FNDA:0,_RNCNvXs0_NtNtCsblqRvDQyS7m_18boundline_adapters8adapters18governance_runtimeNtB7_15CanonCliRuntimeNtB7_17GovernanceRuntime7execute0Bb_
FNDA:1,_RNvNtNtCsblqRvDQyS7m_18boundline_adapters8adapters18governance_runtime17request_kind_text
FNDA:2,_RNvNtNtCsblqRvDQyS7m_18boundline_adapters8adapters18governance_runtime20parse_canon_response
FNDA:0,_RNvNtNtCsblqRvDQyS7m_18boundline_adapters8adapters18governance_runtime21failed_canon_response
FNDA:0,_RNvNtNtCsblqRvDQyS7m_18boundline_adapters8adapters18governance_runtime22blocked_canon_response
FNDA:0,_RNvNtNtCsblqRvDQyS7m_18boundline_adapters8adapters18governance_runtime22default_approval_state
FNDA:1,_RNvNtNtCsblqRvDQyS7m_18boundline_adapters8adapters18governance_runtime22validate_canon_request
FNDA:0,_RNvNtNtCsblqRvDQyS7m_18boundline_adapters8adapters18governance_runtime24default_packet_readiness
FNDA:3,_RNvNtNtCsblqRvDQyS7m_18boundline_adapters8adapters18governance_runtime24normalize_canon_response
FNDA:3,_RNvNtNtCsblqRvDQyS7m_18boundline_adapters8adapters18governance_runtime24parse_canon_capabilities
FNDA:4,_RNvNtNtCsblqRvDQyS7m_18boundline_adapters8adapters18governance_runtime24query_canon_capabilities
FNDA:3,_RNvNtNtCsblqRvDQyS7m_18boundline_adapters8adapters18governance_runtime31query_canon_capabilities_output
FNDA:3,_RNvNtNtCsblqRvDQyS7m_18boundline_adapters8adapters18governance_runtime32build_canon_capabilities_process
FNDA:3,_RNvXNtNtCsblqRvDQyS7m_18boundline_adapters8adapters18governance_runtimeNtB2_22LocalGovernanceRuntimeNtB2_17GovernanceRuntime7execute
FNDA:1,_RNvXs0_NtNtCsblqRvDQyS7m_18boundline_adapters8adapters18governance_runtimeNtB5_15CanonCliRuntimeNtB5_17GovernanceRuntime7execute
FNDA:0,_RNvMs_NtNtCsblqRvDQyS7m_18boundline_adapters8adapters18governance_runtimeNtB4_15CanonCliRuntime17working_directory
FNDA:0,_RNvMs_NtNtCsblqRvDQyS7m_18boundline_adapters8adapters18governance_runtimeNtB4_15CanonCliRuntime7command
FNDA:0,_RNvXNtNtCsblqRvDQyS7m_18boundline_adapters8adapters18governance_runtimeNtB2_22LocalGovernanceRuntimeNtB2_17GovernanceRuntime4kind
FNDA:0,_RNvXs0_NtNtCsblqRvDQyS7m_18boundline_adapters8adapters18governance_runtimeNtB5_15CanonCliRuntimeNtB5_17GovernanceRuntime4kind
FNDA:1,_RINvMs_NtNtCsgV4MOW29Zwc_18boundline_adapters8adapters18governance_runtimeNtB5_15CanonCliRuntime3newReECsy8NdhUIsqy_4unit
FNF:43
FNH:42
DA:96,1
DA:97,1
DA:98,1
DA:100,8
DA:101,8
DA:102,8
DA:103,8
DA:104,8
DA:105,1
DA:106,1
DA:107,1
DA:108,7
DA:110,7
DA:111,1
DA:112,1
DA:113,1
DA:114,6
DA:116,6
DA:117,6
DA:118,6
DA:119,6
DA:120,6
DA:121,6
DA:122,6
DA:124,6
DA:125,1
DA:126,1
DA:127,1
DA:128,1
DA:129,1
DA:130,1
DA:131,1
DA:132,1
DA:133,1
DA:134,1
DA:135,1
DA:136,5
DA:138,5
DA:139,4
DA:141,4
DA:144,4
DA:146,5
DA:147,4
DA:148,1
DA:150,5
DA:151,4
DA:152,4
DA:153,0
DA:155,4
DA:157,4
DA:158,1
DA:160,5
DA:161,0
DA:163,5
DA:166,5
DA:167,5
DA:168,5
DA:169,5
DA:170,5
DA:171,5
DA:172,5
DA:173,5
DA:174,5
DA:175,5
DA:176,5
DA:178,5
DA:179,5
DA:181,0
DA:184,5
DA:185,5
DA:186,5
DA:187,5
DA:188,5
DA:189,5
DA:190,5
DA:191,5
DA:192,8
DA:202,11
DA:203,11
DA:204,11
DA:206,10
DA:207,10
DA:208,10
DA:209,10
DA:211,1
DA:212,1
DA:213,1
DA:215,1
DA:216,1
DA:217,1
DA:221,1
DA:222,1
DA:223,1
DA:225,15
DA:226,15
DA:227,15
DA:228,15
DA:229,15
DA:230,0
DA:231,0
DA:232,0
DA:233,15
DA:235,15
DA:236,0
DA:237,0
DA:238,0
DA:239,15
DA:241,15
DA:242,6
DA:243,9
DA:245,9
DA:246,9
DA:248,9
DA:249,9
DA:250,9
DA:251,9
DA:252,9
DA:253,9
DA:254,9
DA:255,9
DA:257,9
DA:258,8
DA:259,8
DA:260,1
DA:261,1
DA:263,9
DA:264,8
DA:265,1
DA:266,1
DA:267,1
DA:268,1
DA:269,1
DA:273,8
DA:274,8
DA:276,0
DA:277,0
DA:278,0
DA:279,0
DA:280,0
DA:281,8
DA:283,8
DA:284,8
DA:285,0
DA:286,0
DA:287,0
DA:288,0
DA:289,0
DA:293,8
DA:294,6
DA:295,2
DA:297,2
DA:298,2
DA:299,2
DA:301,2
DA:302,1
DA:305,1
DA:308,1
DA:311,1
DA:314,15
DA:360,9
DA:361,9
DA:362,8
DA:363,1
DA:365,9
DA:367,1
DA:368,1
DA:369,1
DA:371,2
DA:372,2
DA:373,2
DA:375,15
DA:376,15
DA:377,1
DA:378,14
DA:379,1
DA:380,13
DA:381,1
DA:382,12
DA:383,1
DA:384,11
DA:385,1
DA:386,10
DA:387,2
DA:389,1
DA:391,9
DA:394,15
DA:395,6
DA:399,6
DA:400,15
DA:402,4
DA:403,4
DA:404,4
DA:405,4
DA:406,4
DA:407,1
DA:408,3
DA:410,3
DA:411,2
DA:412,1
DA:415,2
DA:416,0
DA:417,2
DA:419,2
DA:420,4
DA:422,3
DA:423,3
DA:424,3
DA:425,3
DA:426,3
DA:427,3
DA:428,3
DA:429,3
DA:430,3
DA:432,3
DA:433,3
DA:434,3
DA:436,3
DA:437,3
DA:440,3
DA:441,3
DA:442,3
DA:443,3
DA:444,3
DA:445,3
DA:446,1
DA:448,2
DA:449,2
DA:450,1
DA:451,1
DA:453,1
DA:454,1
DA:455,1
DA:456,1
DA:457,1
DA:458,1
DA:459,1
DA:460,1
DA:461,1
DA:463,1
DA:464,1
DA:465,1
DA:467,1
DA:470,3
DA:481,3
DA:482,3
DA:483,0
DA:484,3
DA:486,3
DA:487,3
DA:488,3
DA:489,3
DA:490,3
DA:491,3
DA:492,3
DA:493,3
DA:494,3
DA:495,3
DA:496,3
DA:497,3
DA:499,9
DA:500,9
DA:501,9
DA:502,9
DA:503,9
DA:504,1
DA:505,8
DA:507,8
DA:508,7
DA:509,9
DA:511,8
DA:512,8
DA:513,8
DA:514,8
DA:515,8
DA:516,7
DA:517,1
DA:519,6
DA:521,7
DA:522,7
DA:523,7
DA:524,7
DA:525,7
DA:527,7
DA:528,7
DA:529,7
DA:530,7
DA:531,7
DA:532,7
DA:536,7
DA:537,7
DA:538,7
DA:539,7
DA:540,7
DA:541,7
DA:542,7
DA:543,7
DA:544,7
DA:546,7
DA:548,8
DA:549,8
DA:550,8
DA:551,5
DA:552,1
DA:553,1
DA:554,1
DA:555,7
DA:557,8
DA:558,8
DA:559,8
DA:560,8
DA:561,8
DA:562,8
DA:563,8
DA:564,8
DA:565,8
DA:567,6
DA:568,6
DA:569,6
DA:570,6
DA:571,6
DA:572,6
DA:573,6
DA:574,6
DA:575,6
DA:576,6
DA:578,3
DA:579,3
DA:580,3
DA:581,3
DA:582,3
DA:583,3
DA:584,3
DA:585,3
DA:586,3
DA:587,3
DA:617,7
DA:618,7
DA:619,7
DA:620,7
DA:621,7
DA:623,2
DA:624,2
DA:625,2
DA:626,2
DA:627,2
DA:628,2
DA:629,2
DA:630,2
DA:631,2
DA:633,2
DA:634,2
DA:635,2
DA:636,2
DA:637,2
DA:638,2
DA:639,2
DA:640,2
DA:641,2
DA:642,2
DA:643,2
DA:644,2
DA:645,2
DA:646,2
DA:647,2
DA:648,2
DA:649,2
DA:650,2
DA:651,2
DA:652,2
DA:653,2
DA:654,2
DA:655,2
DA:658,1
DA:659,1
DA:660,1
DA:661,1
DA:662,1
DA:663,1
DA:664,1
DA:666,1
DA:667,1
DA:671,1
DA:673,1
DA:674,1
DA:675,1
DA:677,1
DA:678,1
DA:679,1
DA:680,1
DA:682,1
DA:683,1
DA:686,1
DA:687,1
DA:688,1
DA:689,1
DA:690,1
DA:691,1
DA:692,1
DA:693,1
DA:694,1
DA:695,1
DA:696,1
DA:697,1
DA:698,1
DA:699,1
DA:700,1
DA:701,1
DA:703,1
DA:705,1
DA:706,1
DA:707,1
DA:709,1
DA:710,1
DA:713,1
DA:714,1
DA:715,1
DA:716,1
DA:717,1
DA:718,1
DA:719,1
DA:720,1
DA:721,1
DA:722,1
DA:723,1
DA:725,1
DA:727,1
DA:728,1
DA:729,1
DA:730,1
DA:733,1
DA:734,1
DA:736,1
DA:737,1
DA:738,1
DA:742,1
DA:743,1
DA:746,1
DA:747,1
DA:748,1
DA:749,1
DA:750,1
DA:753,1
DA:754,1
DA:755,1
DA:757,1
DA:758,1
DA:760,1
DA:761,1
DA:762,1
DA:766,1
DA:767,1
DA:768,1
DA:769,1
DA:770,1
DA:772,1
DA:773,1
DA:774,1
DA:776,1
DA:777,1
DA:778,1
DA:780,1
DA:781,1
DA:783,1
DA:784,1
DA:785,1
BRF:0
BRH:0
LF:475
LH:451
end_of_record
SF:/Users/rt/workspace/apply-the/boundline/crates/boundline-adapters/src/../../../src/adapters/session_store.rs
FN:24,_RINvMNtNtCsgV4MOW29Zwc_18boundline_adapters8adapters13session_storeNtB3_16FileSessionStore13for_workspaceRNtNtCsg55jX0GwzBC_3std4path4PathECs9UpcZiueOLV_13boundline_cli
FN:24,_RINvMNtNtCsgV4MOW29Zwc_18boundline_adapters8adapters13session_storeNtB3_16FileSessionStore13for_workspaceRNtNtCsg55jX0GwzBC_3std4path7PathBufECs9UpcZiueOLV_13boundline_cli
FN:20,_RINvMNtNtCsgV4MOW29Zwc_18boundline_adapters8adapters13session_storeNtB3_16FileSessionStore3newNtNtCsg55jX0GwzBC_3std4path7PathBufECs9UpcZiueOLV_13boundline_cli
FN:54,_RNCNvXs_NtNtCsgV4MOW29Zwc_18boundline_adapters8adapters13session_storeNtB6_16FileSessionStoreNtB6_12SessionStore4load0Ba_
FN:35,_RNCNvXs_NtNtCsgV4MOW29Zwc_18boundline_adapters8adapters13session_storeNtB6_16FileSessionStoreNtB6_12SessionStore7persist0Ba_
FN:28,_RNvMNtNtCsgV4MOW29Zwc_18boundline_adapters8adapters13session_storeNtB2_16FileSessionStore4path
FN:46,_RNvXs_NtNtCsgV4MOW29Zwc_18boundline_adapters8adapters13session_storeNtB4_16FileSessionStoreNtB4_12SessionStore4load
FN:58,_RNvXs_NtNtCsgV4MOW29Zwc_18boundline_adapters8adapters13session_storeNtB4_16FileSessionStoreNtB4_12SessionStore5clear
FN:34,_RNvXs_NtNtCsgV4MOW29Zwc_18boundline_adapters8adapters13session_storeNtB4_16FileSessionStoreNtB4_12SessionStore7persist
FN:28,_RNvMNtNtCsblqRvDQyS7m_18boundline_adapters8adapters13session_storeNtB2_16FileSessionStore4path
FN:24,_RINvMNtNtCsblqRvDQyS7m_18boundline_adapters8adapters13session_storeNtB3_16FileSessionStore13for_workspaceRNtNtCsg55jX0GwzBC_3std4path7PathBufEB7_
FN:20,_RINvMNtNtCsblqRvDQyS7m_18boundline_adapters8adapters13session_storeNtB3_16FileSessionStore3newNtNtCsg55jX0GwzBC_3std4path7PathBufEB7_
FN:54,_RNCNvXs_NtNtCsblqRvDQyS7m_18boundline_adapters8adapters13session_storeNtB6_16FileSessionStoreNtB6_12SessionStore4load0Ba_
FN:35,_RNCNvXs_NtNtCsblqRvDQyS7m_18boundline_adapters8adapters13session_storeNtB6_16FileSessionStoreNtB6_12SessionStore7persist0Ba_
FN:46,_RNvXs_NtNtCsblqRvDQyS7m_18boundline_adapters8adapters13session_storeNtB4_16FileSessionStoreNtB4_12SessionStore4load
FN:58,_RNvXs_NtNtCsblqRvDQyS7m_18boundline_adapters8adapters13session_storeNtB4_16FileSessionStoreNtB4_12SessionStore5clear
FN:34,_RNvXs_NtNtCsblqRvDQyS7m_18boundline_adapters8adapters13session_storeNtB4_16FileSessionStoreNtB4_12SessionStore7persist
FNDA:22,_RINvMNtNtCsgV4MOW29Zwc_18boundline_adapters8adapters13session_storeNtB3_16FileSessionStore13for_workspaceRNtNtCsg55jX0GwzBC_3std4path4PathECs9UpcZiueOLV_13boundline_cli
FNDA:39,_RINvMNtNtCsgV4MOW29Zwc_18boundline_adapters8adapters13session_storeNtB3_16FileSessionStore13for_workspaceRNtNtCsg55jX0GwzBC_3std4path7PathBufECs9UpcZiueOLV_13boundline_cli
FNDA:61,_RINvMNtNtCsgV4MOW29Zwc_18boundline_adapters8adapters13session_storeNtB3_16FileSessionStore3newNtNtCsg55jX0GwzBC_3std4path7PathBufECs9UpcZiueOLV_13boundline_cli
FNDA:1,_RNCNvXs_NtNtCsgV4MOW29Zwc_18boundline_adapters8adapters13session_storeNtB6_16FileSessionStoreNtB6_12SessionStore4load0Ba_
FNDA:1,_RNCNvXs_NtNtCsgV4MOW29Zwc_18boundline_adapters8adapters13session_storeNtB6_16FileSessionStoreNtB6_12SessionStore7persist0Ba_
FNDA:3,_RNvMNtNtCsgV4MOW29Zwc_18boundline_adapters8adapters13session_storeNtB2_16FileSessionStore4path
FNDA:31,_RNvXs_NtNtCsgV4MOW29Zwc_18boundline_adapters8adapters13session_storeNtB4_16FileSessionStoreNtB4_12SessionStore4load
FNDA:4,_RNvXs_NtNtCsgV4MOW29Zwc_18boundline_adapters8adapters13session_storeNtB4_16FileSessionStoreNtB4_12SessionStore5clear
FNDA:16,_RNvXs_NtNtCsgV4MOW29Zwc_18boundline_adapters8adapters13session_storeNtB4_16FileSessionStoreNtB4_12SessionStore7persist
FNDA:1,_RNvMNtNtCsblqRvDQyS7m_18boundline_adapters8adapters13session_storeNtB2_16FileSessionStore4path
FNDA:21,_RINvMNtNtCsblqRvDQyS7m_18boundline_adapters8adapters13session_storeNtB3_16FileSessionStore13for_workspaceRNtNtCsg55jX0GwzBC_3std4path7PathBufEB7_
FNDA:21,_RINvMNtNtCsblqRvDQyS7m_18boundline_adapters8adapters13session_storeNtB3_16FileSessionStore3newNtNtCsg55jX0GwzBC_3std4path7PathBufEB7_
FNDA:0,_RNCNvXs_NtNtCsblqRvDQyS7m_18boundline_adapters8adapters13session_storeNtB6_16FileSessionStoreNtB6_12SessionStore4load0Ba_
FNDA:0,_RNCNvXs_NtNtCsblqRvDQyS7m_18boundline_adapters8adapters13session_storeNtB6_16FileSessionStoreNtB6_12SessionStore7persist0Ba_
FNDA:0,_RNvXs_NtNtCsblqRvDQyS7m_18boundline_adapters8adapters13session_storeNtB4_16FileSessionStoreNtB4_12SessionStore4load
FNDA:0,_RNvXs_NtNtCsblqRvDQyS7m_18boundline_adapters8adapters13session_storeNtB4_16FileSessionStoreNtB4_12SessionStore5clear
FNDA:0,_RNvXs_NtNtCsblqRvDQyS7m_18boundline_adapters8adapters13session_storeNtB4_16FileSessionStoreNtB4_12SessionStore7persist
FNF:8
FNH:8
DA:20,82
DA:21,82
DA:22,82
DA:24,82
DA:25,82
DA:26,82
DA:28,4
DA:29,4
DA:30,4
DA:34,16
DA:35,16
DA:37,15
DA:38,15
DA:39,0
DA:41,15
DA:42,15
DA:43,15
DA:44,16
DA:46,31
DA:47,31
DA:48,10
DA:49,21
DA:51,21
DA:52,21
DA:53,21
DA:54,20
DA:55,19
DA:56,31
DA:58,4
DA:59,4
DA:60,3
DA:61,1
DA:63,4
DA:64,4
BRF:0
BRH:0
LF:36
LH:35
end_of_record
SF:/Users/rt/workspace/apply-the/boundline/crates/boundline-adapters/src/../../../src/adapters/tool.rs
FN:22,_RNvMNtNtCsgV4MOW29Zwc_18boundline_adapters8adapters4toolINtB2_13FnToolAdapterNCNvNtNtB6_7fixture12fixture_impl34build_fixture_runtime_from_profiles3_0E3newB6_
FN:22,_RNvMNtNtCsgV4MOW29Zwc_18boundline_adapters8adapters4toolINtB2_13FnToolAdapterNCNvNtNtB6_7fixture12fixture_impl34build_fixture_runtime_from_profiles4_0E3newB6_
FN:22,_RNvMNtNtCsgV4MOW29Zwc_18boundline_adapters8adapters4toolINtB2_13FnToolAdapterNCNvNtNtB6_7fixture12fixture_impl34build_fixture_runtime_from_profiles5_0E3newB6_
FN:22,_RNvMNtNtCsgV4MOW29Zwc_18boundline_adapters8adapters4toolINtB2_13FnToolAdapterNCNvNtNtB6_7fixture12fixture_impl34build_fixture_runtime_from_profiles6_0E3newB6_
FN:31,_RNvXs_NtNtCsgV4MOW29Zwc_18boundline_adapters8adapters4toolINtB4_13FnToolAdapterNCNvNtNtB8_7fixture12fixture_impl34build_fixture_runtime_from_profiles3_0ENtB4_11ToolAdapter7executeB8_
FN:31,_RNvXs_NtNtCsgV4MOW29Zwc_18boundline_adapters8adapters4toolINtB4_13FnToolAdapterNCNvNtNtB8_7fixture12fixture_impl34build_fixture_runtime_from_profiles4_0ENtB4_11ToolAdapter7executeB8_
FN:31,_RNvXs_NtNtCsgV4MOW29Zwc_18boundline_adapters8adapters4toolINtB4_13FnToolAdapterNCNvNtNtB8_7fixture12fixture_impl34build_fixture_runtime_from_profiles5_0ENtB4_11ToolAdapter7executeB8_
FN:31,_RNvXs_NtNtCsgV4MOW29Zwc_18boundline_adapters8adapters4toolINtB4_13FnToolAdapterNCNvNtNtB8_7fixture12fixture_impl34build_fixture_runtime_from_profiles6_0ENtB4_11ToolAdapter7executeB8_
FN:22,_RNvMNtNtCsblqRvDQyS7m_18boundline_adapters8adapters4toolINtB2_13FnToolAdapterNCNvNtNtB6_7fixture12fixture_impl34build_fixture_runtime_from_profiles3_0E3newB6_
FN:22,_RNvMNtNtCsblqRvDQyS7m_18boundline_adapters8adapters4toolINtB2_13FnToolAdapterNCNvNtNtB6_7fixture12fixture_impl34build_fixture_runtime_from_profiles4_0E3newB6_
FN:22,_RNvMNtNtCsblqRvDQyS7m_18boundline_adapters8adapters4toolINtB2_13FnToolAdapterNCNvNtNtB6_7fixture12fixture_impl34build_fixture_runtime_from_profiles5_0E3newB6_
FN:22,_RNvMNtNtCsblqRvDQyS7m_18boundline_adapters8adapters4toolINtB2_13FnToolAdapterNCNvNtNtB6_7fixture12fixture_impl34build_fixture_runtime_from_profiles6_0E3newB6_
FN:22,_RNvMNtNtCsblqRvDQyS7m_18boundline_adapters8adapters4toolINtB2_13FnToolAdapterNCNvNtNtNtB6_12orchestrator6engine5testss_59execute_step_dispatches_registered_agent_and_tool_endpointss_0E3newB6_
FN:31,_RNvXs_NtNtCsblqRvDQyS7m_18boundline_adapters8adapters4toolINtB4_13FnToolAdapterNCNvNtNtB8_7fixture12fixture_impl34build_fixture_runtime_from_profiles3_0ENtB4_11ToolAdapter7executeB8_
FN:31,_RNvXs_NtNtCsblqRvDQyS7m_18boundline_adapters8adapters4toolINtB4_13FnToolAdapterNCNvNtNtB8_7fixture12fixture_impl34build_fixture_runtime_from_profiles4_0ENtB4_11ToolAdapter7executeB8_
FN:31,_RNvXs_NtNtCsblqRvDQyS7m_18boundline_adapters8adapters4toolINtB4_13FnToolAdapterNCNvNtNtB8_7fixture12fixture_impl34build_fixture_runtime_from_profiles5_0ENtB4_11ToolAdapter7executeB8_
FN:31,_RNvXs_NtNtCsblqRvDQyS7m_18boundline_adapters8adapters4toolINtB4_13FnToolAdapterNCNvNtNtB8_7fixture12fixture_impl34build_fixture_runtime_from_profiles6_0ENtB4_11ToolAdapter7executeB8_
FN:31,_RNvXs_NtNtCsblqRvDQyS7m_18boundline_adapters8adapters4toolINtB4_13FnToolAdapterNCNvNtNtNtB8_12orchestrator6engine5testss_59execute_step_dispatches_registered_agent_and_tool_endpointss_0ENtB4_11ToolAdapter7executeB8_
FN:22,_RNvMNtNtCsgV4MOW29Zwc_18boundline_adapters8adapters4toolINtB2_13FnToolAdapterNCNvNtCsy8NdhUIsqy_4unit13decision_loop10build_loops0_0E3newB1j_
FN:22,_RNvMNtNtCsgV4MOW29Zwc_18boundline_adapters8adapters4toolINtB2_13FnToolAdapterNCNvNtCsy8NdhUIsqy_4unit13decision_loop10build_loops1_0E3newB1j_
FN:22,_RNvMNtNtCsgV4MOW29Zwc_18boundline_adapters8adapters4toolINtB2_13FnToolAdapterNCNvNtCsy8NdhUIsqy_4unit13decision_loop10build_loops2_0E3newB1j_
FN:31,_RNvXs_NtNtCsgV4MOW29Zwc_18boundline_adapters8adapters4toolINtB4_13FnToolAdapterNCNvNtCsy8NdhUIsqy_4unit13decision_loop10build_loops0_0ENtB4_11ToolAdapter7executeB1l_
FN:31,_RNvXs_NtNtCsgV4MOW29Zwc_18boundline_adapters8adapters4toolINtB4_13FnToolAdapterNCNvNtCsy8NdhUIsqy_4unit13decision_loop10build_loops1_0ENtB4_11ToolAdapter7executeB1l_
FN:31,_RNvXs_NtNtCsgV4MOW29Zwc_18boundline_adapters8adapters4toolINtB4_13FnToolAdapterNCNvNtCsy8NdhUIsqy_4unit13decision_loop10build_loops2_0ENtB4_11ToolAdapter7executeB1l_
FNDA:10,_RNvMNtNtCsgV4MOW29Zwc_18boundline_adapters8adapters4toolINtB2_13FnToolAdapterNCNvNtNtB6_7fixture12fixture_impl34build_fixture_runtime_from_profiles3_0E3newB6_
FNDA:10,_RNvMNtNtCsgV4MOW29Zwc_18boundline_adapters8adapters4toolINtB2_13FnToolAdapterNCNvNtNtB6_7fixture12fixture_impl34build_fixture_runtime_from_profiles4_0E3newB6_
FNDA:10,_RNvMNtNtCsgV4MOW29Zwc_18boundline_adapters8adapters4toolINtB2_13FnToolAdapterNCNvNtNtB6_7fixture12fixture_impl34build_fixture_runtime_from_profiles5_0E3newB6_
FNDA:10,_RNvMNtNtCsgV4MOW29Zwc_18boundline_adapters8adapters4toolINtB2_13FnToolAdapterNCNvNtNtB6_7fixture12fixture_impl34build_fixture_runtime_from_profiles6_0E3newB6_
FNDA:3,_RNvXs_NtNtCsgV4MOW29Zwc_18boundline_adapters8adapters4toolINtB4_13FnToolAdapterNCNvNtNtB8_7fixture12fixture_impl34build_fixture_runtime_from_profiles3_0ENtB4_11ToolAdapter7executeB8_
FNDA:0,_RNvXs_NtNtCsgV4MOW29Zwc_18boundline_adapters8adapters4toolINtB4_13FnToolAdapterNCNvNtNtB8_7fixture12fixture_impl34build_fixture_runtime_from_profiles4_0ENtB4_11ToolAdapter7executeB8_
FNDA:0,_RNvXs_NtNtCsgV4MOW29Zwc_18boundline_adapters8adapters4toolINtB4_13FnToolAdapterNCNvNtNtB8_7fixture12fixture_impl34build_fixture_runtime_from_profiles5_0ENtB4_11ToolAdapter7executeB8_
FNDA:0,_RNvXs_NtNtCsgV4MOW29Zwc_18boundline_adapters8adapters4toolINtB4_13FnToolAdapterNCNvNtNtB8_7fixture12fixture_impl34build_fixture_runtime_from_profiles6_0ENtB4_11ToolAdapter7executeB8_
FNDA:13,_RNvMNtNtCsblqRvDQyS7m_18boundline_adapters8adapters4toolINtB2_13FnToolAdapterNCNvNtNtB6_7fixture12fixture_impl34build_fixture_runtime_from_profiles3_0E3newB6_
FNDA:13,_RNvMNtNtCsblqRvDQyS7m_18boundline_adapters8adapters4toolINtB2_13FnToolAdapterNCNvNtNtB6_7fixture12fixture_impl34build_fixture_runtime_from_profiles4_0E3newB6_
FNDA:13,_RNvMNtNtCsblqRvDQyS7m_18boundline_adapters8adapters4toolINtB2_13FnToolAdapterNCNvNtNtB6_7fixture12fixture_impl34build_fixture_runtime_from_profiles5_0E3newB6_
FNDA:13,_RNvMNtNtCsblqRvDQyS7m_18boundline_adapters8adapters4toolINtB2_13FnToolAdapterNCNvNtNtB6_7fixture12fixture_impl34build_fixture_runtime_from_profiles6_0E3newB6_
FNDA:1,_RNvMNtNtCsblqRvDQyS7m_18boundline_adapters8adapters4toolINtB2_13FnToolAdapterNCNvNtNtNtB6_12orchestrator6engine5testss_59execute_step_dispatches_registered_agent_and_tool_endpointss_0E3newB6_
FNDA:0,_RNvXs_NtNtCsblqRvDQyS7m_18boundline_adapters8adapters4toolINtB4_13FnToolAdapterNCNvNtNtB8_7fixture12fixture_impl34build_fixture_runtime_from_profiles3_0ENtB4_11ToolAdapter7executeB8_
FNDA:0,_RNvXs_NtNtCsblqRvDQyS7m_18boundline_adapters8adapters4toolINtB4_13FnToolAdapterNCNvNtNtB8_7fixture12fixture_impl34build_fixture_runtime_from_profiles4_0ENtB4_11ToolAdapter7executeB8_
FNDA:0,_RNvXs_NtNtCsblqRvDQyS7m_18boundline_adapters8adapters4toolINtB4_13FnToolAdapterNCNvNtNtB8_7fixture12fixture_impl34build_fixture_runtime_from_profiles5_0ENtB4_11ToolAdapter7executeB8_
FNDA:0,_RNvXs_NtNtCsblqRvDQyS7m_18boundline_adapters8adapters4toolINtB4_13FnToolAdapterNCNvNtNtB8_7fixture12fixture_impl34build_fixture_runtime_from_profiles6_0ENtB4_11ToolAdapter7executeB8_
FNDA:1,_RNvXs_NtNtCsblqRvDQyS7m_18boundline_adapters8adapters4toolINtB4_13FnToolAdapterNCNvNtNtNtB8_12orchestrator6engine5testss_59execute_step_dispatches_registered_agent_and_tool_endpointss_0ENtB4_11ToolAdapter7executeB8_
FNDA:9,_RNvMNtNtCsgV4MOW29Zwc_18boundline_adapters8adapters4toolINtB2_13FnToolAdapterNCNvNtCsy8NdhUIsqy_4unit13decision_loop10build_loops0_0E3newB1j_
FNDA:9,_RNvMNtNtCsgV4MOW29Zwc_18boundline_adapters8adapters4toolINtB2_13FnToolAdapterNCNvNtCsy8NdhUIsqy_4unit13decision_loop10build_loops1_0E3newB1j_
FNDA:9,_RNvMNtNtCsgV4MOW29Zwc_18boundline_adapters8adapters4toolINtB2_13FnToolAdapterNCNvNtCsy8NdhUIsqy_4unit13decision_loop10build_loops2_0E3newB1j_
FNDA:0,_RNvXs_NtNtCsgV4MOW29Zwc_18boundline_adapters8adapters4toolINtB4_13FnToolAdapterNCNvNtCsy8NdhUIsqy_4unit13decision_loop10build_loops0_0ENtB4_11ToolAdapter7executeB1l_
FNDA:0,_RNvXs_NtNtCsgV4MOW29Zwc_18boundline_adapters8adapters4toolINtB4_13FnToolAdapterNCNvNtCsy8NdhUIsqy_4unit13decision_loop10build_loops1_0ENtB4_11ToolAdapter7executeB1l_
FNDA:2,_RNvXs_NtNtCsgV4MOW29Zwc_18boundline_adapters8adapters4toolINtB4_13FnToolAdapterNCNvNtCsy8NdhUIsqy_4unit13decision_loop10build_loops2_0ENtB4_11ToolAdapter7executeB1l_
FNF:2
FNH:2
DA:22,120
DA:23,120
DA:24,120
DA:31,6
DA:32,6
DA:33,6
BRF:0
BRH:0
LF:6
LH:6
end_of_record
SF:/Users/rt/workspace/apply-the/boundline/crates/boundline-adapters/src/../../../src/adapters/trace_store.rs
FN:24,_RINvMNtNtCsgV4MOW29Zwc_18boundline_adapters8adapters11trace_storeNtB3_14FileTraceStore13for_workspaceRNtNtCsg55jX0GwzBC_3std4path4PathECs9UpcZiueOLV_13boundline_cli
FN:24,_RINvMNtNtCsgV4MOW29Zwc_18boundline_adapters8adapters11trace_storeNtB3_14FileTraceStore13for_workspaceRNtNtCsg55jX0GwzBC_3std4path7PathBufECs9UpcZiueOLV_13boundline_cli
FN:20,_RINvMNtNtCsgV4MOW29Zwc_18boundline_adapters8adapters11trace_storeNtB3_14FileTraceStore3newNtNtCsg55jX0GwzBC_3std4path7PathBufECs9UpcZiueOLV_13boundline_cli
FN:20,_RINvMNtNtCsgV4MOW29Zwc_18boundline_adapters8adapters11trace_storeNtB3_14FileTraceStore3newRNtNtCsg55jX0GwzBC_3std4path4PathECs9UpcZiueOLV_13boundline_cli
FN:28,_RNvMNtNtCsgV4MOW29Zwc_18boundline_adapters8adapters11trace_storeNtB2_14FileTraceStore4root
FN:42,_RNvXs_NtNtCsgV4MOW29Zwc_18boundline_adapters8adapters11trace_storeNtB4_14FileTraceStoreNtB4_10TraceStore4load
FN:47,_RNvXs_NtNtCsgV4MOW29Zwc_18boundline_adapters8adapters11trace_storeNtB4_14FileTraceStoreNtB4_10TraceStore6latest
FN:34,_RNvXs_NtNtCsgV4MOW29Zwc_18boundline_adapters8adapters11trace_storeNtB4_14FileTraceStoreNtB4_10TraceStore7persist
FN:58,_RNCNvXs_NtNtCsgV4MOW29Zwc_18boundline_adapters8adapters11trace_storeNtB6_14FileTraceStoreNtB6_10TraceStore6latest0Ba_
FN:65,_RNCNvXs_NtNtCsgV4MOW29Zwc_18boundline_adapters8adapters11trace_storeNtB6_14FileTraceStoreNtB6_10TraceStore6latests_0Ba_
FN:119,_RNvNtNtNtCsblqRvDQyS7m_18boundline_adapters8adapters11trace_store5tests11build_trace
FN:112,_RNvNtNtNtCsblqRvDQyS7m_18boundline_adapters8adapters11trace_store5tests14temp_workspace
FN:132,_RNvNtNtNtCsblqRvDQyS7m_18boundline_adapters8adapters11trace_store5testss_34load_round_trips_a_persisted_trace
FN:147,_RNvNtNtNtCsblqRvDQyS7m_18boundline_adapters8adapters11trace_store5testss_41latest_returns_the_most_recent_trace_path
FN:161,_RNvNtNtNtCsblqRvDQyS7m_18boundline_adapters8adapters11trace_store5testss_55latest_returns_none_when_the_trace_directory_is_missing
FN:28,_RNvMNtNtCsblqRvDQyS7m_18boundline_adapters8adapters11trace_storeNtB2_14FileTraceStore4root
FN:42,_RNvXs_NtNtCsblqRvDQyS7m_18boundline_adapters8adapters11trace_storeNtB4_14FileTraceStoreNtB4_10TraceStore4load
FN:47,_RNvXs_NtNtCsblqRvDQyS7m_18boundline_adapters8adapters11trace_storeNtB4_14FileTraceStoreNtB4_10TraceStore6latest
FN:34,_RNvXs_NtNtCsblqRvDQyS7m_18boundline_adapters8adapters11trace_storeNtB4_14FileTraceStoreNtB4_10TraceStore7persist
FN:24,_RINvMNtNtCsblqRvDQyS7m_18boundline_adapters8adapters11trace_storeNtB3_14FileTraceStore13for_workspaceRNtNtCsg55jX0GwzBC_3std4path7PathBufEB7_
FN:20,_RINvMNtNtCsblqRvDQyS7m_18boundline_adapters8adapters11trace_storeNtB3_14FileTraceStore3newNtNtCsg55jX0GwzBC_3std4path7PathBufEB7_
FN:58,_RNCNvXs_NtNtCsblqRvDQyS7m_18boundline_adapters8adapters11trace_storeNtB6_14FileTraceStoreNtB6_10TraceStore6latest0Ba_
FN:65,_RNCNvXs_NtNtCsblqRvDQyS7m_18boundline_adapters8adapters11trace_storeNtB6_14FileTraceStoreNtB6_10TraceStore6latests_0Ba_
FN:20,_RINvMNtNtCsgV4MOW29Zwc_18boundline_adapters8adapters11trace_storeNtB3_14FileTraceStore3newRNtNtCsg55jX0GwzBC_3std4path7PathBufECsy8NdhUIsqy_4unit
FNDA:22,_RINvMNtNtCsgV4MOW29Zwc_18boundline_adapters8adapters11trace_storeNtB3_14FileTraceStore13for_workspaceRNtNtCsg55jX0GwzBC_3std4path4PathECs9UpcZiueOLV_13boundline_cli
FNDA:29,_RINvMNtNtCsgV4MOW29Zwc_18boundline_adapters8adapters11trace_storeNtB3_14FileTraceStore13for_workspaceRNtNtCsg55jX0GwzBC_3std4path7PathBufECs9UpcZiueOLV_13boundline_cli
FNDA:51,_RINvMNtNtCsgV4MOW29Zwc_18boundline_adapters8adapters11trace_storeNtB3_14FileTraceStore3newNtNtCsg55jX0GwzBC_3std4path7PathBufECs9UpcZiueOLV_13boundline_cli
FNDA:5,_RINvMNtNtCsgV4MOW29Zwc_18boundline_adapters8adapters11trace_storeNtB3_14FileTraceStore3newRNtNtCsg55jX0GwzBC_3std4path4PathECs9UpcZiueOLV_13boundline_cli
FNDA:4,_RNvMNtNtCsgV4MOW29Zwc_18boundline_adapters8adapters11trace_storeNtB2_14FileTraceStore4root
FNDA:13,_RNvXs_NtNtCsgV4MOW29Zwc_18boundline_adapters8adapters11trace_storeNtB4_14FileTraceStoreNtB4_10TraceStore4load
FNDA:7,_RNvXs_NtNtCsgV4MOW29Zwc_18boundline_adapters8adapters11trace_storeNtB4_14FileTraceStoreNtB4_10TraceStore6latest
FNDA:35,_RNvXs_NtNtCsgV4MOW29Zwc_18boundline_adapters8adapters11trace_storeNtB4_14FileTraceStoreNtB4_10TraceStore7persist
FNDA:3,_RNCNvXs_NtNtCsgV4MOW29Zwc_18boundline_adapters8adapters11trace_storeNtB6_14FileTraceStoreNtB6_10TraceStore6latest0Ba_
FNDA:3,_RNCNvXs_NtNtCsgV4MOW29Zwc_18boundline_adapters8adapters11trace_storeNtB6_14FileTraceStoreNtB6_10TraceStore6latests_0Ba_
FNDA:3,_RNvNtNtNtCsblqRvDQyS7m_18boundline_adapters8adapters11trace_store5tests11build_trace
FNDA:3,_RNvNtNtNtCsblqRvDQyS7m_18boundline_adapters8adapters11trace_store5tests14temp_workspace
FNDA:1,_RNvNtNtNtCsblqRvDQyS7m_18boundline_adapters8adapters11trace_store5testss_34load_round_trips_a_persisted_trace
FNDA:1,_RNvNtNtNtCsblqRvDQyS7m_18boundline_adapters8adapters11trace_store5testss_41latest_returns_the_most_recent_trace_path
FNDA:1,_RNvNtNtNtCsblqRvDQyS7m_18boundline_adapters8adapters11trace_store5testss_55latest_returns_none_when_the_trace_directory_is_missing
FNDA:1,_RNvMNtNtCsblqRvDQyS7m_18boundline_adapters8adapters11trace_storeNtB2_14FileTraceStore4root
FNDA:8,_RNvXs_NtNtCsblqRvDQyS7m_18boundline_adapters8adapters11trace_storeNtB4_14FileTraceStoreNtB4_10TraceStore4load
FNDA:3,_RNvXs_NtNtCsblqRvDQyS7m_18boundline_adapters8adapters11trace_storeNtB4_14FileTraceStoreNtB4_10TraceStore6latest
FNDA:71,_RNvXs_NtNtCsblqRvDQyS7m_18boundline_adapters8adapters11trace_storeNtB4_14FileTraceStoreNtB4_10TraceStore7persist
FNDA:24,_RINvMNtNtCsblqRvDQyS7m_18boundline_adapters8adapters11trace_storeNtB3_14FileTraceStore13for_workspaceRNtNtCsg55jX0GwzBC_3std4path7PathBufEB7_
FNDA:25,_RINvMNtNtCsblqRvDQyS7m_18boundline_adapters8adapters11trace_storeNtB3_14FileTraceStore3newNtNtCsg55jX0GwzBC_3std4path7PathBufEB7_
FNDA:4,_RNCNvXs_NtNtCsblqRvDQyS7m_18boundline_adapters8adapters11trace_storeNtB6_14FileTraceStoreNtB6_10TraceStore6latest0Ba_
FNDA:4,_RNCNvXs_NtNtCsblqRvDQyS7m_18boundline_adapters8adapters11trace_storeNtB6_14FileTraceStoreNtB6_10TraceStore6latests_0Ba_
FNDA:4,_RINvMNtNtCsgV4MOW29Zwc_18boundline_adapters8adapters11trace_storeNtB3_14FileTraceStore3newRNtNtCsg55jX0GwzBC_3std4path7PathBufECsy8NdhUIsqy_4unit
FNF:13
FNH:13
DA:20,85
DA:21,85
DA:22,85
DA:24,75
DA:25,75
DA:26,75
DA:28,5
DA:29,5
DA:30,5
DA:34,106
DA:35,106
DA:36,106
DA:37,106
DA:38,106
DA:39,106
DA:40,106
DA:42,21
DA:43,21
DA:44,21
DA:45,21
DA:47,10
DA:48,10
DA:49,5
DA:50,5
DA:52,5
DA:53,7
DA:54,7
DA:55,7
DA:57,7
DA:58,7
DA:60,0
DA:61,7
DA:63,7
DA:64,7
DA:65,7
DA:67,7
DA:68,2
DA:69,2
DA:71,5
DA:74,7
DA:75,7
DA:76,7
DA:79,5
DA:80,10
DA:112,3
DA:113,3
DA:114,3
DA:115,3
DA:116,3
DA:117,3
DA:119,3
DA:120,3
DA:121,3
DA:122,3
DA:123,3
DA:124,3
DA:125,3
DA:127,3
DA:128,3
DA:129,3
DA:132,1
DA:133,1
DA:134,1
DA:135,1
DA:137,1
DA:138,1
DA:140,1
DA:141,1
DA:142,1
DA:143,1
DA:144,1
DA:147,1
DA:148,1
DA:149,1
DA:150,1
DA:151,1
DA:153,1
DA:154,1
DA:156,1
DA:157,1
DA:158,1
DA:161,1
DA:162,1
DA:163,1
DA:164,1
DA:166,1
DA:168,1
DA:169,1
BRF:0
BRH:0
LF:90
LH:89
end_of_record
SF:/Users/rt/workspace/apply-the/boundline/crates/boundline-adapters/src/../../../src/fixture.rs
FN:218,_RINvNtNtCsgV4MOW29Zwc_18boundline_adapters7fixture12fixture_impl18build_task_requestNtNtCs1OjIl8oxbrv_5alloc6string6StringB1k_ECs9UpcZiueOLV_13boundline_cli
FN:238,_RNCINvNtNtCsgV4MOW29Zwc_18boundline_adapters7fixture12fixture_impl18build_task_requestNtNtCs1OjIl8oxbrv_5alloc6string6StringB1m_E0Cs9UpcZiueOLV_13boundline_cli
FN:239,_RNCNCINvNtNtCsgV4MOW29Zwc_18boundline_adapters7fixture12fixture_impl18build_task_requestNtNtCs1OjIl8oxbrv_5alloc6string6StringB1o_E00Cs9UpcZiueOLV_13boundline_cli
FN:113,_RNvMNtNtCsgV4MOW29Zwc_18boundline_adapters7fixture12fixture_implNtB2_16WorkspaceFixture8validate
FN:3251,_RNvMs0_NtNtCsgV4MOW29Zwc_18boundline_adapters7fixture12fixture_implNtB5_20FixtureCommandOutput20to_validation_record
FN:3242,_RNvMs0_NtNtCsgV4MOW29Zwc_18boundline_adapters7fixture12fixture_implNtB5_20FixtureCommandOutput7details
FN:3232,_RNvMs0_NtNtCsgV4MOW29Zwc_18boundline_adapters7fixture12fixture_implNtB5_20FixtureCommandOutput9succeeded
FN:153,_RNvMs_NtNtCsgV4MOW29Zwc_18boundline_adapters7fixture12fixture_implNtB4_9FilePatch8validate
FN:1620,_RNvNtNtCsgV4MOW29Zwc_18boundline_adapters7fixture12fixture_impl11merge_terms
FN:3271,_RNvNtNtCsgV4MOW29Zwc_18boundline_adapters7fixture12fixture_impl12diff_preview
FN:3193,_RNvNtNtCsgV4MOW29Zwc_18boundline_adapters7fixture12fixture_impl14render_command
FN:1611,_RNvNtNtCsgV4MOW29Zwc_18boundline_adapters7fixture12fixture_impl14tokenize_terms
FN:2078,_RNvNtNtCsgV4MOW29Zwc_18boundline_adapters7fixture12fixture_impl15code_step_input
FN:2174,_RNvNtNtCsgV4MOW29Zwc_18boundline_adapters7fixture12fixture_impl16review_tool_step
FN:2263,_RNvNtNtCsgV4MOW29Zwc_18boundline_adapters7fixture12fixture_impl17execution_attempt
FN:574,_RNvNtNtCsgV4MOW29Zwc_18boundline_adapters7fixture12fixture_impl17first_stable_line
FN:2161,_RNvNtNtCsgV4MOW29Zwc_18boundline_adapters7fixture12fixture_impl17review_agent_step
FN:1478,_RNvNtNtCsgV4MOW29Zwc_18boundline_adapters7fixture12fixture_impl17terms_include_any
FN:2092,_RNvNtNtCsgV4MOW29Zwc_18boundline_adapters7fixture12fixture_impl17verify_step_input
FN:1870,_RNvNtNtCsgV4MOW29Zwc_18boundline_adapters7fixture12fixture_impl18adaptive_goal_hint
FN:193,_RNvNtNtCsgV4MOW29Zwc_18boundline_adapters7fixture12fixture_impl18build_fixture_plan
FN:742,_RNvNtNtCsgV4MOW29Zwc_18boundline_adapters7fixture12fixture_impl18build_replan_queue
FN:2100,_RNvNtNtCsgV4MOW29Zwc_18boundline_adapters7fixture12fixture_impl18build_review_steps
FN:3208,_RNvNtNtCsgV4MOW29Zwc_18boundline_adapters7fixture12fixture_impl18default_run_limits
FN:2069,_RNvNtNtCsgV4MOW29Zwc_18boundline_adapters7fixture12fixture_impl19analysis_step_input
FN:2004,_RNvNtNtCsgV4MOW29Zwc_18boundline_adapters7fixture12fixture_impl19build_attempt_steps
FN:3057,_RNvNtNtCsgV4MOW29Zwc_18boundline_adapters7fixture12fixture_impl19render_vote_summary
FN:2694,_RNvNtNtCsgV4MOW29Zwc_18boundline_adapters7fixture12fixture_impl19resolve_review_vote
FN:3201,_RNvNtNtCsgV4MOW29Zwc_18boundline_adapters7fixture12fixture_impl20default_test_command
FN:2903,_RNvNtNtCsgV4MOW29Zwc_18boundline_adapters7fixture12fixture_impl21active_review_trigger
FN:352,_RNvNtNtCsgV4MOW29Zwc_18boundline_adapters7fixture12fixture_impl21build_fixture_runtime
FN:1724,_RNvNtNtCsgV4MOW29Zwc_18boundline_adapters7fixture12fixture_impl21collect_text_segments
FN:3171,_RNvNtNtCsgV4MOW29Zwc_18boundline_adapters7fixture12fixture_impl21run_execution_command
FN:517,_RNvNtNtCsgV4MOW29Zwc_18boundline_adapters7fixture12fixture_impl22infer_goal_plan_change
FN:1267,_RNvNtNtCsgV4MOW29Zwc_18boundline_adapters7fixture12fixture_impl22score_workspace_target
FN:1694,_RNvNtNtCsgV4MOW29Zwc_18boundline_adapters7fixture12fixture_impl23adaptive_replan_blocker
FN:3086,_RNvNtNtCsgV4MOW29Zwc_18boundline_adapters7fixture12fixture_impl23apply_execution_attempt
FN:2331,_RNvNtNtCsgV4MOW29Zwc_18boundline_adapters7fixture12fixture_impl23apply_workspace_fixture
FN:1526,_RNvNtNtCsgV4MOW29Zwc_18boundline_adapters7fixture12fixture_impl23boolean_flip_candidates
FN:170,_RNvNtNtCsgV4MOW29Zwc_18boundline_adapters7fixture12fixture_impl23execution_manifest_path
FN:2835,_RNvNtNtCsgV4MOW29Zwc_18boundline_adapters7fixture12fixture_impl23review_terminal_success
FN:1906,_RNvNtNtCsgV4MOW29Zwc_18boundline_adapters7fixture12fixture_impl24adaptive_code_step_input
FN:1844,_RNvNtNtCsgV4MOW29Zwc_18boundline_adapters7fixture12fixture_impl24adaptive_transition_kind
FN:1742,_RNvNtNtCsgV4MOW29Zwc_18boundline_adapters7fixture12fixture_impl24guidance_paths_from_text
FN:2991,_RNvNtNtCsgV4MOW29Zwc_18boundline_adapters7fixture12fixture_impl24projection_route_entries
FN:2248,_RNvNtNtCsgV4MOW29Zwc_18boundline_adapters7fixture12fixture_impl24read_targets_for_profile
FN:2572,_RNvNtNtCsgV4MOW29Zwc_18boundline_adapters7fixture12fixture_impl24review_workspace_fixture
FN:1373,_RNvNtNtCsgV4MOW29Zwc_18boundline_adapters7fixture12fixture_impl24score_adaptive_candidate
FN:2409,_RNvNtNtCsgV4MOW29Zwc_18boundline_adapters7fixture12fixture_impl24verify_workspace_fixture
FN:2547,_RNvNtNtCsgV4MOW29Zwc_18boundline_adapters7fixture12fixture_impl25adaptive_failure_evidence
FN:1787,_RNvNtNtCsgV4MOW29Zwc_18boundline_adapters7fixture12fixture_impl25adaptive_selection_reason
FN:2291,_RNvNtNtCsgV4MOW29Zwc_18boundline_adapters7fixture12fixture_impl25analyze_workspace_fixture
FN:1006,_RNvNtNtCsgV4MOW29Zwc_18boundline_adapters7fixture12fixture_impl25build_adaptive_candidates
FN:1639,_RNvNtNtCsgV4MOW29Zwc_18boundline_adapters7fixture12fixture_impl25build_validation_guidance
FN:590,_RNvNtNtCsgV4MOW29Zwc_18boundline_adapters7fixture12fixture_impl25build_vertical_slice_plan
FN:2777,_RNvNtNtCsgV4MOW29Zwc_18boundline_adapters7fixture12fixture_impl25finalize_workspace_review
FN:2849,_RNvNtNtCsgV4MOW29Zwc_18boundline_adapters7fixture12fixture_impl25review_terminal_rejection
FN:1936,_RNvNtNtCsgV4MOW29Zwc_18boundline_adapters7fixture12fixture_impl26adaptive_verify_step_input
FN:1482,_RNvNtNtCsgV4MOW29Zwc_18boundline_adapters7fixture12fixture_impl26arithmetic_swap_candidates
FN:1506,_RNvNtNtCsgV4MOW29Zwc_18boundline_adapters7fixture12fixture_impl26comparison_flip_candidates
FN:2949,_RNvNtNtCsgV4MOW29Zwc_18boundline_adapters7fixture12fixture_impl26review_effective_route_map
FN:2917,_RNvNtNtCsgV4MOW29Zwc_18boundline_adapters7fixture12fixture_impl26review_findings_from_state
FN:2863,_RNvNtNtCsgV4MOW29Zwc_18boundline_adapters7fixture12fixture_impl26review_terminal_escalation
FN:3068,_RNvNtNtCsgV4MOW29Zwc_18boundline_adapters7fixture12fixture_impl26snapshot_workspace_targets
FN:1875,_RNvNtNtCsgV4MOW29Zwc_18boundline_adapters7fixture12fixture_impl26workspace_change_signature
FN:1345,_RNvNtNtCsgV4MOW29Zwc_18boundline_adapters7fixture12fixture_impl27adaptive_changes_for_target
FN:1770,_RNvNtNtCsgV4MOW29Zwc_18boundline_adapters7fixture12fixture_impl27adaptive_selection_headline
FN:753,_RNvNtNtCsgV4MOW29Zwc_18boundline_adapters7fixture12fixture_impl27build_adaptive_initial_plan
FN:950,_RNvNtNtCsgV4MOW29Zwc_18boundline_adapters7fixture12fixture_impl27build_adaptive_replan_steps
FN:197,_RNvNtNtCsgV4MOW29Zwc_18boundline_adapters7fixture12fixture_impl27build_fixture_plan_for_flow
FN:204,_RNvNtNtCsgV4MOW29Zwc_18boundline_adapters7fixture12fixture_impl27build_fixture_plan_for_goal
FN:1891,_RNvNtNtCsgV4MOW29Zwc_18boundline_adapters7fixture12fixture_impl28adaptive_analysis_step_input
FN:1710,_RNvNtNtCsgV4MOW29Zwc_18boundline_adapters7fixture12fixture_impl28adaptive_no_candidate_reason
FN:1181,_RNvNtNtCsgV4MOW29Zwc_18boundline_adapters7fixture12fixture_impl28build_adaptive_attempt_steps
FN:1887,_RNvNtNtCsgV4MOW29Zwc_18boundline_adapters7fixture12fixture_impl28latest_attempt_id_from_state
FN:3040,_RNvNtNtCsgV4MOW29Zwc_18boundline_adapters7fixture12fixture_impl28normalize_reviewer_route_key
FN:319,_RNvNtNtCsgV4MOW29Zwc_18boundline_adapters7fixture12fixture_impl28workspace_routing_projection
FN:2234,_RNvNtNtCsgV4MOW29Zwc_18boundline_adapters7fixture12fixture_impl29attach_current_stage_metadata
FN:1252,_RNvNtNtCsgV4MOW29Zwc_18boundline_adapters7fixture12fixture_impl29load_workspace_target_sources
FN:1562,_RNvNtNtCsgV4MOW29Zwc_18boundline_adapters7fixture12fixture_impl29result_status_flip_candidates
FN:2188,_RNvNtNtCsgV4MOW29Zwc_18boundline_adapters7fixture12fixture_impl29review_step_input_for_attempt
FN:356,_RNvNtNtCsgV4MOW29Zwc_18boundline_adapters7fixture12fixture_impl30build_fixture_runtime_for_flow
FN:2109,_RNvNtNtCsgV4MOW29Zwc_18boundline_adapters7fixture12fixture_impl30build_review_steps_for_attempt
FN:2226,_RNvNtNtCsgV4MOW29Zwc_18boundline_adapters7fixture12fixture_impl30default_success_review_trigger
FN:2273,_RNvNtNtCsgV4MOW29Zwc_18boundline_adapters7fixture12fixture_impl30execution_attempt_from_request
FN:578,_RNvNtNtCsgV4MOW29Zwc_18boundline_adapters7fixture12fixture_impl30resolve_supported_fixture_flow
FN:2939,_RNvNtNtCsgV4MOW29Zwc_18boundline_adapters7fixture12fixture_impl30review_participants_from_state
FN:2927,_RNvNtNtCsgV4MOW29Zwc_18boundline_adapters7fixture12fixture_impl30review_reviewer_ids_from_state
FN:3021,_RNvNtNtCsgV4MOW29Zwc_18boundline_adapters7fixture12fixture_impl30reviewer_route_projection_keys
FN:2679,_RNvNtNtCsgV4MOW29Zwc_18boundline_adapters7fixture12fixture_impl31governance_context_from_request
FN:1582,_RNvNtNtCsgV4MOW29Zwc_18boundline_adapters7fixture12fixture_impl31numeric_literal_flip_candidates
FN:2978,_RNvNtNtCsgV4MOW29Zwc_18boundline_adapters7fixture12fixture_impl31routing_projection_from_request
FN:1944,_RNvNtNtCsgV4MOW29Zwc_18boundline_adapters7fixture12fixture_impl32insert_adaptive_state_from_input
FN:174,_RNvNtNtCsgV4MOW29Zwc_18boundline_adapters7fixture12fixture_impl32load_workspace_execution_profile
FN:1986,_RNvNtNtCsgV4MOW29Zwc_18boundline_adapters7fixture12fixture_impl33insert_adaptive_output_from_input
FN:1630,_RNvNtNtCsgV4MOW29Zwc_18boundline_adapters7fixture12fixture_impl33latest_workspace_slice_from_state
FN:1546,_RNvNtNtCsgV4MOW29Zwc_18boundline_adapters7fixture12fixture_impl33ordering_boundary_flip_candidates
FN:372,_RNvNtNtCsgV4MOW29Zwc_18boundline_adapters7fixture12fixture_impl34build_fixture_runtime_from_profile
FN:1823,_RNvNtNtCsgV4MOW29Zwc_18boundline_adapters7fixture12fixture_impl34build_rejected_candidate_summaries
FN:2204,_RNvNtNtCsgV4MOW29Zwc_18boundline_adapters7fixture12fixture_impl34review_vote_step_input_for_attempt
FN:364,_RNvNtNtCsgV4MOW29Zwc_18boundline_adapters7fixture12fixture_impl35build_fixture_runtime_for_goal_plan
FN:3008,_RNvNtNtCsgV4MOW29Zwc_18boundline_adapters7fixture12fixture_impl35review_effective_route_from_entries
FN:2215,_RNvNtNtCsgV4MOW29Zwc_18boundline_adapters7fixture12fixture_impl38review_finalize_step_input_for_attempt
FN:464,_RNvNtNtCsgV4MOW29Zwc_18boundline_adapters7fixture12fixture_impl38synthesize_goal_plan_execution_profile
FN:1879,_RNvNtNtCsgV4MOW29Zwc_18boundline_adapters7fixture12fixture_impl40adaptive_candidate_signatures_from_state
FN:3262,_RNvNtNtCsgV4MOW29Zwc_18boundline_adapters7fixture12fixture_impl7excerpt
FN:218,_RINvNtNtCsgV4MOW29Zwc_18boundline_adapters7fixture12fixture_impl18build_task_requestRNtNtCs1OjIl8oxbrv_5alloc6string6StringB1l_EB6_
FN:2877,_RINvNtNtCsgV4MOW29Zwc_18boundline_adapters7fixture12fixture_impl23review_terminal_failureReB1p_EB6_
FN:2877,_RINvNtNtCsgV4MOW29Zwc_18boundline_adapters7fixture12fixture_impl23review_terminal_failureReNtNtCs1OjIl8oxbrv_5alloc6string6StringEB6_
FN:238,_RNCINvNtNtCsgV4MOW29Zwc_18boundline_adapters7fixture12fixture_impl18build_task_requestRNtNtCs1OjIl8oxbrv_5alloc6string6StringB1n_E0B8_
FN:239,_RNCNCINvNtNtCsgV4MOW29Zwc_18boundline_adapters7fixture12fixture_impl18build_task_requestRNtNtCs1OjIl8oxbrv_5alloc6string6StringB1p_E00Ba_
FN:1479,_RNCNCNvNtNtCsgV4MOW29Zwc_18boundline_adapters7fixture12fixture_impl17terms_include_any00B9_
FN:1038,_RNCNCNvNtNtCsgV4MOW29Zwc_18boundline_adapters7fixture12fixture_impl25build_adaptive_candidatess1_00B9_
FN:1094,_RNCNCNvNtNtCsgV4MOW29Zwc_18boundline_adapters7fixture12fixture_impl25build_adaptive_candidatess4_00B9_
FN:2966,_RNCNCNvNtNtCsgV4MOW29Zwc_18boundline_adapters7fixture12fixture_impl26review_effective_route_maps0_00B9_
FN:3077,_RNCNCNvNtNtCsgV4MOW29Zwc_18boundline_adapters7fixture12fixture_impl26snapshot_workspace_targets00B9_
FN:1261,_RNCNCNvNtNtCsgV4MOW29Zwc_18boundline_adapters7fixture12fixture_impl29load_workspace_target_sources00B9_
FN:2934,_RNCNCNvNtNtCsgV4MOW29Zwc_18boundline_adapters7fixture12fixture_impl30review_reviewer_ids_from_state00B9_
FN:391,_RNCNCNvNtNtCsgV4MOW29Zwc_18boundline_adapters7fixture12fixture_impl34build_fixture_runtime_from_profile00B9_
FN:487,_RNCNCNvNtNtCsgV4MOW29Zwc_18boundline_adapters7fixture12fixture_impl38synthesize_goal_plan_execution_profile00B9_
FN:1883,_RNCNCNvNtNtCsgV4MOW29Zwc_18boundline_adapters7fixture12fixture_impl40adaptive_candidate_signatures_from_state00B9_
FN:128,_RNCNvMNtNtCsgV4MOW29Zwc_18boundline_adapters7fixture12fixture_implNtB4_16WorkspaceFixture8validate0B8_
FN:1612,_RNCNvNtNtCsgV4MOW29Zwc_18boundline_adapters7fixture12fixture_impl14tokenize_terms0B7_
FN:1613,_RNCNvNtNtCsgV4MOW29Zwc_18boundline_adapters7fixture12fixture_impl14tokenize_termss_0B7_
FN:2268,_RNCNvNtNtCsgV4MOW29Zwc_18boundline_adapters7fixture12fixture_impl17execution_attempt0B7_
FN:575,_RNCNvNtNtCsgV4MOW29Zwc_18boundline_adapters7fixture12fixture_impl17first_stable_line0B7_
FN:1479,_RNCNvNtNtCsgV4MOW29Zwc_18boundline_adapters7fixture12fixture_impl17terms_include_any0B7_
FN:2745,_RNCNvNtNtCsgV4MOW29Zwc_18boundline_adapters7fixture12fixture_impl19resolve_review_vote0B7_
FN:2912,_RNCNvNtNtCsgV4MOW29Zwc_18boundline_adapters7fixture12fixture_impl21active_review_trigger0B7_
FN:2914,_RNCNvNtNtCsgV4MOW29Zwc_18boundline_adapters7fixture12fixture_impl21active_review_triggers0_0B7_
FN:2913,_RNCNvNtNtCsgV4MOW29Zwc_18boundline_adapters7fixture12fixture_impl21active_review_triggers_0B7_
FN:3181,_RNCNvNtNtCsgV4MOW29Zwc_18boundline_adapters7fixture12fixture_impl21run_execution_command0B7_
FN:521,_RNCNvNtNtCsgV4MOW29Zwc_18boundline_adapters7fixture12fixture_impl22infer_goal_plan_change0B7_
FN:558,_RNCNvNtNtCsgV4MOW29Zwc_18boundline_adapters7fixture12fixture_impl22infer_goal_plan_changes0_0B7_
FN:531,_RNCNvNtNtCsgV4MOW29Zwc_18boundline_adapters7fixture12fixture_impl22infer_goal_plan_changes_0B7_
FN:3097,_RNCNvNtNtCsgV4MOW29Zwc_18boundline_adapters7fixture12fixture_impl23apply_execution_attempt0B7_
FN:3102,_RNCNvNtNtCsgV4MOW29Zwc_18boundline_adapters7fixture12fixture_impl23apply_execution_attempts_0B7_
FN:1746,_RNCNvNtNtCsgV4MOW29Zwc_18boundline_adapters7fixture12fixture_impl24guidance_paths_from_text0B7_
FN:1762,_RNCNvNtNtCsgV4MOW29Zwc_18boundline_adapters7fixture12fixture_impl24guidance_paths_from_texts0_0B7_
FN:1761,_RNCNvNtNtCsgV4MOW29Zwc_18boundline_adapters7fixture12fixture_impl24guidance_paths_from_texts_0B7_
FN:2995,_RNCNvNtNtCsgV4MOW29Zwc_18boundline_adapters7fixture12fixture_impl24projection_route_entries0B7_
FN:2619,_RNCNvNtNtCsgV4MOW29Zwc_18boundline_adapters7fixture12fixture_impl24review_workspace_fixture0B7_
FN:1393,_RNCNvNtNtCsgV4MOW29Zwc_18boundline_adapters7fixture12fixture_impl24score_adaptive_candidate0B7_
FN:2462,_RNCNvNtNtCsgV4MOW29Zwc_18boundline_adapters7fixture12fixture_impl24verify_workspace_fixture0B7_
FN:2507,_RNCNvNtNtCsgV4MOW29Zwc_18boundline_adapters7fixture12fixture_impl24verify_workspace_fixtures_0B7_
FN:1797,_RNCNvNtNtCsgV4MOW29Zwc_18boundline_adapters7fixture12fixture_impl25adaptive_selection_reason0B7_
FN:1012,_RNCNvNtNtCsgV4MOW29Zwc_18boundline_adapters7fixture12fixture_impl25build_adaptive_candidates0B7_
FN:1027,_RNCNvNtNtCsgV4MOW29Zwc_18boundline_adapters7fixture12fixture_impl25build_adaptive_candidatess0_0B7_
FN:1037,_RNCNvNtNtCsgV4MOW29Zwc_18boundline_adapters7fixture12fixture_impl25build_adaptive_candidatess1_0B7_
FN:1048,_RNCNvNtNtCsgV4MOW29Zwc_18boundline_adapters7fixture12fixture_impl25build_adaptive_candidatess2_0B7_
FN:1060,_RNCNvNtNtCsgV4MOW29Zwc_18boundline_adapters7fixture12fixture_impl25build_adaptive_candidatess3_0B7_
FN:1093,_RNCNvNtNtCsgV4MOW29Zwc_18boundline_adapters7fixture12fixture_impl25build_adaptive_candidatess4_0B7_
FN:1098,_RNCNvNtNtCsgV4MOW29Zwc_18boundline_adapters7fixture12fixture_impl25build_adaptive_candidatess5_0B7_
FN:1110,_RNCNvNtNtCsgV4MOW29Zwc_18boundline_adapters7fixture12fixture_impl25build_adaptive_candidatess6_0B7_
FN:1021,_RNCNvNtNtCsgV4MOW29Zwc_18boundline_adapters7fixture12fixture_impl25build_adaptive_candidatess_0B7_
FN:1648,_RNCNvNtNtCsgV4MOW29Zwc_18boundline_adapters7fixture12fixture_impl25build_validation_guidance0B7_
FN:2799,_RNCNvNtNtCsgV4MOW29Zwc_18boundline_adapters7fixture12fixture_impl25finalize_workspace_review0B7_
FN:2810,_RNCNvNtNtCsgV4MOW29Zwc_18boundline_adapters7fixture12fixture_impl25finalize_workspace_reviews_0B7_
FN:1495,_RNCNvNtNtCsgV4MOW29Zwc_18boundline_adapters7fixture12fixture_impl26arithmetic_swap_candidates0B7_
FN:2954,_RNCNvNtNtCsgV4MOW29Zwc_18boundline_adapters7fixture12fixture_impl26review_effective_route_map0B7_
FN:2961,_RNCNvNtNtCsgV4MOW29Zwc_18boundline_adapters7fixture12fixture_impl26review_effective_route_maps0_0B7_
FN:2960,_RNCNvNtNtCsgV4MOW29Zwc_18boundline_adapters7fixture12fixture_impl26review_effective_route_maps_0B7_
FN:2923,_RNCNvNtNtCsgV4MOW29Zwc_18boundline_adapters7fixture12fixture_impl26review_findings_from_state0B7_
FN:3074,_RNCNvNtNtCsgV4MOW29Zwc_18boundline_adapters7fixture12fixture_impl26snapshot_workspace_targets0B7_
FN:1367,_RNCNvNtNtCsgV4MOW29Zwc_18boundline_adapters7fixture12fixture_impl27adaptive_changes_for_target0B7_
FN:960,_RNCNvNtNtCsgV4MOW29Zwc_18boundline_adapters7fixture12fixture_impl27build_adaptive_replan_steps0B7_
FN:963,_RNCNvNtNtCsgV4MOW29Zwc_18boundline_adapters7fixture12fixture_impl27build_adaptive_replan_stepss0_0B7_
FN:979,_RNCNvNtNtCsgV4MOW29Zwc_18boundline_adapters7fixture12fixture_impl27build_adaptive_replan_stepss2_0B7_
FN:980,_RNCNvNtNtCsgV4MOW29Zwc_18boundline_adapters7fixture12fixture_impl27build_adaptive_replan_stepss3_0B7_
FN:994,_RNCNvNtNtCsgV4MOW29Zwc_18boundline_adapters7fixture12fixture_impl27build_adaptive_replan_stepss4_0B7_
FN:1003,_RNCNvNtNtCsgV4MOW29Zwc_18boundline_adapters7fixture12fixture_impl27build_adaptive_replan_stepss5_0B7_
FN:963,_RNCNvNtNtCsgV4MOW29Zwc_18boundline_adapters7fixture12fixture_impl27build_adaptive_replan_stepss_0B7_
FN:1258,_RNCNvNtNtCsgV4MOW29Zwc_18boundline_adapters7fixture12fixture_impl29load_workspace_target_sources0B7_
FN:2119,_RNCNvNtNtCsgV4MOW29Zwc_18boundline_adapters7fixture12fixture_impl30build_review_steps_for_attempt0B7_
FN:2120,_RNCNvNtNtCsgV4MOW29Zwc_18boundline_adapters7fixture12fixture_impl30build_review_steps_for_attempts_0B7_
FN:2231,_RNCNvNtNtCsgV4MOW29Zwc_18boundline_adapters7fixture12fixture_impl30default_success_review_trigger0B7_
FN:2278,_RNCNvNtNtCsgV4MOW29Zwc_18boundline_adapters7fixture12fixture_impl30execution_attempt_from_request0B7_
FN:585,_RNCNvNtNtCsgV4MOW29Zwc_18boundline_adapters7fixture12fixture_impl30resolve_supported_fixture_flow0B7_
FN:2945,_RNCNvNtNtCsgV4MOW29Zwc_18boundline_adapters7fixture12fixture_impl30review_participants_from_state0B7_
FN:2933,_RNCNvNtNtCsgV4MOW29Zwc_18boundline_adapters7fixture12fixture_impl30review_reviewer_ids_from_state0B7_
FN:2986,_RNCNvNtNtCsgV4MOW29Zwc_18boundline_adapters7fixture12fixture_impl31routing_projection_from_request0B7_
FN:182,_RNCNvNtNtCsgV4MOW29Zwc_18boundline_adapters7fixture12fixture_impl32load_workspace_execution_profile0B7_
FN:186,_RNCNvNtNtCsgV4MOW29Zwc_18boundline_adapters7fixture12fixture_impl32load_workspace_execution_profiles_0B7_
FN:1636,_RNCNvNtNtCsgV4MOW29Zwc_18boundline_adapters7fixture12fixture_impl33latest_workspace_slice_from_state0B7_
FN:384,_RNCNvNtNtCsgV4MOW29Zwc_18boundline_adapters7fixture12fixture_impl34build_fixture_runtime_from_profile0B7_
FN:421,_RNCNvNtNtCsgV4MOW29Zwc_18boundline_adapters7fixture12fixture_impl34build_fixture_runtime_from_profiles0_0B7_
FN:428,_RNCNvNtNtCsgV4MOW29Zwc_18boundline_adapters7fixture12fixture_impl34build_fixture_runtime_from_profiles1_0B7_
FN:434,_RNCNvNtNtCsgV4MOW29Zwc_18boundline_adapters7fixture12fixture_impl34build_fixture_runtime_from_profiles2_0B7_
FN:441,_RNCNvNtNtCsgV4MOW29Zwc_18boundline_adapters7fixture12fixture_impl34build_fixture_runtime_from_profiles3_0B7_
FN:446,_RNCNvNtNtCsgV4MOW29Zwc_18boundline_adapters7fixture12fixture_impl34build_fixture_runtime_from_profiles4_0B7_
FN:454,_RNCNvNtNtCsgV4MOW29Zwc_18boundline_adapters7fixture12fixture_impl34build_fixture_runtime_from_profiles5_0B7_
FN:458,_RNCNvNtNtCsgV4MOW29Zwc_18boundline_adapters7fixture12fixture_impl34build_fixture_runtime_from_profiles6_0B7_
FN:398,_RNCNvNtNtCsgV4MOW29Zwc_18boundline_adapters7fixture12fixture_impl34build_fixture_runtime_from_profiles_0B7_
FN:481,_RNCNvNtNtCsgV4MOW29Zwc_18boundline_adapters7fixture12fixture_impl38synthesize_goal_plan_execution_profile0B7_
FN:494,_RNCNvNtNtCsgV4MOW29Zwc_18boundline_adapters7fixture12fixture_impl38synthesize_goal_plan_execution_profiles0_0B7_
FN:490,_RNCNvNtNtCsgV4MOW29Zwc_18boundline_adapters7fixture12fixture_impl38synthesize_goal_plan_execution_profiles_0B7_
FN:1883,_RNCNvNtNtCsgV4MOW29Zwc_18boundline_adapters7fixture12fixture_impl40adaptive_candidate_signatures_from_state0B7_
FN:4041,_RNCNvNtNtNtCsblqRvDQyS7m_18boundline_adapters7fixture12fixture_impl5testss_58build_attempt_steps_covers_flow_scoped_and_direct_variants0B9_
FN:4047,_RNCNvNtNtNtCsblqRvDQyS7m_18boundline_adapters7fixture12fixture_impl5testss_58build_attempt_steps_covers_flow_scoped_and_direct_variantss_0B9_
FN:3967,_RNCNvNtNtNtCsblqRvDQyS7m_18boundline_adapters7fixture12fixture_impl5testss_60build_adaptive_initial_plan_covers_change_and_delivery_flows0B9_
FN:3979,_RNCNvNtNtNtCsblqRvDQyS7m_18boundline_adapters7fixture12fixture_impl5testss_60build_adaptive_initial_plan_covers_change_and_delivery_flowss_0B9_
FN:3780,_RNCNvNtNtNtCsblqRvDQyS7m_18boundline_adapters7fixture12fixture_impl5testss_64build_vertical_slice_plan_covers_non_flow_and_all_built_in_flows0B9_
FN:3802,_RNCNvNtNtNtCsblqRvDQyS7m_18boundline_adapters7fixture12fixture_impl5testss_64build_vertical_slice_plan_covers_non_flow_and_all_built_in_flowss0_0B9_
FN:3791,_RNCNvNtNtNtCsblqRvDQyS7m_18boundline_adapters7fixture12fixture_impl5testss_64build_vertical_slice_plan_covers_non_flow_and_all_built_in_flowss_0B9_
FN:4646,_RNCNvNtNtNtCsblqRvDQyS7m_18boundline_adapters7fixture12fixture_impl5testss_65build_task_request_copies_routing_projection_into_initial_context0B9_
FN:4648,_RNCNvNtNtNtCsblqRvDQyS7m_18boundline_adapters7fixture12fixture_impl5testss_65build_task_request_copies_routing_projection_into_initial_contexts_0B9_
FN:5021,_RNCNvNtNtNtCsblqRvDQyS7m_18boundline_adapters7fixture12fixture_impl5testss_66adaptive_helpers_cover_new_candidate_generators_and_family_scoring0B9_
FN:5043,_RNCNvNtNtNtCsblqRvDQyS7m_18boundline_adapters7fixture12fixture_impl5testss_66adaptive_helpers_cover_new_candidate_generators_and_family_scorings0_0B9_
FN:5045,_RNCNvNtNtNtCsblqRvDQyS7m_18boundline_adapters7fixture12fixture_impl5testss_66adaptive_helpers_cover_new_candidate_generators_and_family_scorings1_0B9_
FN:5046,_RNCNvNtNtNtCsblqRvDQyS7m_18boundline_adapters7fixture12fixture_impl5testss_66adaptive_helpers_cover_new_candidate_generators_and_family_scorings2_0B9_
FN:5047,_RNCNvNtNtNtCsblqRvDQyS7m_18boundline_adapters7fixture12fixture_impl5testss_66adaptive_helpers_cover_new_candidate_generators_and_family_scorings3_0B9_
FN:5025,_RNCNvNtNtNtCsblqRvDQyS7m_18boundline_adapters7fixture12fixture_impl5testss_66adaptive_helpers_cover_new_candidate_generators_and_family_scorings_0B9_
FN:4011,_RNCNvNtNtNtCsblqRvDQyS7m_18boundline_adapters7fixture12fixture_impl5testss_67build_adaptive_attempt_steps_covers_flow_scoped_and_direct_variants0B9_
FN:4020,_RNCNvNtNtNtCsblqRvDQyS7m_18boundline_adapters7fixture12fixture_impl5testss_67build_adaptive_attempt_steps_covers_flow_scoped_and_direct_variantss_0B9_
FN:3883,_RNCNvNtNtNtCsblqRvDQyS7m_18boundline_adapters7fixture12fixture_impl5testss_72build_vertical_slice_plan_appends_review_steps_when_review_is_configured0B9_
FN:4526,_RNCNvNtNtNtCsblqRvDQyS7m_18boundline_adapters7fixture12fixture_impl5testss_75fixture_runtime_helpers_cover_analysis_builders_and_verify_invalid_attempts0B9_
FN:4536,_RNCNvNtNtNtCsblqRvDQyS7m_18boundline_adapters7fixture12fixture_impl5testss_75fixture_runtime_helpers_cover_analysis_builders_and_verify_invalid_attemptss_0B9_
FN:3920,_RNCNvNtNtNtCsblqRvDQyS7m_18boundline_adapters7fixture12fixture_impl5testss_76build_review_steps_for_attempt_includes_adjudication_for_flow_scoped_reviews0B9_
FN:3428,_RNvNtNtNtCsblqRvDQyS7m_18boundline_adapters7fixture12fixture_impl5tests14sample_profile
FN:3402,_RNvNtNtNtCsblqRvDQyS7m_18boundline_adapters7fixture12fixture_impl5tests14temp_workspace
FN:3578,_RNvNtNtNtCsblqRvDQyS7m_18boundline_adapters7fixture12fixture_impl5tests18request_with_state
FN:3451,_RNvNtNtNtCsblqRvDQyS7m_18boundline_adapters7fixture12fixture_impl5tests21sample_review_profile
FN:3529,_RNvNtNtNtCsblqRvDQyS7m_18boundline_adapters7fixture12fixture_impl5tests22unsupported_flow_state
FN:3513,_RNvNtNtNtCsblqRvDQyS7m_18boundline_adapters7fixture12fixture_impl5tests23sample_adaptive_profile
FN:3538,_RNvNtNtNtCsblqRvDQyS7m_18boundline_adapters7fixture12fixture_impl5tests24first_adaptive_candidate
FN:3409,_RNvNtNtNtCsblqRvDQyS7m_18boundline_adapters7fixture12fixture_impl5tests25write_execution_workspace
FN:3562,_RNvNtNtNtCsblqRvDQyS7m_18boundline_adapters7fixture12fixture_impl5tests7request
FN:3599,_RNvNtNtNtCsblqRvDQyS7m_18boundline_adapters7fixture12fixture_impl5testss_33loader_rejects_a_missing_manifest
FN:3814,_RNvNtNtNtCsblqRvDQyS7m_18boundline_adapters7fixture12fixture_impl5testss_44build_fixture_plans_report_unsupported_flows
FN:4768,_RNvNtNtNtCsblqRvDQyS7m_18boundline_adapters7fixture12fixture_impl5testss_53execution_profile_loader_requires_the_modern_manifest
FN:4092,_RNvNtNtNtCsblqRvDQyS7m_18boundline_adapters7fixture12fixture_impl5testss_53review_validation_failure_is_routed_into_review_state
FN:4118,_RNvNtNtNtCsblqRvDQyS7m_18boundline_adapters7fixture12fixture_impl5testss_53review_vote_resolution_succeeds_for_pr_ready_findings
FN:4196,_RNvNtNtNtCsblqRvDQyS7m_18boundline_adapters7fixture12fixture_impl5testss_53review_workspace_fixture_records_adjudication_results
FN:3854,_RNvNtNtNtCsblqRvDQyS7m_18boundline_adapters7fixture12fixture_impl5testss_54adaptive_fixture_planning_requires_an_adaptive_profile
FN:4141,_RNvNtNtNtCsblqRvDQyS7m_18boundline_adapters7fixture12fixture_impl5testss_54review_workspace_fixture_covers_skip_and_failure_paths
FN:4028,_RNvNtNtNtCsblqRvDQyS7m_18boundline_adapters7fixture12fixture_impl5testss_58build_attempt_steps_covers_flow_scoped_and_direct_variants
FN:4277,_RNvNtNtNtCsblqRvDQyS7m_18boundline_adapters7fixture12fixture_impl5testss_58resolve_review_vote_rejects_non_independent_review_council
FN:4306,_RNvNtNtNtCsblqRvDQyS7m_18boundline_adapters7fixture12fixture_impl5testss_59finalize_workspace_review_covers_skip_and_terminal_variants
FN:3949,_RNvNtNtNtCsblqRvDQyS7m_18boundline_adapters7fixture12fixture_impl5testss_60build_adaptive_initial_plan_covers_change_and_delivery_flows
FN:4053,_RNvNtNtNtCsblqRvDQyS7m_18boundline_adapters7fixture12fixture_impl5testss_60comparison_and_boolean_flip_candidates_cover_both_directions
FN:4227,_RNvNtNtNtCsblqRvDQyS7m_18boundline_adapters7fixture12fixture_impl5testss_60resolve_review_vote_covers_skip_invalid_and_incomplete_paths
FN:4789,_RNvNtNtNtCsblqRvDQyS7m_18boundline_adapters7fixture12fixture_impl5testss_62adaptive_helpers_cover_guidance_blockers_headlines_and_reasons
FN:4725,_RNvNtNtNtCsblqRvDQyS7m_18boundline_adapters7fixture12fixture_impl5testss_62execution_profile_loader_prefers_the_new_manifest_when_present
FN:3762,_RNvNtNtNtCsblqRvDQyS7m_18boundline_adapters7fixture12fixture_impl5testss_64build_vertical_slice_plan_covers_non_flow_and_all_built_in_flows
FN:3607,_RNvNtNtNtCsblqRvDQyS7m_18boundline_adapters7fixture12fixture_impl5testss_64patch_application_is_idempotent_after_the_replacement_is_present
FN:4597,_RNvNtNtNtCsblqRvDQyS7m_18boundline_adapters7fixture12fixture_impl5testss_65build_task_request_copies_routing_projection_into_initial_context
FN:3746,_RNvNtNtNtCsblqRvDQyS7m_18boundline_adapters7fixture12fixture_impl5testss_65load_workspace_execution_profile_reports_parse_and_missing_errors
FN:4968,_RNvNtNtNtCsblqRvDQyS7m_18boundline_adapters7fixture12fixture_impl5testss_66adaptive_helpers_cover_new_candidate_generators_and_family_scoring
FN:4458,_RNvNtNtNtCsblqRvDQyS7m_18boundline_adapters7fixture12fixture_impl5testss_66verify_workspace_fixture_covers_success_failure_and_command_errors
FN:3993,_RNvNtNtNtCsblqRvDQyS7m_18boundline_adapters7fixture12fixture_impl5testss_67build_adaptive_attempt_steps_covers_flow_scoped_and_direct_variants
FN:3932,_RNvNtNtNtCsblqRvDQyS7m_18boundline_adapters7fixture12fixture_impl5testss_67build_review_steps_for_attempt_requires_an_adjudicator_when_enabled
FN:4654,_RNvNtNtNtCsblqRvDQyS7m_18boundline_adapters7fixture12fixture_impl5testss_67fixture_analysis_surfaces_bounded_governance_context_for_flow_steps
FN:3631,_RNvNtNtNtCsblqRvDQyS7m_18boundline_adapters7fixture12fixture_impl5testss_71workspace_fixture_validation_rejects_missing_fields_and_invalid_patches
FN:3874,_RNvNtNtNtCsblqRvDQyS7m_18boundline_adapters7fixture12fixture_impl5testss_72build_vertical_slice_plan_appends_review_steps_when_review_is_configured
FN:4509,_RNvNtNtNtCsblqRvDQyS7m_18boundline_adapters7fixture12fixture_impl5testss_75fixture_runtime_helpers_cover_analysis_builders_and_verify_invalid_attempts
FN:3897,_RNvNtNtNtCsblqRvDQyS7m_18boundline_adapters7fixture12fixture_impl5testss_76build_review_steps_for_attempt_includes_adjudication_for_flow_scoped_reviews
FN:4867,_RNvNtNtNtCsblqRvDQyS7m_18boundline_adapters7fixture12fixture_impl5testss_79adaptive_helpers_cover_path_matching_transition_rejections_and_failure_evidence
FN:3706,_RNvNtNtNtCsblqRvDQyS7m_18boundline_adapters7fixture12fixture_impl5testss_79workspace_fixture_validation_rejects_invalid_limits_and_manifest_path_is_stable
FN:4419,_RNvNtNtNtCsblqRvDQyS7m_18boundline_adapters7fixture12fixture_impl5testss_80apply_workspace_fixture_covers_retry_invalid_attempt_success_and_already_applied
FN:113,_RNvMNtNtCsblqRvDQyS7m_18boundline_adapters7fixture12fixture_implNtB2_16WorkspaceFixture8validate
FN:3238,_RNvMs0_NtNtCsblqRvDQyS7m_18boundline_adapters7fixture12fixture_implNtB5_20FixtureCommandOutput16rendered_command
FN:3251,_RNvMs0_NtNtCsblqRvDQyS7m_18boundline_adapters7fixture12fixture_implNtB5_20FixtureCommandOutput20to_validation_record
FN:3242,_RNvMs0_NtNtCsblqRvDQyS7m_18boundline_adapters7fixture12fixture_implNtB5_20FixtureCommandOutput7details
FN:3232,_RNvMs0_NtNtCsblqRvDQyS7m_18boundline_adapters7fixture12fixture_implNtB5_20FixtureCommandOutput9succeeded
FN:153,_RNvMs_NtNtCsblqRvDQyS7m_18boundline_adapters7fixture12fixture_implNtB4_9FilePatch8validate
FN:1620,_RNvNtNtCsblqRvDQyS7m_18boundline_adapters7fixture12fixture_impl11merge_terms
FN:3271,_RNvNtNtCsblqRvDQyS7m_18boundline_adapters7fixture12fixture_impl12diff_preview
FN:3193,_RNvNtNtCsblqRvDQyS7m_18boundline_adapters7fixture12fixture_impl14render_command
FN:1611,_RNvNtNtCsblqRvDQyS7m_18boundline_adapters7fixture12fixture_impl14tokenize_terms
FN:2078,_RNvNtNtCsblqRvDQyS7m_18boundline_adapters7fixture12fixture_impl15code_step_input
FN:2174,_RNvNtNtCsblqRvDQyS7m_18boundline_adapters7fixture12fixture_impl16review_tool_step
FN:2263,_RNvNtNtCsblqRvDQyS7m_18boundline_adapters7fixture12fixture_impl17execution_attempt
FN:574,_RNvNtNtCsblqRvDQyS7m_18boundline_adapters7fixture12fixture_impl17first_stable_line
FN:2161,_RNvNtNtCsblqRvDQyS7m_18boundline_adapters7fixture12fixture_impl17review_agent_step
FN:1478,_RNvNtNtCsblqRvDQyS7m_18boundline_adapters7fixture12fixture_impl17terms_include_any
FN:2092,_RNvNtNtCsblqRvDQyS7m_18boundline_adapters7fixture12fixture_impl17verify_step_input
FN:1870,_RNvNtNtCsblqRvDQyS7m_18boundline_adapters7fixture12fixture_impl18adaptive_goal_hint
FN:193,_RNvNtNtCsblqRvDQyS7m_18boundline_adapters7fixture12fixture_impl18build_fixture_plan
FN:742,_RNvNtNtCsblqRvDQyS7m_18boundline_adapters7fixture12fixture_impl18build_replan_queue
FN:2100,_RNvNtNtCsblqRvDQyS7m_18boundline_adapters7fixture12fixture_impl18build_review_steps
FN:3208,_RNvNtNtCsblqRvDQyS7m_18boundline_adapters7fixture12fixture_impl18default_run_limits
FN:2069,_RNvNtNtCsblqRvDQyS7m_18boundline_adapters7fixture12fixture_impl19analysis_step_input
FN:2004,_RNvNtNtCsblqRvDQyS7m_18boundline_adapters7fixture12fixture_impl19build_attempt_steps
FN:3057,_RNvNtNtCsblqRvDQyS7m_18boundline_adapters7fixture12fixture_impl19render_vote_summary
FN:2694,_RNvNtNtCsblqRvDQyS7m_18boundline_adapters7fixture12fixture_impl19resolve_review_vote
FN:3161,_RNvNtNtCsblqRvDQyS7m_18boundline_adapters7fixture12fixture_impl19run_fixture_command
FN:3201,_RNvNtNtCsblqRvDQyS7m_18boundline_adapters7fixture12fixture_impl20default_test_command
FN:2903,_RNvNtNtCsblqRvDQyS7m_18boundline_adapters7fixture12fixture_impl21active_review_trigger
FN:3133,_RNvNtNtCsblqRvDQyS7m_18boundline_adapters7fixture12fixture_impl21apply_fixture_patches
FN:352,_RNvNtNtCsblqRvDQyS7m_18boundline_adapters7fixture12fixture_impl21build_fixture_runtime
FN:1724,_RNvNtNtCsblqRvDQyS7m_18boundline_adapters7fixture12fixture_impl21collect_text_segments
FN:3171,_RNvNtNtCsblqRvDQyS7m_18boundline_adapters7fixture12fixture_impl21run_execution_command
FN:517,_RNvNtNtCsblqRvDQyS7m_18boundline_adapters7fixture12fixture_impl22infer_goal_plan_change
FN:1267,_RNvNtNtCsblqRvDQyS7m_18boundline_adapters7fixture12fixture_impl22score_workspace_target
FN:1694,_RNvNtNtCsblqRvDQyS7m_18boundline_adapters7fixture12fixture_impl23adaptive_replan_blocker
FN:3086,_RNvNtNtCsblqRvDQyS7m_18boundline_adapters7fixture12fixture_impl23apply_execution_attempt
FN:2331,_RNvNtNtCsblqRvDQyS7m_18boundline_adapters7fixture12fixture_impl23apply_workspace_fixture
FN:1526,_RNvNtNtCsblqRvDQyS7m_18boundline_adapters7fixture12fixture_impl23boolean_flip_candidates
FN:170,_RNvNtNtCsblqRvDQyS7m_18boundline_adapters7fixture12fixture_impl23execution_manifest_path
FN:2835,_RNvNtNtCsblqRvDQyS7m_18boundline_adapters7fixture12fixture_impl23review_terminal_success
FN:1906,_RNvNtNtCsblqRvDQyS7m_18boundline_adapters7fixture12fixture_impl24adaptive_code_step_input
FN:1844,_RNvNtNtCsblqRvDQyS7m_18boundline_adapters7fixture12fixture_impl24adaptive_transition_kind
FN:1742,_RNvNtNtCsblqRvDQyS7m_18boundline_adapters7fixture12fixture_impl24guidance_paths_from_text
FN:2991,_RNvNtNtCsblqRvDQyS7m_18boundline_adapters7fixture12fixture_impl24projection_route_entries
FN:2248,_RNvNtNtCsblqRvDQyS7m_18boundline_adapters7fixture12fixture_impl24read_targets_for_profile
FN:2572,_RNvNtNtCsblqRvDQyS7m_18boundline_adapters7fixture12fixture_impl24review_workspace_fixture
FN:1373,_RNvNtNtCsblqRvDQyS7m_18boundline_adapters7fixture12fixture_impl24score_adaptive_candidate
FN:2409,_RNvNtNtCsblqRvDQyS7m_18boundline_adapters7fixture12fixture_impl24verify_workspace_fixture
FN:2547,_RNvNtNtCsblqRvDQyS7m_18boundline_adapters7fixture12fixture_impl25adaptive_failure_evidence
FN:1787,_RNvNtNtCsblqRvDQyS7m_18boundline_adapters7fixture12fixture_impl25adaptive_selection_reason
FN:2291,_RNvNtNtCsblqRvDQyS7m_18boundline_adapters7fixture12fixture_impl25analyze_workspace_fixture
FN:1006,_RNvNtNtCsblqRvDQyS7m_18boundline_adapters7fixture12fixture_impl25build_adaptive_candidates
FN:1639,_RNvNtNtCsblqRvDQyS7m_18boundline_adapters7fixture12fixture_impl25build_validation_guidance
FN:590,_RNvNtNtCsblqRvDQyS7m_18boundline_adapters7fixture12fixture_impl25build_vertical_slice_plan
FN:2777,_RNvNtNtCsblqRvDQyS7m_18boundline_adapters7fixture12fixture_impl25finalize_workspace_review
FN:2849,_RNvNtNtCsblqRvDQyS7m_18boundline_adapters7fixture12fixture_impl25review_terminal_rejection
FN:1936,_RNvNtNtCsblqRvDQyS7m_18boundline_adapters7fixture12fixture_impl26adaptive_verify_step_input
FN:1482,_RNvNtNtCsblqRvDQyS7m_18boundline_adapters7fixture12fixture_impl26arithmetic_swap_candidates
FN:1506,_RNvNtNtCsblqRvDQyS7m_18boundline_adapters7fixture12fixture_impl26comparison_flip_candidates
FN:2949,_RNvNtNtCsblqRvDQyS7m_18boundline_adapters7fixture12fixture_impl26review_effective_route_map
FN:2917,_RNvNtNtCsblqRvDQyS7m_18boundline_adapters7fixture12fixture_impl26review_findings_from_state
FN:2863,_RNvNtNtCsblqRvDQyS7m_18boundline_adapters7fixture12fixture_impl26review_terminal_escalation
FN:3068,_RNvNtNtCsblqRvDQyS7m_18boundline_adapters7fixture12fixture_impl26snapshot_workspace_targets
FN:1875,_RNvNtNtCsblqRvDQyS7m_18boundline_adapters7fixture12fixture_impl26workspace_change_signature
FN:1345,_RNvNtNtCsblqRvDQyS7m_18boundline_adapters7fixture12fixture_impl27adaptive_changes_for_target
FN:1770,_RNvNtNtCsblqRvDQyS7m_18boundline_adapters7fixture12fixture_impl27adaptive_selection_headline
FN:753,_RNvNtNtCsblqRvDQyS7m_18boundline_adapters7fixture12fixture_impl27build_adaptive_initial_plan
FN:950,_RNvNtNtCsblqRvDQyS7m_18boundline_adapters7fixture12fixture_impl27build_adaptive_replan_steps
FN:197,_RNvNtNtCsblqRvDQyS7m_18boundline_adapters7fixture12fixture_impl27build_fixture_plan_for_flow
FN:204,_RNvNtNtCsblqRvDQyS7m_18boundline_adapters7fixture12fixture_impl27build_fixture_plan_for_goal
FN:1891,_RNvNtNtCsblqRvDQyS7m_18boundline_adapters7fixture12fixture_impl28adaptive_analysis_step_input
FN:1710,_RNvNtNtCsblqRvDQyS7m_18boundline_adapters7fixture12fixture_impl28adaptive_no_candidate_reason
FN:1181,_RNvNtNtCsblqRvDQyS7m_18boundline_adapters7fixture12fixture_impl28build_adaptive_attempt_steps
FN:1887,_RNvNtNtCsblqRvDQyS7m_18boundline_adapters7fixture12fixture_impl28latest_attempt_id_from_state
FN:3040,_RNvNtNtCsblqRvDQyS7m_18boundline_adapters7fixture12fixture_impl28normalize_reviewer_route_key
FN:319,_RNvNtNtCsblqRvDQyS7m_18boundline_adapters7fixture12fixture_impl28workspace_routing_projection
FN:2234,_RNvNtNtCsblqRvDQyS7m_18boundline_adapters7fixture12fixture_impl29attach_current_stage_metadata
FN:1252,_RNvNtNtCsblqRvDQyS7m_18boundline_adapters7fixture12fixture_impl29load_workspace_target_sources
FN:1562,_RNvNtNtCsblqRvDQyS7m_18boundline_adapters7fixture12fixture_impl29result_status_flip_candidates
FN:2188,_RNvNtNtCsblqRvDQyS7m_18boundline_adapters7fixture12fixture_impl29review_step_input_for_attempt
FN:356,_RNvNtNtCsblqRvDQyS7m_18boundline_adapters7fixture12fixture_impl30build_fixture_runtime_for_flow
FN:2109,_RNvNtNtCsblqRvDQyS7m_18boundline_adapters7fixture12fixture_impl30build_review_steps_for_attempt
FN:2226,_RNvNtNtCsblqRvDQyS7m_18boundline_adapters7fixture12fixture_impl30default_success_review_trigger
FN:2273,_RNvNtNtCsblqRvDQyS7m_18boundline_adapters7fixture12fixture_impl30execution_attempt_from_request
FN:578,_RNvNtNtCsblqRvDQyS7m_18boundline_adapters7fixture12fixture_impl30resolve_supported_fixture_flow
FN:2939,_RNvNtNtCsblqRvDQyS7m_18boundline_adapters7fixture12fixture_impl30review_participants_from_state
FN:2927,_RNvNtNtCsblqRvDQyS7m_18boundline_adapters7fixture12fixture_impl30review_reviewer_ids_from_state
FN:3021,_RNvNtNtCsblqRvDQyS7m_18boundline_adapters7fixture12fixture_impl30reviewer_route_projection_keys
FN:2679,_RNvNtNtCsblqRvDQyS7m_18boundline_adapters7fixture12fixture_impl31governance_context_from_request
FN:1582,_RNvNtNtCsblqRvDQyS7m_18boundline_adapters7fixture12fixture_impl31numeric_literal_flip_candidates
FN:2978,_RNvNtNtCsblqRvDQyS7m_18boundline_adapters7fixture12fixture_impl31routing_projection_from_request
FN:1944,_RNvNtNtCsblqRvDQyS7m_18boundline_adapters7fixture12fixture_impl32insert_adaptive_state_from_input
FN:174,_RNvNtNtCsblqRvDQyS7m_18boundline_adapters7fixture12fixture_impl32load_workspace_execution_profile
FN:1986,_RNvNtNtCsblqRvDQyS7m_18boundline_adapters7fixture12fixture_impl33insert_adaptive_output_from_input
FN:1630,_RNvNtNtCsblqRvDQyS7m_18boundline_adapters7fixture12fixture_impl33latest_workspace_slice_from_state
FN:1546,_RNvNtNtCsblqRvDQyS7m_18boundline_adapters7fixture12fixture_impl33ordering_boundary_flip_candidates
FN:372,_RNvNtNtCsblqRvDQyS7m_18boundline_adapters7fixture12fixture_impl34build_fixture_runtime_from_profile
FN:1823,_RNvNtNtCsblqRvDQyS7m_18boundline_adapters7fixture12fixture_impl34build_rejected_candidate_summaries
FN:2204,_RNvNtNtCsblqRvDQyS7m_18boundline_adapters7fixture12fixture_impl34review_vote_step_input_for_attempt
FN:364,_RNvNtNtCsblqRvDQyS7m_18boundline_adapters7fixture12fixture_impl35build_fixture_runtime_for_goal_plan
FN:3008,_RNvNtNtCsblqRvDQyS7m_18boundline_adapters7fixture12fixture_impl35review_effective_route_from_entries
FN:2215,_RNvNtNtCsblqRvDQyS7m_18boundline_adapters7fixture12fixture_impl38review_finalize_step_input_for_attempt
FN:464,_RNvNtNtCsblqRvDQyS7m_18boundline_adapters7fixture12fixture_impl38synthesize_goal_plan_execution_profile
FN:1879,_RNvNtNtCsblqRvDQyS7m_18boundline_adapters7fixture12fixture_impl40adaptive_candidate_signatures_from_state
FN:3262,_RNvNtNtCsblqRvDQyS7m_18boundline_adapters7fixture12fixture_impl7excerpt
FN:218,_RINvNtNtCsblqRvDQyS7m_18boundline_adapters7fixture12fixture_impl18build_task_requestRNtNtCs1OjIl8oxbrv_5alloc6string6StringB1l_EB6_
FN:218,_RINvNtNtCsblqRvDQyS7m_18boundline_adapters7fixture12fixture_impl18build_task_requestReB1k_EB6_
FN:2877,_RINvNtNtCsblqRvDQyS7m_18boundline_adapters7fixture12fixture_impl23review_terminal_failureReB1p_EB6_
FN:2877,_RINvNtNtCsblqRvDQyS7m_18boundline_adapters7fixture12fixture_impl23review_terminal_failureReNtNtCs1OjIl8oxbrv_5alloc6string6StringEB6_
FN:238,_RNCINvNtNtCsblqRvDQyS7m_18boundline_adapters7fixture12fixture_impl18build_task_requestRNtNtCs1OjIl8oxbrv_5alloc6string6StringB1n_E0B8_
FN:238,_RNCINvNtNtCsblqRvDQyS7m_18boundline_adapters7fixture12fixture_impl18build_task_requestReB1m_E0B8_
FN:239,_RNCNCINvNtNtCsblqRvDQyS7m_18boundline_adapters7fixture12fixture_impl18build_task_requestRNtNtCs1OjIl8oxbrv_5alloc6string6StringB1p_E00Ba_
FN:239,_RNCNCINvNtNtCsblqRvDQyS7m_18boundline_adapters7fixture12fixture_impl18build_task_requestReB1o_E00Ba_
FN:1479,_RNCNCNvNtNtCsblqRvDQyS7m_18boundline_adapters7fixture12fixture_impl17terms_include_any00B9_
FN:1038,_RNCNCNvNtNtCsblqRvDQyS7m_18boundline_adapters7fixture12fixture_impl25build_adaptive_candidatess1_00B9_
FN:1094,_RNCNCNvNtNtCsblqRvDQyS7m_18boundline_adapters7fixture12fixture_impl25build_adaptive_candidatess4_00B9_
FN:2966,_RNCNCNvNtNtCsblqRvDQyS7m_18boundline_adapters7fixture12fixture_impl26review_effective_route_maps0_00B9_
FN:3077,_RNCNCNvNtNtCsblqRvDQyS7m_18boundline_adapters7fixture12fixture_impl26snapshot_workspace_targets00B9_
FN:1261,_RNCNCNvNtNtCsblqRvDQyS7m_18boundline_adapters7fixture12fixture_impl29load_workspace_target_sources00B9_
FN:2934,_RNCNCNvNtNtCsblqRvDQyS7m_18boundline_adapters7fixture12fixture_impl30review_reviewer_ids_from_state00B9_
FN:391,_RNCNCNvNtNtCsblqRvDQyS7m_18boundline_adapters7fixture12fixture_impl34build_fixture_runtime_from_profile00B9_
FN:487,_RNCNCNvNtNtCsblqRvDQyS7m_18boundline_adapters7fixture12fixture_impl38synthesize_goal_plan_execution_profile00B9_
FN:1883,_RNCNCNvNtNtCsblqRvDQyS7m_18boundline_adapters7fixture12fixture_impl40adaptive_candidate_signatures_from_state00B9_
FN:128,_RNCNvMNtNtCsblqRvDQyS7m_18boundline_adapters7fixture12fixture_implNtB4_16WorkspaceFixture8validate0B8_
FN:1612,_RNCNvNtNtCsblqRvDQyS7m_18boundline_adapters7fixture12fixture_impl14tokenize_terms0B7_
FN:1613,_RNCNvNtNtCsblqRvDQyS7m_18boundline_adapters7fixture12fixture_impl14tokenize_termss_0B7_
FN:2268,_RNCNvNtNtCsblqRvDQyS7m_18boundline_adapters7fixture12fixture_impl17execution_attempt0B7_
FN:575,_RNCNvNtNtCsblqRvDQyS7m_18boundline_adapters7fixture12fixture_impl17first_stable_line0B7_
FN:1479,_RNCNvNtNtCsblqRvDQyS7m_18boundline_adapters7fixture12fixture_impl17terms_include_any0B7_
FN:2745,_RNCNvNtNtCsblqRvDQyS7m_18boundline_adapters7fixture12fixture_impl19resolve_review_vote0B7_
FN:2912,_RNCNvNtNtCsblqRvDQyS7m_18boundline_adapters7fixture12fixture_impl21active_review_trigger0B7_
FN:2914,_RNCNvNtNtCsblqRvDQyS7m_18boundline_adapters7fixture12fixture_impl21active_review_triggers0_0B7_
FN:2913,_RNCNvNtNtCsblqRvDQyS7m_18boundline_adapters7fixture12fixture_impl21active_review_triggers_0B7_
FN:3145,_RNCNvNtNtCsblqRvDQyS7m_18boundline_adapters7fixture12fixture_impl21apply_fixture_patches0B7_
FN:3181,_RNCNvNtNtCsblqRvDQyS7m_18boundline_adapters7fixture12fixture_impl21run_execution_command0B7_
FN:521,_RNCNvNtNtCsblqRvDQyS7m_18boundline_adapters7fixture12fixture_impl22infer_goal_plan_change0B7_
FN:558,_RNCNvNtNtCsblqRvDQyS7m_18boundline_adapters7fixture12fixture_impl22infer_goal_plan_changes0_0B7_
FN:531,_RNCNvNtNtCsblqRvDQyS7m_18boundline_adapters7fixture12fixture_impl22infer_goal_plan_changes_0B7_
FN:3097,_RNCNvNtNtCsblqRvDQyS7m_18boundline_adapters7fixture12fixture_impl23apply_execution_attempt0B7_
FN:3102,_RNCNvNtNtCsblqRvDQyS7m_18boundline_adapters7fixture12fixture_impl23apply_execution_attempts_0B7_
FN:1746,_RNCNvNtNtCsblqRvDQyS7m_18boundline_adapters7fixture12fixture_impl24guidance_paths_from_text0B7_
FN:1762,_RNCNvNtNtCsblqRvDQyS7m_18boundline_adapters7fixture12fixture_impl24guidance_paths_from_texts0_0B7_
FN:1761,_RNCNvNtNtCsblqRvDQyS7m_18boundline_adapters7fixture12fixture_impl24guidance_paths_from_texts_0B7_
FN:2995,_RNCNvNtNtCsblqRvDQyS7m_18boundline_adapters7fixture12fixture_impl24projection_route_entries0B7_
FN:2619,_RNCNvNtNtCsblqRvDQyS7m_18boundline_adapters7fixture12fixture_impl24review_workspace_fixture0B7_
FN:1393,_RNCNvNtNtCsblqRvDQyS7m_18boundline_adapters7fixture12fixture_impl24score_adaptive_candidate0B7_
FN:2462,_RNCNvNtNtCsblqRvDQyS7m_18boundline_adapters7fixture12fixture_impl24verify_workspace_fixture0B7_
FN:2507,_RNCNvNtNtCsblqRvDQyS7m_18boundline_adapters7fixture12fixture_impl24verify_workspace_fixtures_0B7_
FN:1797,_RNCNvNtNtCsblqRvDQyS7m_18boundline_adapters7fixture12fixture_impl25adaptive_selection_reason0B7_
FN:1012,_RNCNvNtNtCsblqRvDQyS7m_18boundline_adapters7fixture12fixture_impl25build_adaptive_candidates0B7_
FN:1027,_RNCNvNtNtCsblqRvDQyS7m_18boundline_adapters7fixture12fixture_impl25build_adaptive_candidatess0_0B7_
FN:1037,_RNCNvNtNtCsblqRvDQyS7m_18boundline_adapters7fixture12fixture_impl25build_adaptive_candidatess1_0B7_
FN:1048,_RNCNvNtNtCsblqRvDQyS7m_18boundline_adapters7fixture12fixture_impl25build_adaptive_candidatess2_0B7_
FN:1060,_RNCNvNtNtCsblqRvDQyS7m_18boundline_adapters7fixture12fixture_impl25build_adaptive_candidatess3_0B7_
FN:1093,_RNCNvNtNtCsblqRvDQyS7m_18boundline_adapters7fixture12fixture_impl25build_adaptive_candidatess4_0B7_
FN:1098,_RNCNvNtNtCsblqRvDQyS7m_18boundline_adapters7fixture12fixture_impl25build_adaptive_candidatess5_0B7_
FN:1110,_RNCNvNtNtCsblqRvDQyS7m_18boundline_adapters7fixture12fixture_impl25build_adaptive_candidatess6_0B7_
FN:1021,_RNCNvNtNtCsblqRvDQyS7m_18boundline_adapters7fixture12fixture_impl25build_adaptive_candidatess_0B7_
FN:1648,_RNCNvNtNtCsblqRvDQyS7m_18boundline_adapters7fixture12fixture_impl25build_validation_guidance0B7_
FN:2799,_RNCNvNtNtCsblqRvDQyS7m_18boundline_adapters7fixture12fixture_impl25finalize_workspace_review0B7_
FN:2810,_RNCNvNtNtCsblqRvDQyS7m_18boundline_adapters7fixture12fixture_impl25finalize_workspace_reviews_0B7_
FN:1495,_RNCNvNtNtCsblqRvDQyS7m_18boundline_adapters7fixture12fixture_impl26arithmetic_swap_candidates0B7_
FN:2954,_RNCNvNtNtCsblqRvDQyS7m_18boundline_adapters7fixture12fixture_impl26review_effective_route_map0B7_
FN:2961,_RNCNvNtNtCsblqRvDQyS7m_18boundline_adapters7fixture12fixture_impl26review_effective_route_maps0_0B7_
FN:2960,_RNCNvNtNtCsblqRvDQyS7m_18boundline_adapters7fixture12fixture_impl26review_effective_route_maps_0B7_
FN:2923,_RNCNvNtNtCsblqRvDQyS7m_18boundline_adapters7fixture12fixture_impl26review_findings_from_state0B7_
FN:3074,_RNCNvNtNtCsblqRvDQyS7m_18boundline_adapters7fixture12fixture_impl26snapshot_workspace_targets0B7_
FN:1367,_RNCNvNtNtCsblqRvDQyS7m_18boundline_adapters7fixture12fixture_impl27adaptive_changes_for_target0B7_
FN:960,_RNCNvNtNtCsblqRvDQyS7m_18boundline_adapters7fixture12fixture_impl27build_adaptive_replan_steps0B7_
FN:963,_RNCNvNtNtCsblqRvDQyS7m_18boundline_adapters7fixture12fixture_impl27build_adaptive_replan_stepss0_0B7_
FN:979,_RNCNvNtNtCsblqRvDQyS7m_18boundline_adapters7fixture12fixture_impl27build_adaptive_replan_stepss2_0B7_
FN:980,_RNCNvNtNtCsblqRvDQyS7m_18boundline_adapters7fixture12fixture_impl27build_adaptive_replan_stepss3_0B7_
FN:994,_RNCNvNtNtCsblqRvDQyS7m_18boundline_adapters7fixture12fixture_impl27build_adaptive_replan_stepss4_0B7_
FN:1003,_RNCNvNtNtCsblqRvDQyS7m_18boundline_adapters7fixture12fixture_impl27build_adaptive_replan_stepss5_0B7_
FN:963,_RNCNvNtNtCsblqRvDQyS7m_18boundline_adapters7fixture12fixture_impl27build_adaptive_replan_stepss_0B7_
FN:1258,_RNCNvNtNtCsblqRvDQyS7m_18boundline_adapters7fixture12fixture_impl29load_workspace_target_sources0B7_
FN:2119,_RNCNvNtNtCsblqRvDQyS7m_18boundline_adapters7fixture12fixture_impl30build_review_steps_for_attempt0B7_
FN:2120,_RNCNvNtNtCsblqRvDQyS7m_18boundline_adapters7fixture12fixture_impl30build_review_steps_for_attempts_0B7_
FN:2231,_RNCNvNtNtCsblqRvDQyS7m_18boundline_adapters7fixture12fixture_impl30default_success_review_trigger0B7_
FN:2278,_RNCNvNtNtCsblqRvDQyS7m_18boundline_adapters7fixture12fixture_impl30execution_attempt_from_request0B7_
FN:585,_RNCNvNtNtCsblqRvDQyS7m_18boundline_adapters7fixture12fixture_impl30resolve_supported_fixture_flow0B7_
FN:2945,_RNCNvNtNtCsblqRvDQyS7m_18boundline_adapters7fixture12fixture_impl30review_participants_from_state0B7_
FN:2933,_RNCNvNtNtCsblqRvDQyS7m_18boundline_adapters7fixture12fixture_impl30review_reviewer_ids_from_state0B7_
FN:2986,_RNCNvNtNtCsblqRvDQyS7m_18boundline_adapters7fixture12fixture_impl31routing_projection_from_request0B7_
FN:182,_RNCNvNtNtCsblqRvDQyS7m_18boundline_adapters7fixture12fixture_impl32load_workspace_execution_profile0B7_
FN:186,_RNCNvNtNtCsblqRvDQyS7m_18boundline_adapters7fixture12fixture_impl32load_workspace_execution_profiles_0B7_
FN:1636,_RNCNvNtNtCsblqRvDQyS7m_18boundline_adapters7fixture12fixture_impl33latest_workspace_slice_from_state0B7_
FN:384,_RNCNvNtNtCsblqRvDQyS7m_18boundline_adapters7fixture12fixture_impl34build_fixture_runtime_from_profile0B7_
FN:421,_RNCNvNtNtCsblqRvDQyS7m_18boundline_adapters7fixture12fixture_impl34build_fixture_runtime_from_profiles0_0B7_
FN:428,_RNCNvNtNtCsblqRvDQyS7m_18boundline_adapters7fixture12fixture_impl34build_fixture_runtime_from_profiles1_0B7_
FN:434,_RNCNvNtNtCsblqRvDQyS7m_18boundline_adapters7fixture12fixture_impl34build_fixture_runtime_from_profiles2_0B7_
FN:441,_RNCNvNtNtCsblqRvDQyS7m_18boundline_adapters7fixture12fixture_impl34build_fixture_runtime_from_profiles3_0B7_
FN:446,_RNCNvNtNtCsblqRvDQyS7m_18boundline_adapters7fixture12fixture_impl34build_fixture_runtime_from_profiles4_0B7_
FN:454,_RNCNvNtNtCsblqRvDQyS7m_18boundline_adapters7fixture12fixture_impl34build_fixture_runtime_from_profiles5_0B7_
FN:458,_RNCNvNtNtCsblqRvDQyS7m_18boundline_adapters7fixture12fixture_impl34build_fixture_runtime_from_profiles6_0B7_
FN:398,_RNCNvNtNtCsblqRvDQyS7m_18boundline_adapters7fixture12fixture_impl34build_fixture_runtime_from_profiles_0B7_
FN:481,_RNCNvNtNtCsblqRvDQyS7m_18boundline_adapters7fixture12fixture_impl38synthesize_goal_plan_execution_profile0B7_
FN:494,_RNCNvNtNtCsblqRvDQyS7m_18boundline_adapters7fixture12fixture_impl38synthesize_goal_plan_execution_profiles0_0B7_
FN:490,_RNCNvNtNtCsblqRvDQyS7m_18boundline_adapters7fixture12fixture_impl38synthesize_goal_plan_execution_profiles_0B7_
FN:1883,_RNCNvNtNtCsblqRvDQyS7m_18boundline_adapters7fixture12fixture_impl40adaptive_candidate_signatures_from_state0B7_
FN:218,_RINvNtNtCsgV4MOW29Zwc_18boundline_adapters7fixture12fixture_impl18build_task_requestReB1k_ECsy8NdhUIsqy_4unit
FN:238,_RNCINvNtNtCsgV4MOW29Zwc_18boundline_adapters7fixture12fixture_impl18build_task_requestReB1m_E0Csy8NdhUIsqy_4unit
FN:239,_RNCNCINvNtNtCsgV4MOW29Zwc_18boundline_adapters7fixture12fixture_impl18build_task_requestReB1o_E00Csy8NdhUIsqy_4unit
FNDA:1,_RINvNtNtCsgV4MOW29Zwc_18boundline_adapters7fixture12fixture_impl18build_task_requestNtNtCs1OjIl8oxbrv_5alloc6string6StringB1k_ECs9UpcZiueOLV_13boundline_cli
FNDA:1,_RNCINvNtNtCsgV4MOW29Zwc_18boundline_adapters7fixture12fixture_impl18build_task_requestNtNtCs1OjIl8oxbrv_5alloc6string6StringB1m_E0Cs9UpcZiueOLV_13boundline_cli
FNDA:0,_RNCNCINvNtNtCsgV4MOW29Zwc_18boundline_adapters7fixture12fixture_impl18build_task_requestNtNtCs1OjIl8oxbrv_5alloc6string6StringB1o_E00Cs9UpcZiueOLV_13boundline_cli
FNDA:0,_RNvMNtNtCsgV4MOW29Zwc_18boundline_adapters7fixture12fixture_implNtB2_16WorkspaceFixture8validate
FNDA:3,_RNvMs0_NtNtCsgV4MOW29Zwc_18boundline_adapters7fixture12fixture_implNtB5_20FixtureCommandOutput20to_validation_record
FNDA:0,_RNvMs0_NtNtCsgV4MOW29Zwc_18boundline_adapters7fixture12fixture_implNtB5_20FixtureCommandOutput7details
FNDA:6,_RNvMs0_NtNtCsgV4MOW29Zwc_18boundline_adapters7fixture12fixture_implNtB5_20FixtureCommandOutput9succeeded
FNDA:0,_RNvMs_NtNtCsgV4MOW29Zwc_18boundline_adapters7fixture12fixture_implNtB4_9FilePatch8validate
FNDA:5,_RNvNtNtCsgV4MOW29Zwc_18boundline_adapters7fixture12fixture_impl11merge_terms
FNDA:3,_RNvNtNtCsgV4MOW29Zwc_18boundline_adapters7fixture12fixture_impl12diff_preview
FNDA:3,_RNvNtNtCsgV4MOW29Zwc_18boundline_adapters7fixture12fixture_impl14render_command
FNDA:11,_RNvNtNtCsgV4MOW29Zwc_18boundline_adapters7fixture12fixture_impl14tokenize_terms
FNDA:20,_RNvNtNtCsgV4MOW29Zwc_18boundline_adapters7fixture12fixture_impl15code_step_input
FNDA:0,_RNvNtNtCsgV4MOW29Zwc_18boundline_adapters7fixture12fixture_impl16review_tool_step
FNDA:45,_RNvNtNtCsgV4MOW29Zwc_18boundline_adapters7fixture12fixture_impl17execution_attempt
FNDA:0,_RNvNtNtCsgV4MOW29Zwc_18boundline_adapters7fixture12fixture_impl17first_stable_line
FNDA:0,_RNvNtNtCsgV4MOW29Zwc_18boundline_adapters7fixture12fixture_impl17review_agent_step
FNDA:13,_RNvNtNtCsgV4MOW29Zwc_18boundline_adapters7fixture12fixture_impl17terms_include_any
FNDA:10,_RNvNtNtCsgV4MOW29Zwc_18boundline_adapters7fixture12fixture_impl17verify_step_input
FNDA:5,_RNvNtNtCsgV4MOW29Zwc_18boundline_adapters7fixture12fixture_impl18adaptive_goal_hint
FNDA:0,_RNvNtNtCsgV4MOW29Zwc_18boundline_adapters7fixture12fixture_impl18build_fixture_plan
FNDA:9,_RNvNtNtCsgV4MOW29Zwc_18boundline_adapters7fixture12fixture_impl18build_replan_queue
FNDA:10,_RNvNtNtCsgV4MOW29Zwc_18boundline_adapters7fixture12fixture_impl18build_review_steps
FNDA:0,_RNvNtNtCsgV4MOW29Zwc_18boundline_adapters7fixture12fixture_impl18default_run_limits
FNDA:10,_RNvNtNtCsgV4MOW29Zwc_18boundline_adapters7fixture12fixture_impl19analysis_step_input
FNDA:8,_RNvNtNtCsgV4MOW29Zwc_18boundline_adapters7fixture12fixture_impl19build_attempt_steps
FNDA:0,_RNvNtNtCsgV4MOW29Zwc_18boundline_adapters7fixture12fixture_impl19render_vote_summary
FNDA:0,_RNvNtNtCsgV4MOW29Zwc_18boundline_adapters7fixture12fixture_impl19resolve_review_vote
FNDA:0,_RNvNtNtCsgV4MOW29Zwc_18boundline_adapters7fixture12fixture_impl20default_test_command
FNDA:0,_RNvNtNtCsgV4MOW29Zwc_18boundline_adapters7fixture12fixture_impl21active_review_trigger
FNDA:1,_RNvNtNtCsgV4MOW29Zwc_18boundline_adapters7fixture12fixture_impl21build_fixture_runtime
FNDA:2,_RNvNtNtCsgV4MOW29Zwc_18boundline_adapters7fixture12fixture_impl21collect_text_segments
FNDA:3,_RNvNtNtCsgV4MOW29Zwc_18boundline_adapters7fixture12fixture_impl21run_execution_command
FNDA:3,_RNvNtNtCsgV4MOW29Zwc_18boundline_adapters7fixture12fixture_impl22infer_goal_plan_change
FNDA:12,_RNvNtNtCsgV4MOW29Zwc_18boundline_adapters7fixture12fixture_impl22score_workspace_target
FNDA:1,_RNvNtNtCsgV4MOW29Zwc_18boundline_adapters7fixture12fixture_impl23adaptive_replan_blocker
FNDA:4,_RNvNtNtCsgV4MOW29Zwc_18boundline_adapters7fixture12fixture_impl23apply_execution_attempt
FNDA:5,_RNvNtNtCsgV4MOW29Zwc_18boundline_adapters7fixture12fixture_impl23apply_workspace_fixture
FNDA:0,_RNvNtNtCsgV4MOW29Zwc_18boundline_adapters7fixture12fixture_impl23boolean_flip_candidates
FNDA:38,_RNvNtNtCsgV4MOW29Zwc_18boundline_adapters7fixture12fixture_impl23execution_manifest_path
FNDA:0,_RNvNtNtCsgV4MOW29Zwc_18boundline_adapters7fixture12fixture_impl23review_terminal_success
FNDA:10,_RNvNtNtCsgV4MOW29Zwc_18boundline_adapters7fixture12fixture_impl24adaptive_code_step_input
FNDA:13,_RNvNtNtCsgV4MOW29Zwc_18boundline_adapters7fixture12fixture_impl24adaptive_transition_kind
FNDA:1,_RNvNtNtCsgV4MOW29Zwc_18boundline_adapters7fixture12fixture_impl24guidance_paths_from_text
FNDA:0,_RNvNtNtCsgV4MOW29Zwc_18boundline_adapters7fixture12fixture_impl24projection_route_entries
FNDA:18,_RNvNtNtCsgV4MOW29Zwc_18boundline_adapters7fixture12fixture_impl24read_targets_for_profile
FNDA:0,_RNvNtNtCsgV4MOW29Zwc_18boundline_adapters7fixture12fixture_impl24review_workspace_fixture
FNDA:13,_RNvNtNtCsgV4MOW29Zwc_18boundline_adapters7fixture12fixture_impl24score_adaptive_candidate
FNDA:3,_RNvNtNtCsgV4MOW29Zwc_18boundline_adapters7fixture12fixture_impl24verify_workspace_fixture
FNDA:0,_RNvNtNtCsgV4MOW29Zwc_18boundline_adapters7fixture12fixture_impl25adaptive_failure_evidence
FNDA:13,_RNvNtNtCsgV4MOW29Zwc_18boundline_adapters7fixture12fixture_impl25adaptive_selection_reason
FNDA:4,_RNvNtNtCsgV4MOW29Zwc_18boundline_adapters7fixture12fixture_impl25analyze_workspace_fixture
FNDA:5,_RNvNtNtCsgV4MOW29Zwc_18boundline_adapters7fixture12fixture_impl25build_adaptive_candidates
FNDA:1,_RNvNtNtCsgV4MOW29Zwc_18boundline_adapters7fixture12fixture_impl25build_validation_guidance
FNDA:10,_RNvNtNtCsgV4MOW29Zwc_18boundline_adapters7fixture12fixture_impl25build_vertical_slice_plan
FNDA:0,_RNvNtNtCsgV4MOW29Zwc_18boundline_adapters7fixture12fixture_impl25finalize_workspace_review
FNDA:0,_RNvNtNtCsgV4MOW29Zwc_18boundline_adapters7fixture12fixture_impl25review_terminal_rejection
FNDA:5,_RNvNtNtCsgV4MOW29Zwc_18boundline_adapters7fixture12fixture_impl26adaptive_verify_step_input
FNDA:18,_RNvNtNtCsgV4MOW29Zwc_18boundline_adapters7fixture12fixture_impl26arithmetic_swap_candidates
FNDA:0,_RNvNtNtCsgV4MOW29Zwc_18boundline_adapters7fixture12fixture_impl26comparison_flip_candidates
FNDA:0,_RNvNtNtCsgV4MOW29Zwc_18boundline_adapters7fixture12fixture_impl26review_effective_route_map
FNDA:0,_RNvNtNtCsgV4MOW29Zwc_18boundline_adapters7fixture12fixture_impl26review_findings_from_state
FNDA:0,_RNvNtNtCsgV4MOW29Zwc_18boundline_adapters7fixture12fixture_impl26review_terminal_escalation
FNDA:4,_RNvNtNtCsgV4MOW29Zwc_18boundline_adapters7fixture12fixture_impl26snapshot_workspace_targets
FNDA:13,_RNvNtNtCsgV4MOW29Zwc_18boundline_adapters7fixture12fixture_impl26workspace_change_signature
FNDA:22,_RNvNtNtCsgV4MOW29Zwc_18boundline_adapters7fixture12fixture_impl27adaptive_changes_for_target
FNDA:13,_RNvNtNtCsgV4MOW29Zwc_18boundline_adapters7fixture12fixture_impl27adaptive_selection_headline
FNDA:4,_RNvNtNtCsgV4MOW29Zwc_18boundline_adapters7fixture12fixture_impl27build_adaptive_initial_plan
FNDA:1,_RNvNtNtCsgV4MOW29Zwc_18boundline_adapters7fixture12fixture_impl27build_adaptive_replan_steps
FNDA:0,_RNvNtNtCsgV4MOW29Zwc_18boundline_adapters7fixture12fixture_impl27build_fixture_plan_for_flow
FNDA:5,_RNvNtNtCsgV4MOW29Zwc_18boundline_adapters7fixture12fixture_impl27build_fixture_plan_for_goal
FNDA:4,_RNvNtNtCsgV4MOW29Zwc_18boundline_adapters7fixture12fixture_impl28adaptive_analysis_step_input
FNDA:0,_RNvNtNtCsgV4MOW29Zwc_18boundline_adapters7fixture12fixture_impl28adaptive_no_candidate_reason
FNDA:5,_RNvNtNtCsgV4MOW29Zwc_18boundline_adapters7fixture12fixture_impl28build_adaptive_attempt_steps
FNDA:1,_RNvNtNtCsgV4MOW29Zwc_18boundline_adapters7fixture12fixture_impl28latest_attempt_id_from_state
FNDA:0,_RNvNtNtCsgV4MOW29Zwc_18boundline_adapters7fixture12fixture_impl28normalize_reviewer_route_key
FNDA:3,_RNvNtNtCsgV4MOW29Zwc_18boundline_adapters7fixture12fixture_impl28workspace_routing_projection
FNDA:0,_RNvNtNtCsgV4MOW29Zwc_18boundline_adapters7fixture12fixture_impl29attach_current_stage_metadata
FNDA:5,_RNvNtNtCsgV4MOW29Zwc_18boundline_adapters7fixture12fixture_impl29load_workspace_target_sources
FNDA:0,_RNvNtNtCsgV4MOW29Zwc_18boundline_adapters7fixture12fixture_impl29result_status_flip_candidates
FNDA:0,_RNvNtNtCsgV4MOW29Zwc_18boundline_adapters7fixture12fixture_impl29review_step_input_for_attempt
FNDA:7,_RNvNtNtCsgV4MOW29Zwc_18boundline_adapters7fixture12fixture_impl30build_fixture_runtime_for_flow
FNDA:15,_RNvNtNtCsgV4MOW29Zwc_18boundline_adapters7fixture12fixture_impl30build_review_steps_for_attempt
FNDA:0,_RNvNtNtCsgV4MOW29Zwc_18boundline_adapters7fixture12fixture_impl30default_success_review_trigger
FNDA:7,_RNvNtNtCsgV4MOW29Zwc_18boundline_adapters7fixture12fixture_impl30execution_attempt_from_request
FNDA:2,_RNvNtNtCsgV4MOW29Zwc_18boundline_adapters7fixture12fixture_impl30resolve_supported_fixture_flow
FNDA:0,_RNvNtNtCsgV4MOW29Zwc_18boundline_adapters7fixture12fixture_impl30review_participants_from_state
FNDA:0,_RNvNtNtCsgV4MOW29Zwc_18boundline_adapters7fixture12fixture_impl30review_reviewer_ids_from_state
FNDA:0,_RNvNtNtCsgV4MOW29Zwc_18boundline_adapters7fixture12fixture_impl30reviewer_route_projection_keys
FNDA:10,_RNvNtNtCsgV4MOW29Zwc_18boundline_adapters7fixture12fixture_impl31governance_context_from_request
FNDA:0,_RNvNtNtCsgV4MOW29Zwc_18boundline_adapters7fixture12fixture_impl31numeric_literal_flip_candidates
FNDA:0,_RNvNtNtCsgV4MOW29Zwc_18boundline_adapters7fixture12fixture_impl31routing_projection_from_request
FNDA:10,_RNvNtNtCsgV4MOW29Zwc_18boundline_adapters7fixture12fixture_impl32insert_adaptive_state_from_input
FNDA:38,_RNvNtNtCsgV4MOW29Zwc_18boundline_adapters7fixture12fixture_impl32load_workspace_execution_profile
FNDA:6,_RNvNtNtCsgV4MOW29Zwc_18boundline_adapters7fixture12fixture_impl33insert_adaptive_output_from_input
FNDA:1,_RNvNtNtCsgV4MOW29Zwc_18boundline_adapters7fixture12fixture_impl33latest_workspace_slice_from_state
FNDA:4,_RNvNtNtCsgV4MOW29Zwc_18boundline_adapters7fixture12fixture_impl33ordering_boundary_flip_candidates
FNDA:10,_RNvNtNtCsgV4MOW29Zwc_18boundline_adapters7fixture12fixture_impl34build_fixture_runtime_from_profile
FNDA:13,_RNvNtNtCsgV4MOW29Zwc_18boundline_adapters7fixture12fixture_impl34build_rejected_candidate_summaries
FNDA:0,_RNvNtNtCsgV4MOW29Zwc_18boundline_adapters7fixture12fixture_impl34review_vote_step_input_for_attempt
FNDA:3,_RNvNtNtCsgV4MOW29Zwc_18boundline_adapters7fixture12fixture_impl35build_fixture_runtime_for_goal_plan
FNDA:0,_RNvNtNtCsgV4MOW29Zwc_18boundline_adapters7fixture12fixture_impl35review_effective_route_from_entries
FNDA:0,_RNvNtNtCsgV4MOW29Zwc_18boundline_adapters7fixture12fixture_impl38review_finalize_step_input_for_attempt
FNDA:3,_RNvNtNtCsgV4MOW29Zwc_18boundline_adapters7fixture12fixture_impl38synthesize_goal_plan_execution_profile
FNDA:1,_RNvNtNtCsgV4MOW29Zwc_18boundline_adapters7fixture12fixture_impl40adaptive_candidate_signatures_from_state
FNDA:49,_RNvNtNtCsgV4MOW29Zwc_18boundline_adapters7fixture12fixture_impl7excerpt
FNDA:0,_RINvNtNtCsgV4MOW29Zwc_18boundline_adapters7fixture12fixture_impl18build_task_requestRNtNtCs1OjIl8oxbrv_5alloc6string6StringB1l_EB6_
FNDA:0,_RINvNtNtCsgV4MOW29Zwc_18boundline_adapters7fixture12fixture_impl23review_terminal_failureReB1p_EB6_
FNDA:0,_RINvNtNtCsgV4MOW29Zwc_18boundline_adapters7fixture12fixture_impl23review_terminal_failureReNtNtCs1OjIl8oxbrv_5alloc6string6StringEB6_
FNDA:0,_RNCINvNtNtCsgV4MOW29Zwc_18boundline_adapters7fixture12fixture_impl18build_task_requestRNtNtCs1OjIl8oxbrv_5alloc6string6StringB1n_E0B8_
FNDA:0,_RNCNCINvNtNtCsgV4MOW29Zwc_18boundline_adapters7fixture12fixture_impl18build_task_requestRNtNtCs1OjIl8oxbrv_5alloc6string6StringB1p_E00Ba_
FNDA:330,_RNCNCNvNtNtCsgV4MOW29Zwc_18boundline_adapters7fixture12fixture_impl17terms_include_any00B9_
FNDA:0,_RNCNCNvNtNtCsgV4MOW29Zwc_18boundline_adapters7fixture12fixture_impl25build_adaptive_candidatess1_00B9_
FNDA:8,_RNCNCNvNtNtCsgV4MOW29Zwc_18boundline_adapters7fixture12fixture_impl25build_adaptive_candidatess4_00B9_
FNDA:0,_RNCNCNvNtNtCsgV4MOW29Zwc_18boundline_adapters7fixture12fixture_impl26review_effective_route_maps0_00B9_
FNDA:0,_RNCNCNvNtNtCsgV4MOW29Zwc_18boundline_adapters7fixture12fixture_impl26snapshot_workspace_targets00B9_
FNDA:0,_RNCNCNvNtNtCsgV4MOW29Zwc_18boundline_adapters7fixture12fixture_impl29load_workspace_target_sources00B9_
FNDA:0,_RNCNCNvNtNtCsgV4MOW29Zwc_18boundline_adapters7fixture12fixture_impl30review_reviewer_ids_from_state00B9_
FNDA:0,_RNCNCNvNtNtCsgV4MOW29Zwc_18boundline_adapters7fixture12fixture_impl34build_fixture_runtime_from_profile00B9_
FNDA:9,_RNCNCNvNtNtCsgV4MOW29Zwc_18boundline_adapters7fixture12fixture_impl38synthesize_goal_plan_execution_profile00B9_
FNDA:1,_RNCNCNvNtNtCsgV4MOW29Zwc_18boundline_adapters7fixture12fixture_impl40adaptive_candidate_signatures_from_state00B9_
FNDA:0,_RNCNvMNtNtCsgV4MOW29Zwc_18boundline_adapters7fixture12fixture_implNtB4_16WorkspaceFixture8validate0B8_
FNDA:503,_RNCNvNtNtCsgV4MOW29Zwc_18boundline_adapters7fixture12fixture_impl14tokenize_terms0B7_
FNDA:88,_RNCNvNtNtCsgV4MOW29Zwc_18boundline_adapters7fixture12fixture_impl14tokenize_termss_0B7_
FNDA:0,_RNCNvNtNtCsgV4MOW29Zwc_18boundline_adapters7fixture12fixture_impl17execution_attempt0B7_
FNDA:0,_RNCNvNtNtCsgV4MOW29Zwc_18boundline_adapters7fixture12fixture_impl17first_stable_line0B7_
FNDA:57,_RNCNvNtNtCsgV4MOW29Zwc_18boundline_adapters7fixture12fixture_impl17terms_include_any0B7_
FNDA:0,_RNCNvNtNtCsgV4MOW29Zwc_18boundline_adapters7fixture12fixture_impl19resolve_review_vote0B7_
FNDA:0,_RNCNvNtNtCsgV4MOW29Zwc_18boundline_adapters7fixture12fixture_impl21active_review_trigger0B7_
FNDA:0,_RNCNvNtNtCsgV4MOW29Zwc_18boundline_adapters7fixture12fixture_impl21active_review_triggers0_0B7_
FNDA:0,_RNCNvNtNtCsgV4MOW29Zwc_18boundline_adapters7fixture12fixture_impl21active_review_triggers_0B7_
FNDA:0,_RNCNvNtNtCsgV4MOW29Zwc_18boundline_adapters7fixture12fixture_impl21run_execution_command0B7_
FNDA:3,_RNCNvNtNtCsgV4MOW29Zwc_18boundline_adapters7fixture12fixture_impl22infer_goal_plan_change0B7_
FNDA:0,_RNCNvNtNtCsgV4MOW29Zwc_18boundline_adapters7fixture12fixture_impl22infer_goal_plan_changes0_0B7_
FNDA:0,_RNCNvNtNtCsgV4MOW29Zwc_18boundline_adapters7fixture12fixture_impl22infer_goal_plan_changes_0B7_
FNDA:0,_RNCNvNtNtCsgV4MOW29Zwc_18boundline_adapters7fixture12fixture_impl23apply_execution_attempt0B7_
FNDA:0,_RNCNvNtNtCsgV4MOW29Zwc_18boundline_adapters7fixture12fixture_impl23apply_execution_attempts_0B7_
FNDA:3,_RNCNvNtNtCsgV4MOW29Zwc_18boundline_adapters7fixture12fixture_impl24guidance_paths_from_text0B7_
FNDA:1,_RNCNvNtNtCsgV4MOW29Zwc_18boundline_adapters7fixture12fixture_impl24guidance_paths_from_texts0_0B7_
FNDA:1,_RNCNvNtNtCsgV4MOW29Zwc_18boundline_adapters7fixture12fixture_impl24guidance_paths_from_texts_0B7_
FNDA:0,_RNCNvNtNtCsgV4MOW29Zwc_18boundline_adapters7fixture12fixture_impl24projection_route_entries0B7_
FNDA:0,_RNCNvNtNtCsgV4MOW29Zwc_18boundline_adapters7fixture12fixture_impl24review_workspace_fixture0B7_
FNDA:62,_RNCNvNtNtCsgV4MOW29Zwc_18boundline_adapters7fixture12fixture_impl24score_adaptive_candidate0B7_
FNDA:0,_RNCNvNtNtCsgV4MOW29Zwc_18boundline_adapters7fixture12fixture_impl24verify_workspace_fixture0B7_
FNDA:0,_RNCNvNtNtCsgV4MOW29Zwc_18boundline_adapters7fixture12fixture_impl24verify_workspace_fixtures_0B7_
FNDA:0,_RNCNvNtNtCsgV4MOW29Zwc_18boundline_adapters7fixture12fixture_impl25adaptive_selection_reason0B7_
FNDA:0,_RNCNvNtNtCsgV4MOW29Zwc_18boundline_adapters7fixture12fixture_impl25build_adaptive_candidates0B7_
FNDA:12,_RNCNvNtNtCsgV4MOW29Zwc_18boundline_adapters7fixture12fixture_impl25build_adaptive_candidatess0_0B7_
FNDA:7,_RNCNvNtNtCsgV4MOW29Zwc_18boundline_adapters7fixture12fixture_impl25build_adaptive_candidatess1_0B7_
FNDA:6,_RNCNvNtNtCsgV4MOW29Zwc_18boundline_adapters7fixture12fixture_impl25build_adaptive_candidatess2_0B7_
FNDA:5,_RNCNvNtNtCsgV4MOW29Zwc_18boundline_adapters7fixture12fixture_impl25build_adaptive_candidatess3_0B7_
FNDA:8,_RNCNvNtNtCsgV4MOW29Zwc_18boundline_adapters7fixture12fixture_impl25build_adaptive_candidatess4_0B7_
FNDA:3,_RNCNvNtNtCsgV4MOW29Zwc_18boundline_adapters7fixture12fixture_impl25build_adaptive_candidatess5_0B7_
FNDA:13,_RNCNvNtNtCsgV4MOW29Zwc_18boundline_adapters7fixture12fixture_impl25build_adaptive_candidatess6_0B7_
FNDA:1,_RNCNvNtNtCsgV4MOW29Zwc_18boundline_adapters7fixture12fixture_impl25build_adaptive_candidatess_0B7_
FNDA:1,_RNCNvNtNtCsgV4MOW29Zwc_18boundline_adapters7fixture12fixture_impl25build_validation_guidance0B7_
FNDA:0,_RNCNvNtNtCsgV4MOW29Zwc_18boundline_adapters7fixture12fixture_impl25finalize_workspace_review0B7_
FNDA:0,_RNCNvNtNtCsgV4MOW29Zwc_18boundline_adapters7fixture12fixture_impl25finalize_workspace_reviews_0B7_
FNDA:42,_RNCNvNtNtCsgV4MOW29Zwc_18boundline_adapters7fixture12fixture_impl26arithmetic_swap_candidates0B7_
FNDA:0,_RNCNvNtNtCsgV4MOW29Zwc_18boundline_adapters7fixture12fixture_impl26review_effective_route_map0B7_
FNDA:0,_RNCNvNtNtCsgV4MOW29Zwc_18boundline_adapters7fixture12fixture_impl26review_effective_route_maps0_0B7_
FNDA:0,_RNCNvNtNtCsgV4MOW29Zwc_18boundline_adapters7fixture12fixture_impl26review_effective_route_maps_0B7_
FNDA:0,_RNCNvNtNtCsgV4MOW29Zwc_18boundline_adapters7fixture12fixture_impl26review_findings_from_state0B7_
FNDA:11,_RNCNvNtNtCsgV4MOW29Zwc_18boundline_adapters7fixture12fixture_impl26snapshot_workspace_targets0B7_
FNDA:45,_RNCNvNtNtCsgV4MOW29Zwc_18boundline_adapters7fixture12fixture_impl27adaptive_changes_for_target0B7_
FNDA:0,_RNCNvNtNtCsgV4MOW29Zwc_18boundline_adapters7fixture12fixture_impl27build_adaptive_replan_steps0B7_
FNDA:0,_RNCNvNtNtCsgV4MOW29Zwc_18boundline_adapters7fixture12fixture_impl27build_adaptive_replan_stepss0_0B7_
FNDA:1,_RNCNvNtNtCsgV4MOW29Zwc_18boundline_adapters7fixture12fixture_impl27build_adaptive_replan_stepss2_0B7_
FNDA:0,_RNCNvNtNtCsgV4MOW29Zwc_18boundline_adapters7fixture12fixture_impl27build_adaptive_replan_stepss3_0B7_
FNDA:0,_RNCNvNtNtCsgV4MOW29Zwc_18boundline_adapters7fixture12fixture_impl27build_adaptive_replan_stepss4_0B7_
FNDA:0,_RNCNvNtNtCsgV4MOW29Zwc_18boundline_adapters7fixture12fixture_impl27build_adaptive_replan_stepss5_0B7_
FNDA:1,_RNCNvNtNtCsgV4MOW29Zwc_18boundline_adapters7fixture12fixture_impl27build_adaptive_replan_stepss_0B7_
FNDA:12,_RNCNvNtNtCsgV4MOW29Zwc_18boundline_adapters7fixture12fixture_impl29load_workspace_target_sources0B7_
FNDA:0,_RNCNvNtNtCsgV4MOW29Zwc_18boundline_adapters7fixture12fixture_impl30build_review_steps_for_attempt0B7_
FNDA:0,_RNCNvNtNtCsgV4MOW29Zwc_18boundline_adapters7fixture12fixture_impl30build_review_steps_for_attempts_0B7_
FNDA:0,_RNCNvNtNtCsgV4MOW29Zwc_18boundline_adapters7fixture12fixture_impl30default_success_review_trigger0B7_
FNDA:0,_RNCNvNtNtCsgV4MOW29Zwc_18boundline_adapters7fixture12fixture_impl30execution_attempt_from_request0B7_
FNDA:0,_RNCNvNtNtCsgV4MOW29Zwc_18boundline_adapters7fixture12fixture_impl30resolve_supported_fixture_flow0B7_
FNDA:0,_RNCNvNtNtCsgV4MOW29Zwc_18boundline_adapters7fixture12fixture_impl30review_participants_from_state0B7_
FNDA:0,_RNCNvNtNtCsgV4MOW29Zwc_18boundline_adapters7fixture12fixture_impl30review_reviewer_ids_from_state0B7_
FNDA:0,_RNCNvNtNtCsgV4MOW29Zwc_18boundline_adapters7fixture12fixture_impl31routing_projection_from_request0B7_
FNDA:0,_RNCNvNtNtCsgV4MOW29Zwc_18boundline_adapters7fixture12fixture_impl32load_workspace_execution_profile0B7_
FNDA:2,_RNCNvNtNtCsgV4MOW29Zwc_18boundline_adapters7fixture12fixture_impl32load_workspace_execution_profiles_0B7_
FNDA:0,_RNCNvNtNtCsgV4MOW29Zwc_18boundline_adapters7fixture12fixture_impl33latest_workspace_slice_from_state0B7_
FNDA:0,_RNCNvNtNtCsgV4MOW29Zwc_18boundline_adapters7fixture12fixture_impl34build_fixture_runtime_from_profile0B7_
FNDA:4,_RNCNvNtNtCsgV4MOW29Zwc_18boundline_adapters7fixture12fixture_impl34build_fixture_runtime_from_profiles0_0B7_
FNDA:5,_RNCNvNtNtCsgV4MOW29Zwc_18boundline_adapters7fixture12fixture_impl34build_fixture_runtime_from_profiles1_0B7_
FNDA:0,_RNCNvNtNtCsgV4MOW29Zwc_18boundline_adapters7fixture12fixture_impl34build_fixture_runtime_from_profiles2_0B7_
FNDA:3,_RNCNvNtNtCsgV4MOW29Zwc_18boundline_adapters7fixture12fixture_impl34build_fixture_runtime_from_profiles3_0B7_
FNDA:0,_RNCNvNtNtCsgV4MOW29Zwc_18boundline_adapters7fixture12fixture_impl34build_fixture_runtime_from_profiles4_0B7_
FNDA:0,_RNCNvNtNtCsgV4MOW29Zwc_18boundline_adapters7fixture12fixture_impl34build_fixture_runtime_from_profiles5_0B7_
FNDA:0,_RNCNvNtNtCsgV4MOW29Zwc_18boundline_adapters7fixture12fixture_impl34build_fixture_runtime_from_profiles6_0B7_
FNDA:1,_RNCNvNtNtCsgV4MOW29Zwc_18boundline_adapters7fixture12fixture_impl34build_fixture_runtime_from_profiles_0B7_
FNDA:9,_RNCNvNtNtCsgV4MOW29Zwc_18boundline_adapters7fixture12fixture_impl38synthesize_goal_plan_execution_profile0B7_
FNDA:9,_RNCNvNtNtCsgV4MOW29Zwc_18boundline_adapters7fixture12fixture_impl38synthesize_goal_plan_execution_profiles0_0B7_
FNDA:3,_RNCNvNtNtCsgV4MOW29Zwc_18boundline_adapters7fixture12fixture_impl38synthesize_goal_plan_execution_profiles_0B7_
FNDA:1,_RNCNvNtNtCsgV4MOW29Zwc_18boundline_adapters7fixture12fixture_impl40adaptive_candidate_signatures_from_state0B7_
FNDA:2,_RNCNvNtNtNtCsblqRvDQyS7m_18boundline_adapters7fixture12fixture_impl5testss_58build_attempt_steps_covers_flow_scoped_and_direct_variants0B9_
FNDA:2,_RNCNvNtNtNtCsblqRvDQyS7m_18boundline_adapters7fixture12fixture_impl5testss_58build_attempt_steps_covers_flow_scoped_and_direct_variantss_0B9_
FNDA:3,_RNCNvNtNtNtCsblqRvDQyS7m_18boundline_adapters7fixture12fixture_impl5testss_60build_adaptive_initial_plan_covers_change_and_delivery_flows0B9_
FNDA:5,_RNCNvNtNtNtCsblqRvDQyS7m_18boundline_adapters7fixture12fixture_impl5testss_60build_adaptive_initial_plan_covers_change_and_delivery_flowss_0B9_
FNDA:3,_RNCNvNtNtNtCsblqRvDQyS7m_18boundline_adapters7fixture12fixture_impl5testss_64build_vertical_slice_plan_covers_non_flow_and_all_built_in_flows0B9_
FNDA:5,_RNCNvNtNtNtCsblqRvDQyS7m_18boundline_adapters7fixture12fixture_impl5testss_64build_vertical_slice_plan_covers_non_flow_and_all_built_in_flowss0_0B9_
FNDA:3,_RNCNvNtNtNtCsblqRvDQyS7m_18boundline_adapters7fixture12fixture_impl5testss_64build_vertical_slice_plan_covers_non_flow_and_all_built_in_flowss_0B9_
FNDA:4,_RNCNvNtNtNtCsblqRvDQyS7m_18boundline_adapters7fixture12fixture_impl5testss_65build_task_request_copies_routing_projection_into_initial_context0B9_
FNDA:7,_RNCNvNtNtNtCsblqRvDQyS7m_18boundline_adapters7fixture12fixture_impl5testss_65build_task_request_copies_routing_projection_into_initial_contexts_0B9_
FNDA:3,_RNCNvNtNtNtCsblqRvDQyS7m_18boundline_adapters7fixture12fixture_impl5testss_66adaptive_helpers_cover_new_candidate_generators_and_family_scoring0B9_
FNDA:3,_RNCNvNtNtNtCsblqRvDQyS7m_18boundline_adapters7fixture12fixture_impl5testss_66adaptive_helpers_cover_new_candidate_generators_and_family_scorings0_0B9_
FNDA:4,_RNCNvNtNtNtCsblqRvDQyS7m_18boundline_adapters7fixture12fixture_impl5testss_66adaptive_helpers_cover_new_candidate_generators_and_family_scorings1_0B9_
FNDA:5,_RNCNvNtNtNtCsblqRvDQyS7m_18boundline_adapters7fixture12fixture_impl5testss_66adaptive_helpers_cover_new_candidate_generators_and_family_scorings2_0B9_
FNDA:6,_RNCNvNtNtNtCsblqRvDQyS7m_18boundline_adapters7fixture12fixture_impl5testss_66adaptive_helpers_cover_new_candidate_generators_and_family_scorings3_0B9_
FNDA:4,_RNCNvNtNtNtCsblqRvDQyS7m_18boundline_adapters7fixture12fixture_impl5testss_66adaptive_helpers_cover_new_candidate_generators_and_family_scorings_0B9_
FNDA:2,_RNCNvNtNtNtCsblqRvDQyS7m_18boundline_adapters7fixture12fixture_impl5testss_67build_adaptive_attempt_steps_covers_flow_scoped_and_direct_variants0B9_
FNDA:2,_RNCNvNtNtNtCsblqRvDQyS7m_18boundline_adapters7fixture12fixture_impl5testss_67build_adaptive_attempt_steps_covers_flow_scoped_and_direct_variantss_0B9_
FNDA:7,_RNCNvNtNtNtCsblqRvDQyS7m_18boundline_adapters7fixture12fixture_impl5testss_72build_vertical_slice_plan_appends_review_steps_when_review_is_configured0B9_
FNDA:3,_RNCNvNtNtNtCsblqRvDQyS7m_18boundline_adapters7fixture12fixture_impl5testss_75fixture_runtime_helpers_cover_analysis_builders_and_verify_invalid_attempts0B9_
FNDA:3,_RNCNvNtNtNtCsblqRvDQyS7m_18boundline_adapters7fixture12fixture_impl5testss_75fixture_runtime_helpers_cover_analysis_builders_and_verify_invalid_attemptss_0B9_
FNDA:5,_RNCNvNtNtNtCsblqRvDQyS7m_18boundline_adapters7fixture12fixture_impl5testss_76build_review_steps_for_attempt_includes_adjudication_for_flow_scoped_reviews0B9_
FNDA:26,_RNvNtNtNtCsblqRvDQyS7m_18boundline_adapters7fixture12fixture_impl5tests14sample_profile
FNDA:7,_RNvNtNtNtCsblqRvDQyS7m_18boundline_adapters7fixture12fixture_impl5tests14temp_workspace
FNDA:15,_RNvNtNtNtCsblqRvDQyS7m_18boundline_adapters7fixture12fixture_impl5tests18request_with_state
FNDA:10,_RNvNtNtNtCsblqRvDQyS7m_18boundline_adapters7fixture12fixture_impl5tests21sample_review_profile
FNDA:1,_RNvNtNtNtCsblqRvDQyS7m_18boundline_adapters7fixture12fixture_impl5tests22unsupported_flow_state
FNDA:3,_RNvNtNtNtCsblqRvDQyS7m_18boundline_adapters7fixture12fixture_impl5tests23sample_adaptive_profile
FNDA:1,_RNvNtNtNtCsblqRvDQyS7m_18boundline_adapters7fixture12fixture_impl5tests24first_adaptive_candidate
FNDA:10,_RNvNtNtNtCsblqRvDQyS7m_18boundline_adapters7fixture12fixture_impl5tests25write_execution_workspace
FNDA:17,_RNvNtNtNtCsblqRvDQyS7m_18boundline_adapters7fixture12fixture_impl5tests7request
FNDA:1,_RNvNtNtNtCsblqRvDQyS7m_18boundline_adapters7fixture12fixture_impl5testss_33loader_rejects_a_missing_manifest
FNDA:1,_RNvNtNtNtCsblqRvDQyS7m_18boundline_adapters7fixture12fixture_impl5testss_44build_fixture_plans_report_unsupported_flows
FNDA:1,_RNvNtNtNtCsblqRvDQyS7m_18boundline_adapters7fixture12fixture_impl5testss_53execution_profile_loader_requires_the_modern_manifest
FNDA:1,_RNvNtNtNtCsblqRvDQyS7m_18boundline_adapters7fixture12fixture_impl5testss_53review_validation_failure_is_routed_into_review_state
FNDA:1,_RNvNtNtNtCsblqRvDQyS7m_18boundline_adapters7fixture12fixture_impl5testss_53review_vote_resolution_succeeds_for_pr_ready_findings
FNDA:1,_RNvNtNtNtCsblqRvDQyS7m_18boundline_adapters7fixture12fixture_impl5testss_53review_workspace_fixture_records_adjudication_results
FNDA:1,_RNvNtNtNtCsblqRvDQyS7m_18boundline_adapters7fixture12fixture_impl5testss_54adaptive_fixture_planning_requires_an_adaptive_profile
FNDA:1,_RNvNtNtNtCsblqRvDQyS7m_18boundline_adapters7fixture12fixture_impl5testss_54review_workspace_fixture_covers_skip_and_failure_paths
FNDA:1,_RNvNtNtNtCsblqRvDQyS7m_18boundline_adapters7fixture12fixture_impl5testss_58build_attempt_steps_covers_flow_scoped_and_direct_variants
FNDA:1,_RNvNtNtNtCsblqRvDQyS7m_18boundline_adapters7fixture12fixture_impl5testss_58resolve_review_vote_rejects_non_independent_review_council
FNDA:1,_RNvNtNtNtCsblqRvDQyS7m_18boundline_adapters7fixture12fixture_impl5testss_59finalize_workspace_review_covers_skip_and_terminal_variants
FNDA:1,_RNvNtNtNtCsblqRvDQyS7m_18boundline_adapters7fixture12fixture_impl5testss_60build_adaptive_initial_plan_covers_change_and_delivery_flows
FNDA:1,_RNvNtNtNtCsblqRvDQyS7m_18boundline_adapters7fixture12fixture_impl5testss_60comparison_and_boolean_flip_candidates_cover_both_directions
FNDA:1,_RNvNtNtNtCsblqRvDQyS7m_18boundline_adapters7fixture12fixture_impl5testss_60resolve_review_vote_covers_skip_invalid_and_incomplete_paths
FNDA:1,_RNvNtNtNtCsblqRvDQyS7m_18boundline_adapters7fixture12fixture_impl5testss_62adaptive_helpers_cover_guidance_blockers_headlines_and_reasons
FNDA:1,_RNvNtNtNtCsblqRvDQyS7m_18boundline_adapters7fixture12fixture_impl5testss_62execution_profile_loader_prefers_the_new_manifest_when_present
FNDA:1,_RNvNtNtNtCsblqRvDQyS7m_18boundline_adapters7fixture12fixture_impl5testss_64build_vertical_slice_plan_covers_non_flow_and_all_built_in_flows
FNDA:1,_RNvNtNtNtCsblqRvDQyS7m_18boundline_adapters7fixture12fixture_impl5testss_64patch_application_is_idempotent_after_the_replacement_is_present
FNDA:1,_RNvNtNtNtCsblqRvDQyS7m_18boundline_adapters7fixture12fixture_impl5testss_65build_task_request_copies_routing_projection_into_initial_context
FNDA:1,_RNvNtNtNtCsblqRvDQyS7m_18boundline_adapters7fixture12fixture_impl5testss_65load_workspace_execution_profile_reports_parse_and_missing_errors
FNDA:1,_RNvNtNtNtCsblqRvDQyS7m_18boundline_adapters7fixture12fixture_impl5testss_66adaptive_helpers_cover_new_candidate_generators_and_family_scoring
FNDA:1,_RNvNtNtNtCsblqRvDQyS7m_18boundline_adapters7fixture12fixture_impl5testss_66verify_workspace_fixture_covers_success_failure_and_command_errors
FNDA:1,_RNvNtNtNtCsblqRvDQyS7m_18boundline_adapters7fixture12fixture_impl5testss_67build_adaptive_attempt_steps_covers_flow_scoped_and_direct_variants
FNDA:1,_RNvNtNtNtCsblqRvDQyS7m_18boundline_adapters7fixture12fixture_impl5testss_67build_review_steps_for_attempt_requires_an_adjudicator_when_enabled
FNDA:1,_RNvNtNtNtCsblqRvDQyS7m_18boundline_adapters7fixture12fixture_impl5testss_67fixture_analysis_surfaces_bounded_governance_context_for_flow_steps
FNDA:1,_RNvNtNtNtCsblqRvDQyS7m_18boundline_adapters7fixture12fixture_impl5testss_71workspace_fixture_validation_rejects_missing_fields_and_invalid_patches
FNDA:1,_RNvNtNtNtCsblqRvDQyS7m_18boundline_adapters7fixture12fixture_impl5testss_72build_vertical_slice_plan_appends_review_steps_when_review_is_configured
FNDA:1,_RNvNtNtNtCsblqRvDQyS7m_18boundline_adapters7fixture12fixture_impl5testss_75fixture_runtime_helpers_cover_analysis_builders_and_verify_invalid_attempts
FNDA:1,_RNvNtNtNtCsblqRvDQyS7m_18boundline_adapters7fixture12fixture_impl5testss_76build_review_steps_for_attempt_includes_adjudication_for_flow_scoped_reviews
FNDA:1,_RNvNtNtNtCsblqRvDQyS7m_18boundline_adapters7fixture12fixture_impl5testss_79adaptive_helpers_cover_path_matching_transition_rejections_and_failure_evidence
FNDA:1,_RNvNtNtNtCsblqRvDQyS7m_18boundline_adapters7fixture12fixture_impl5testss_79workspace_fixture_validation_rejects_invalid_limits_and_manifest_path_is_stable
FNDA:1,_RNvNtNtNtCsblqRvDQyS7m_18boundline_adapters7fixture12fixture_impl5testss_80apply_workspace_fixture_covers_retry_invalid_attempt_success_and_already_applied
FNDA:5,_RNvMNtNtCsblqRvDQyS7m_18boundline_adapters7fixture12fixture_implNtB2_16WorkspaceFixture8validate
FNDA:1,_RNvMs0_NtNtCsblqRvDQyS7m_18boundline_adapters7fixture12fixture_implNtB5_20FixtureCommandOutput16rendered_command
FNDA:4,_RNvMs0_NtNtCsblqRvDQyS7m_18boundline_adapters7fixture12fixture_implNtB5_20FixtureCommandOutput20to_validation_record
FNDA:2,_RNvMs0_NtNtCsblqRvDQyS7m_18boundline_adapters7fixture12fixture_implNtB5_20FixtureCommandOutput7details
FNDA:8,_RNvMs0_NtNtCsblqRvDQyS7m_18boundline_adapters7fixture12fixture_implNtB5_20FixtureCommandOutput9succeeded
FNDA:4,_RNvMs_NtNtCsblqRvDQyS7m_18boundline_adapters7fixture12fixture_implNtB4_9FilePatch8validate
FNDA:4,_RNvNtNtCsblqRvDQyS7m_18boundline_adapters7fixture12fixture_impl11merge_terms
FNDA:4,_RNvNtNtCsblqRvDQyS7m_18boundline_adapters7fixture12fixture_impl12diff_preview
FNDA:5,_RNvNtNtCsblqRvDQyS7m_18boundline_adapters7fixture12fixture_impl14render_command
FNDA:8,_RNvNtNtCsblqRvDQyS7m_18boundline_adapters7fixture12fixture_impl14tokenize_terms
FNDA:68,_RNvNtNtCsblqRvDQyS7m_18boundline_adapters7fixture12fixture_impl15code_step_input
FNDA:5,_RNvNtNtCsblqRvDQyS7m_18boundline_adapters7fixture12fixture_impl16review_tool_step
FNDA:131,_RNvNtNtCsblqRvDQyS7m_18boundline_adapters7fixture12fixture_impl17execution_attempt
FNDA:1,_RNvNtNtCsblqRvDQyS7m_18boundline_adapters7fixture12fixture_impl17first_stable_line
FNDA:7,_RNvNtNtCsblqRvDQyS7m_18boundline_adapters7fixture12fixture_impl17review_agent_step
FNDA:6,_RNvNtNtCsblqRvDQyS7m_18boundline_adapters7fixture12fixture_impl17terms_include_any
FNDA:34,_RNvNtNtCsblqRvDQyS7m_18boundline_adapters7fixture12fixture_impl17verify_step_input
FNDA:4,_RNvNtNtCsblqRvDQyS7m_18boundline_adapters7fixture12fixture_impl18adaptive_goal_hint
FNDA:1,_RNvNtNtCsblqRvDQyS7m_18boundline_adapters7fixture12fixture_impl18build_fixture_plan
FNDA:13,_RNvNtNtCsblqRvDQyS7m_18boundline_adapters7fixture12fixture_impl18build_replan_queue
FNDA:34,_RNvNtNtCsblqRvDQyS7m_18boundline_adapters7fixture12fixture_impl18build_review_steps
FNDA:6,_RNvNtNtCsblqRvDQyS7m_18boundline_adapters7fixture12fixture_impl18default_run_limits
FNDA:26,_RNvNtNtCsblqRvDQyS7m_18boundline_adapters7fixture12fixture_impl19analysis_step_input
FNDA:21,_RNvNtNtCsblqRvDQyS7m_18boundline_adapters7fixture12fixture_impl19build_attempt_steps
FNDA:1,_RNvNtNtCsblqRvDQyS7m_18boundline_adapters7fixture12fixture_impl19render_vote_summary
FNDA:6,_RNvNtNtCsblqRvDQyS7m_18boundline_adapters7fixture12fixture_impl19resolve_review_vote
FNDA:1,_RNvNtNtCsblqRvDQyS7m_18boundline_adapters7fixture12fixture_impl19run_fixture_command
FNDA:5,_RNvNtNtCsblqRvDQyS7m_18boundline_adapters7fixture12fixture_impl20default_test_command
FNDA:17,_RNvNtNtCsblqRvDQyS7m_18boundline_adapters7fixture12fixture_impl21active_review_trigger
FNDA:2,_RNvNtNtCsblqRvDQyS7m_18boundline_adapters7fixture12fixture_impl21apply_fixture_patches
FNDA:1,_RNvNtNtCsblqRvDQyS7m_18boundline_adapters7fixture12fixture_impl21build_fixture_runtime
FNDA:0,_RNvNtNtCsblqRvDQyS7m_18boundline_adapters7fixture12fixture_impl21collect_text_segments
FNDA:5,_RNvNtNtCsblqRvDQyS7m_18boundline_adapters7fixture12fixture_impl21run_execution_command
FNDA:2,_RNvNtNtCsblqRvDQyS7m_18boundline_adapters7fixture12fixture_impl22infer_goal_plan_change
FNDA:4,_RNvNtNtCsblqRvDQyS7m_18boundline_adapters7fixture12fixture_impl22score_workspace_target
FNDA:3,_RNvNtNtCsblqRvDQyS7m_18boundline_adapters7fixture12fixture_impl23adaptive_replan_blocker
FNDA:4,_RNvNtNtCsblqRvDQyS7m_18boundline_adapters7fixture12fixture_impl23apply_execution_attempt
FNDA:4,_RNvNtNtCsblqRvDQyS7m_18boundline_adapters7fixture12fixture_impl23apply_workspace_fixture
FNDA:15,_RNvNtNtCsblqRvDQyS7m_18boundline_adapters7fixture12fixture_impl23boolean_flip_candidates
FNDA:74,_RNvNtNtCsblqRvDQyS7m_18boundline_adapters7fixture12fixture_impl23execution_manifest_path
FNDA:0,_RNvNtNtCsblqRvDQyS7m_18boundline_adapters7fixture12fixture_impl23review_terminal_success
FNDA:8,_RNvNtNtCsblqRvDQyS7m_18boundline_adapters7fixture12fixture_impl24adaptive_code_step_input
FNDA:8,_RNvNtNtCsblqRvDQyS7m_18boundline_adapters7fixture12fixture_impl24adaptive_transition_kind
FNDA:1,_RNvNtNtCsblqRvDQyS7m_18boundline_adapters7fixture12fixture_impl24guidance_paths_from_text
FNDA:1,_RNvNtNtCsblqRvDQyS7m_18boundline_adapters7fixture12fixture_impl24projection_route_entries
FNDA:32,_RNvNtNtCsblqRvDQyS7m_18boundline_adapters7fixture12fixture_impl24read_targets_for_profile
FNDA:7,_RNvNtNtCsblqRvDQyS7m_18boundline_adapters7fixture12fixture_impl24review_workspace_fixture
FNDA:6,_RNvNtNtCsblqRvDQyS7m_18boundline_adapters7fixture12fixture_impl24score_adaptive_candidate
FNDA:5,_RNvNtNtCsblqRvDQyS7m_18boundline_adapters7fixture12fixture_impl24verify_workspace_fixture
FNDA:2,_RNvNtNtCsblqRvDQyS7m_18boundline_adapters7fixture12fixture_impl25adaptive_failure_evidence
FNDA:7,_RNvNtNtCsblqRvDQyS7m_18boundline_adapters7fixture12fixture_impl25adaptive_selection_reason
FNDA:4,_RNvNtNtCsblqRvDQyS7m_18boundline_adapters7fixture12fixture_impl25analyze_workspace_fixture
FNDA:5,_RNvNtNtCsblqRvDQyS7m_18boundline_adapters7fixture12fixture_impl25build_adaptive_candidates
FNDA:0,_RNvNtNtCsblqRvDQyS7m_18boundline_adapters7fixture12fixture_impl25build_validation_guidance
FNDA:27,_RNvNtNtCsblqRvDQyS7m_18boundline_adapters7fixture12fixture_impl25build_vertical_slice_plan
FNDA:8,_RNvNtNtCsblqRvDQyS7m_18boundline_adapters7fixture12fixture_impl25finalize_workspace_review
FNDA:2,_RNvNtNtCsblqRvDQyS7m_18boundline_adapters7fixture12fixture_impl25review_terminal_rejection
FNDA:4,_RNvNtNtCsblqRvDQyS7m_18boundline_adapters7fixture12fixture_impl26adaptive_verify_step_input
FNDA:0,_RNvNtNtCsblqRvDQyS7m_18boundline_adapters7fixture12fixture_impl26arithmetic_swap_candidates
FNDA:15,_RNvNtNtCsblqRvDQyS7m_18boundline_adapters7fixture12fixture_impl26comparison_flip_candidates
FNDA:5,_RNvNtNtCsblqRvDQyS7m_18boundline_adapters7fixture12fixture_impl26review_effective_route_map
FNDA:5,_RNvNtNtCsblqRvDQyS7m_18boundline_adapters7fixture12fixture_impl26review_findings_from_state
FNDA:2,_RNvNtNtCsblqRvDQyS7m_18boundline_adapters7fixture12fixture_impl26review_terminal_escalation
FNDA:4,_RNvNtNtCsblqRvDQyS7m_18boundline_adapters7fixture12fixture_impl26snapshot_workspace_targets
FNDA:4,_RNvNtNtCsblqRvDQyS7m_18boundline_adapters7fixture12fixture_impl26workspace_change_signature
FNDA:12,_RNvNtNtCsblqRvDQyS7m_18boundline_adapters7fixture12fixture_impl27adaptive_changes_for_target
FNDA:5,_RNvNtNtCsblqRvDQyS7m_18boundline_adapters7fixture12fixture_impl27adaptive_selection_headline
FNDA:4,_RNvNtNtCsblqRvDQyS7m_18boundline_adapters7fixture12fixture_impl27build_adaptive_initial_plan
FNDA:0,_RNvNtNtCsblqRvDQyS7m_18boundline_adapters7fixture12fixture_impl27build_adaptive_replan_steps
FNDA:1,_RNvNtNtCsblqRvDQyS7m_18boundline_adapters7fixture12fixture_impl27build_fixture_plan_for_flow
FNDA:8,_RNvNtNtCsblqRvDQyS7m_18boundline_adapters7fixture12fixture_impl27build_fixture_plan_for_goal
FNDA:2,_RNvNtNtCsblqRvDQyS7m_18boundline_adapters7fixture12fixture_impl28adaptive_analysis_step_input
FNDA:1,_RNvNtNtCsblqRvDQyS7m_18boundline_adapters7fixture12fixture_impl28adaptive_no_candidate_reason
FNDA:2,_RNvNtNtCsblqRvDQyS7m_18boundline_adapters7fixture12fixture_impl28build_adaptive_attempt_steps
FNDA:0,_RNvNtNtCsblqRvDQyS7m_18boundline_adapters7fixture12fixture_impl28latest_attempt_id_from_state
FNDA:4,_RNvNtNtCsblqRvDQyS7m_18boundline_adapters7fixture12fixture_impl28normalize_reviewer_route_key
FNDA:8,_RNvNtNtCsblqRvDQyS7m_18boundline_adapters7fixture12fixture_impl28workspace_routing_projection
FNDA:9,_RNvNtNtCsblqRvDQyS7m_18boundline_adapters7fixture12fixture_impl29attach_current_stage_metadata
FNDA:4,_RNvNtNtCsblqRvDQyS7m_18boundline_adapters7fixture12fixture_impl29load_workspace_target_sources
FNDA:2,_RNvNtNtCsblqRvDQyS7m_18boundline_adapters7fixture12fixture_impl29result_status_flip_candidates
FNDA:7,_RNvNtNtCsblqRvDQyS7m_18boundline_adapters7fixture12fixture_impl29review_step_input_for_attempt
FNDA:11,_RNvNtNtCsblqRvDQyS7m_18boundline_adapters7fixture12fixture_impl30build_fixture_runtime_for_flow
FNDA:40,_RNvNtNtCsblqRvDQyS7m_18boundline_adapters7fixture12fixture_impl30build_review_steps_for_attempt
FNDA:7,_RNvNtNtCsblqRvDQyS7m_18boundline_adapters7fixture12fixture_impl30default_success_review_trigger
FNDA:8,_RNvNtNtCsblqRvDQyS7m_18boundline_adapters7fixture12fixture_impl30execution_attempt_from_request
FNDA:15,_RNvNtNtCsblqRvDQyS7m_18boundline_adapters7fixture12fixture_impl30resolve_supported_fixture_flow
FNDA:1,_RNvNtNtCsblqRvDQyS7m_18boundline_adapters7fixture12fixture_impl30review_participants_from_state
FNDA:1,_RNvNtNtCsblqRvDQyS7m_18boundline_adapters7fixture12fixture_impl30review_reviewer_ids_from_state
FNDA:2,_RNvNtNtCsblqRvDQyS7m_18boundline_adapters7fixture12fixture_impl30reviewer_route_projection_keys
FNDA:7,_RNvNtNtCsblqRvDQyS7m_18boundline_adapters7fixture12fixture_impl31governance_context_from_request
FNDA:1,_RNvNtNtCsblqRvDQyS7m_18boundline_adapters7fixture12fixture_impl31numeric_literal_flip_candidates
FNDA:5,_RNvNtNtCsblqRvDQyS7m_18boundline_adapters7fixture12fixture_impl31routing_projection_from_request
FNDA:8,_RNvNtNtCsblqRvDQyS7m_18boundline_adapters7fixture12fixture_impl32insert_adaptive_state_from_input
FNDA:69,_RNvNtNtCsblqRvDQyS7m_18boundline_adapters7fixture12fixture_impl32load_workspace_execution_profile
FNDA:4,_RNvNtNtCsblqRvDQyS7m_18boundline_adapters7fixture12fixture_impl33insert_adaptive_output_from_input
FNDA:0,_RNvNtNtCsblqRvDQyS7m_18boundline_adapters7fixture12fixture_impl33latest_workspace_slice_from_state
FNDA:1,_RNvNtNtCsblqRvDQyS7m_18boundline_adapters7fixture12fixture_impl33ordering_boundary_flip_candidates
FNDA:13,_RNvNtNtCsblqRvDQyS7m_18boundline_adapters7fixture12fixture_impl34build_fixture_runtime_from_profile
FNDA:6,_RNvNtNtCsblqRvDQyS7m_18boundline_adapters7fixture12fixture_impl34build_rejected_candidate_summaries
FNDA:3,_RNvNtNtCsblqRvDQyS7m_18boundline_adapters7fixture12fixture_impl34review_vote_step_input_for_attempt
FNDA:2,_RNvNtNtCsblqRvDQyS7m_18boundline_adapters7fixture12fixture_impl35build_fixture_runtime_for_goal_plan
FNDA:2,_RNvNtNtCsblqRvDQyS7m_18boundline_adapters7fixture12fixture_impl35review_effective_route_from_entries
FNDA:2,_RNvNtNtCsblqRvDQyS7m_18boundline_adapters7fixture12fixture_impl38review_finalize_step_input_for_attempt
FNDA:2,_RNvNtNtCsblqRvDQyS7m_18boundline_adapters7fixture12fixture_impl38synthesize_goal_plan_execution_profile
FNDA:0,_RNvNtNtCsblqRvDQyS7m_18boundline_adapters7fixture12fixture_impl40adaptive_candidate_signatures_from_state
FNDA:29,_RNvNtNtCsblqRvDQyS7m_18boundline_adapters7fixture12fixture_impl7excerpt
FNDA:6,_RINvNtNtCsblqRvDQyS7m_18boundline_adapters7fixture12fixture_impl18build_task_requestRNtNtCs1OjIl8oxbrv_5alloc6string6StringB1l_EB6_
FNDA:2,_RINvNtNtCsblqRvDQyS7m_18boundline_adapters7fixture12fixture_impl18build_task_requestReB1k_EB6_
FNDA:3,_RINvNtNtCsblqRvDQyS7m_18boundline_adapters7fixture12fixture_impl23review_terminal_failureReB1p_EB6_
FNDA:5,_RINvNtNtCsblqRvDQyS7m_18boundline_adapters7fixture12fixture_impl23review_terminal_failureReNtNtCs1OjIl8oxbrv_5alloc6string6StringEB6_
FNDA:2,_RNCINvNtNtCsblqRvDQyS7m_18boundline_adapters7fixture12fixture_impl18build_task_requestRNtNtCs1OjIl8oxbrv_5alloc6string6StringB1n_E0B8_
FNDA:2,_RNCINvNtNtCsblqRvDQyS7m_18boundline_adapters7fixture12fixture_impl18build_task_requestReB1m_E0B8_
FNDA:0,_RNCNCINvNtNtCsblqRvDQyS7m_18boundline_adapters7fixture12fixture_impl18build_task_requestRNtNtCs1OjIl8oxbrv_5alloc6string6StringB1p_E00Ba_
FNDA:0,_RNCNCINvNtNtCsblqRvDQyS7m_18boundline_adapters7fixture12fixture_impl18build_task_requestReB1o_E00Ba_
FNDA:51,_RNCNCNvNtNtCsblqRvDQyS7m_18boundline_adapters7fixture12fixture_impl17terms_include_any00B9_
FNDA:0,_RNCNCNvNtNtCsblqRvDQyS7m_18boundline_adapters7fixture12fixture_impl25build_adaptive_candidatess1_00B9_
FNDA:0,_RNCNCNvNtNtCsblqRvDQyS7m_18boundline_adapters7fixture12fixture_impl25build_adaptive_candidatess4_00B9_
FNDA:8,_RNCNCNvNtNtCsblqRvDQyS7m_18boundline_adapters7fixture12fixture_impl26review_effective_route_maps0_00B9_
FNDA:1,_RNCNCNvNtNtCsblqRvDQyS7m_18boundline_adapters7fixture12fixture_impl26snapshot_workspace_targets00B9_
FNDA:0,_RNCNCNvNtNtCsblqRvDQyS7m_18boundline_adapters7fixture12fixture_impl29load_workspace_target_sources00B9_
FNDA:0,_RNCNCNvNtNtCsblqRvDQyS7m_18boundline_adapters7fixture12fixture_impl30review_reviewer_ids_from_state00B9_
FNDA:0,_RNCNCNvNtNtCsblqRvDQyS7m_18boundline_adapters7fixture12fixture_impl34build_fixture_runtime_from_profile00B9_
FNDA:2,_RNCNCNvNtNtCsblqRvDQyS7m_18boundline_adapters7fixture12fixture_impl38synthesize_goal_plan_execution_profile00B9_
FNDA:0,_RNCNCNvNtNtCsblqRvDQyS7m_18boundline_adapters7fixture12fixture_impl40adaptive_candidate_signatures_from_state00B9_
FNDA:1,_RNCNvMNtNtCsblqRvDQyS7m_18boundline_adapters7fixture12fixture_implNtB4_16WorkspaceFixture8validate0B8_
FNDA:179,_RNCNvNtNtCsblqRvDQyS7m_18boundline_adapters7fixture12fixture_impl14tokenize_terms0B7_
FNDA:36,_RNCNvNtNtCsblqRvDQyS7m_18boundline_adapters7fixture12fixture_impl14tokenize_termss_0B7_
FNDA:2,_RNCNvNtNtCsblqRvDQyS7m_18boundline_adapters7fixture12fixture_impl17execution_attempt0B7_
FNDA:1,_RNCNvNtNtCsblqRvDQyS7m_18boundline_adapters7fixture12fixture_impl17first_stable_line0B7_
FNDA:14,_RNCNvNtNtCsblqRvDQyS7m_18boundline_adapters7fixture12fixture_impl17terms_include_any0B7_
FNDA:4,_RNCNvNtNtCsblqRvDQyS7m_18boundline_adapters7fixture12fixture_impl19resolve_review_vote0B7_
FNDA:3,_RNCNvNtNtCsblqRvDQyS7m_18boundline_adapters7fixture12fixture_impl21active_review_trigger0B7_
FNDA:14,_RNCNvNtNtCsblqRvDQyS7m_18boundline_adapters7fixture12fixture_impl21active_review_triggers0_0B7_
FNDA:14,_RNCNvNtNtCsblqRvDQyS7m_18boundline_adapters7fixture12fixture_impl21active_review_triggers_0B7_
FNDA:2,_RNCNvNtNtCsblqRvDQyS7m_18boundline_adapters7fixture12fixture_impl21apply_fixture_patches0B7_
FNDA:1,_RNCNvNtNtCsblqRvDQyS7m_18boundline_adapters7fixture12fixture_impl21run_execution_command0B7_
FNDA:2,_RNCNvNtNtCsblqRvDQyS7m_18boundline_adapters7fixture12fixture_impl22infer_goal_plan_change0B7_
FNDA:0,_RNCNvNtNtCsblqRvDQyS7m_18boundline_adapters7fixture12fixture_impl22infer_goal_plan_changes0_0B7_
FNDA:0,_RNCNvNtNtCsblqRvDQyS7m_18boundline_adapters7fixture12fixture_impl22infer_goal_plan_changes_0B7_
FNDA:0,_RNCNvNtNtCsblqRvDQyS7m_18boundline_adapters7fixture12fixture_impl23apply_execution_attempt0B7_
FNDA:0,_RNCNvNtNtCsblqRvDQyS7m_18boundline_adapters7fixture12fixture_impl23apply_execution_attempts_0B7_
FNDA:2,_RNCNvNtNtCsblqRvDQyS7m_18boundline_adapters7fixture12fixture_impl24guidance_paths_from_text0B7_
FNDA:2,_RNCNvNtNtCsblqRvDQyS7m_18boundline_adapters7fixture12fixture_impl24guidance_paths_from_texts0_0B7_
FNDA:1,_RNCNvNtNtCsblqRvDQyS7m_18boundline_adapters7fixture12fixture_impl24guidance_paths_from_texts_0B7_
FNDA:3,_RNCNvNtNtCsblqRvDQyS7m_18boundline_adapters7fixture12fixture_impl24projection_route_entries0B7_
FNDA:1,_RNCNvNtNtCsblqRvDQyS7m_18boundline_adapters7fixture12fixture_impl24review_workspace_fixture0B7_
FNDA:17,_RNCNvNtNtCsblqRvDQyS7m_18boundline_adapters7fixture12fixture_impl24score_adaptive_candidate0B7_
FNDA:1,_RNCNvNtNtCsblqRvDQyS7m_18boundline_adapters7fixture12fixture_impl24verify_workspace_fixture0B7_
FNDA:0,_RNCNvNtNtCsblqRvDQyS7m_18boundline_adapters7fixture12fixture_impl24verify_workspace_fixtures_0B7_
FNDA:2,_RNCNvNtNtCsblqRvDQyS7m_18boundline_adapters7fixture12fixture_impl25adaptive_selection_reason0B7_
FNDA:1,_RNCNvNtNtCsblqRvDQyS7m_18boundline_adapters7fixture12fixture_impl25build_adaptive_candidates0B7_
FNDA:4,_RNCNvNtNtCsblqRvDQyS7m_18boundline_adapters7fixture12fixture_impl25build_adaptive_candidatess0_0B7_
FNDA:0,_RNCNvNtNtCsblqRvDQyS7m_18boundline_adapters7fixture12fixture_impl25build_adaptive_candidatess1_0B7_
FNDA:4,_RNCNvNtNtCsblqRvDQyS7m_18boundline_adapters7fixture12fixture_impl25build_adaptive_candidatess2_0B7_
FNDA:4,_RNCNvNtNtCsblqRvDQyS7m_18boundline_adapters7fixture12fixture_impl25build_adaptive_candidatess3_0B7_
FNDA:0,_RNCNvNtNtCsblqRvDQyS7m_18boundline_adapters7fixture12fixture_impl25build_adaptive_candidatess4_0B7_
FNDA:0,_RNCNvNtNtCsblqRvDQyS7m_18boundline_adapters7fixture12fixture_impl25build_adaptive_candidatess5_0B7_
FNDA:4,_RNCNvNtNtCsblqRvDQyS7m_18boundline_adapters7fixture12fixture_impl25build_adaptive_candidatess6_0B7_
FNDA:0,_RNCNvNtNtCsblqRvDQyS7m_18boundline_adapters7fixture12fixture_impl25build_adaptive_candidatess_0B7_
FNDA:0,_RNCNvNtNtCsblqRvDQyS7m_18boundline_adapters7fixture12fixture_impl25build_validation_guidance0B7_
FNDA:5,_RNCNvNtNtCsblqRvDQyS7m_18boundline_adapters7fixture12fixture_impl25finalize_workspace_review0B7_
FNDA:2,_RNCNvNtNtCsblqRvDQyS7m_18boundline_adapters7fixture12fixture_impl25finalize_workspace_reviews_0B7_
FNDA:0,_RNCNvNtNtCsblqRvDQyS7m_18boundline_adapters7fixture12fixture_impl26arithmetic_swap_candidates0B7_
FNDA:1,_RNCNvNtNtCsblqRvDQyS7m_18boundline_adapters7fixture12fixture_impl26review_effective_route_map0B7_
FNDA:8,_RNCNvNtNtCsblqRvDQyS7m_18boundline_adapters7fixture12fixture_impl26review_effective_route_maps0_0B7_
FNDA:2,_RNCNvNtNtCsblqRvDQyS7m_18boundline_adapters7fixture12fixture_impl26review_effective_route_maps_0B7_
FNDA:4,_RNCNvNtNtCsblqRvDQyS7m_18boundline_adapters7fixture12fixture_impl26review_findings_from_state0B7_
FNDA:6,_RNCNvNtNtCsblqRvDQyS7m_18boundline_adapters7fixture12fixture_impl26snapshot_workspace_targets0B7_
FNDA:12,_RNCNvNtNtCsblqRvDQyS7m_18boundline_adapters7fixture12fixture_impl27adaptive_changes_for_target0B7_
FNDA:0,_RNCNvNtNtCsblqRvDQyS7m_18boundline_adapters7fixture12fixture_impl27build_adaptive_replan_steps0B7_
FNDA:0,_RNCNvNtNtCsblqRvDQyS7m_18boundline_adapters7fixture12fixture_impl27build_adaptive_replan_stepss0_0B7_
FNDA:0,_RNCNvNtNtCsblqRvDQyS7m_18boundline_adapters7fixture12fixture_impl27build_adaptive_replan_stepss2_0B7_
FNDA:0,_RNCNvNtNtCsblqRvDQyS7m_18boundline_adapters7fixture12fixture_impl27build_adaptive_replan_stepss3_0B7_
FNDA:0,_RNCNvNtNtCsblqRvDQyS7m_18boundline_adapters7fixture12fixture_impl27build_adaptive_replan_stepss4_0B7_
FNDA:0,_RNCNvNtNtCsblqRvDQyS7m_18boundline_adapters7fixture12fixture_impl27build_adaptive_replan_stepss5_0B7_
FNDA:0,_RNCNvNtNtCsblqRvDQyS7m_18boundline_adapters7fixture12fixture_impl27build_adaptive_replan_stepss_0B7_
FNDA:4,_RNCNvNtNtCsblqRvDQyS7m_18boundline_adapters7fixture12fixture_impl29load_workspace_target_sources0B7_
FNDA:1,_RNCNvNtNtCsblqRvDQyS7m_18boundline_adapters7fixture12fixture_impl30build_review_steps_for_attempt0B7_
FNDA:2,_RNCNvNtNtCsblqRvDQyS7m_18boundline_adapters7fixture12fixture_impl30build_review_steps_for_attempts_0B7_
FNDA:7,_RNCNvNtNtCsblqRvDQyS7m_18boundline_adapters7fixture12fixture_impl30default_success_review_trigger0B7_
FNDA:0,_RNCNvNtNtCsblqRvDQyS7m_18boundline_adapters7fixture12fixture_impl30execution_attempt_from_request0B7_
FNDA:0,_RNCNvNtNtCsblqRvDQyS7m_18boundline_adapters7fixture12fixture_impl30resolve_supported_fixture_flow0B7_
FNDA:0,_RNCNvNtNtCsblqRvDQyS7m_18boundline_adapters7fixture12fixture_impl30review_participants_from_state0B7_
FNDA:0,_RNCNvNtNtCsblqRvDQyS7m_18boundline_adapters7fixture12fixture_impl30review_reviewer_ids_from_state0B7_
FNDA:4,_RNCNvNtNtCsblqRvDQyS7m_18boundline_adapters7fixture12fixture_impl31routing_projection_from_request0B7_
FNDA:0,_RNCNvNtNtCsblqRvDQyS7m_18boundline_adapters7fixture12fixture_impl32load_workspace_execution_profile0B7_
FNDA:1,_RNCNvNtNtCsblqRvDQyS7m_18boundline_adapters7fixture12fixture_impl32load_workspace_execution_profiles_0B7_
FNDA:0,_RNCNvNtNtCsblqRvDQyS7m_18boundline_adapters7fixture12fixture_impl33latest_workspace_slice_from_state0B7_
FNDA:0,_RNCNvNtNtCsblqRvDQyS7m_18boundline_adapters7fixture12fixture_impl34build_fixture_runtime_from_profile0B7_
FNDA:2,_RNCNvNtNtCsblqRvDQyS7m_18boundline_adapters7fixture12fixture_impl34build_fixture_runtime_from_profiles0_0B7_
FNDA:0,_RNCNvNtNtCsblqRvDQyS7m_18boundline_adapters7fixture12fixture_impl34build_fixture_runtime_from_profiles1_0B7_
FNDA:0,_RNCNvNtNtCsblqRvDQyS7m_18boundline_adapters7fixture12fixture_impl34build_fixture_runtime_from_profiles2_0B7_
FNDA:0,_RNCNvNtNtCsblqRvDQyS7m_18boundline_adapters7fixture12fixture_impl34build_fixture_runtime_from_profiles3_0B7_
FNDA:0,_RNCNvNtNtCsblqRvDQyS7m_18boundline_adapters7fixture12fixture_impl34build_fixture_runtime_from_profiles4_0B7_
FNDA:0,_RNCNvNtNtCsblqRvDQyS7m_18boundline_adapters7fixture12fixture_impl34build_fixture_runtime_from_profiles5_0B7_
FNDA:0,_RNCNvNtNtCsblqRvDQyS7m_18boundline_adapters7fixture12fixture_impl34build_fixture_runtime_from_profiles6_0B7_
FNDA:0,_RNCNvNtNtCsblqRvDQyS7m_18boundline_adapters7fixture12fixture_impl34build_fixture_runtime_from_profiles_0B7_
FNDA:2,_RNCNvNtNtCsblqRvDQyS7m_18boundline_adapters7fixture12fixture_impl38synthesize_goal_plan_execution_profile0B7_
FNDA:1,_RNCNvNtNtCsblqRvDQyS7m_18boundline_adapters7fixture12fixture_impl38synthesize_goal_plan_execution_profiles0_0B7_
FNDA:2,_RNCNvNtNtCsblqRvDQyS7m_18boundline_adapters7fixture12fixture_impl38synthesize_goal_plan_execution_profiles_0B7_
FNDA:0,_RNCNvNtNtCsblqRvDQyS7m_18boundline_adapters7fixture12fixture_impl40adaptive_candidate_signatures_from_state0B7_
FNDA:2,_RINvNtNtCsgV4MOW29Zwc_18boundline_adapters7fixture12fixture_impl18build_task_requestReB1k_ECsy8NdhUIsqy_4unit
FNDA:1,_RNCINvNtNtCsgV4MOW29Zwc_18boundline_adapters7fixture12fixture_impl18build_task_requestReB1m_E0Csy8NdhUIsqy_4unit
FNDA:0,_RNCNCINvNtNtCsgV4MOW29Zwc_18boundline_adapters7fixture12fixture_impl18build_task_requestReB1o_E00Csy8NdhUIsqy_4unit
FNF:259
FNH:232
DA:113,5
DA:114,5
DA:115,1
DA:116,4
DA:118,4
DA:119,1
DA:120,3
DA:122,3
DA:123,1
DA:124,2
DA:126,2
DA:127,2
DA:128,2
DA:130,1
DA:131,1
DA:134,1
DA:135,5
DA:153,4
DA:154,4
DA:155,1
DA:156,3
DA:158,3
DA:159,1
DA:160,2
DA:162,2
DA:163,1
DA:164,1
DA:166,1
DA:167,4
DA:170,112
DA:171,112
DA:172,112
DA:174,107
DA:175,107
DA:176,107
DA:177,107
DA:178,107
DA:179,16
DA:180,91
DA:182,91
DA:183,0
DA:184,0
DA:185,88
DA:186,91
DA:187,3
DA:188,3
DA:189,88
DA:190,88
DA:191,107
DA:193,1
DA:194,1
DA:195,1
DA:197,1
DA:198,1
DA:199,1
DA:200,1
DA:201,1
DA:202,1
DA:204,13
DA:205,13
DA:206,13
DA:207,13
DA:208,13
DA:209,13
DA:211,13
DA:212,4
DA:213,9
DA:215,9
DA:216,13
DA:218,11
DA:219,11
DA:220,11
DA:221,11
DA:222,11
DA:223,11
DA:224,11
DA:225,11
DA:226,11
DA:227,11
DA:228,11
DA:229,11
DA:230,11
DA:231,11
DA:233,11
DA:234,11
DA:235,11
DA:236,11
DA:238,11
DA:239,6
DA:240,0
DA:241,0
DA:242,0
DA:243,0
DA:244,0
DA:246,0
DA:247,6
DA:249,11
DA:250,5
DA:251,5
DA:252,5
DA:253,5
DA:254,5
DA:255,5
DA:256,6
DA:258,11
DA:259,0
DA:260,0
DA:261,0
DA:262,0
DA:263,0
DA:265,0
DA:266,0
DA:267,0
DA:268,0
DA:269,0
DA:270,0
DA:271,0
DA:272,0
DA:273,0
DA:275,0
DA:276,0
DA:277,0
DA:278,0
DA:279,0
DA:280,0
DA:281,0
DA:282,0
DA:283,0
DA:284,0
DA:285,0
DA:286,0
DA:287,0
DA:288,0
DA:289,0
DA:290,0
DA:291,0
DA:292,0
DA:293,0
DA:294,0
DA:295,0
DA:296,0
DA:297,0
DA:298,0
DA:299,0
DA:300,0
DA:301,0
DA:302,0
DA:303,0
DA:304,0
DA:305,0
DA:306,0
DA:307,11
DA:309,11
DA:310,11
DA:311,11
DA:312,11
DA:313,11
DA:314,11
DA:315,11
DA:316,11
DA:317,11
DA:319,11
DA:320,11
DA:321,11
DA:322,11
DA:323,11
DA:324,11
DA:325,11
DA:326,11
DA:327,11
DA:328,11
DA:329,11
DA:330,11
DA:331,11
DA:332,11
DA:334,11
DA:335,11
DA:336,11
DA:337,11
DA:339,11
DA:340,11
DA:341,11
DA:342,11
DA:344,11
DA:345,11
DA:346,11
DA:347,11
DA:349,11
DA:350,11
DA:352,2
DA:353,2
DA:354,2
DA:356,18
DA:357,18
DA:358,18
DA:359,18
DA:360,18
DA:361,18
DA:362,18
DA:364,5
DA:365,5
DA:366,5
DA:367,5
DA:368,5
DA:369,5
DA:370,5
DA:372,23
DA:373,23
DA:374,23
DA:375,23
DA:376,23
DA:377,23
DA:378,23
DA:379,1
DA:381,1
DA:382,1
DA:383,1
DA:384,0
DA:385,0
DA:386,0
DA:387,0
DA:388,0
DA:389,0
DA:391,0
DA:392,0
DA:395,1
DA:396,1
DA:397,1
DA:398,1
DA:399,1
DA:400,1
DA:401,1
DA:402,1
DA:403,1
DA:404,1
DA:405,1
DA:407,1
DA:411,22
DA:412,22
DA:413,22
DA:417,23
DA:418,23
DA:419,23
DA:420,23
DA:421,23
DA:422,6
DA:423,6
DA:424,0
DA:425,23
DA:426,23
DA:427,23
DA:428,23
DA:429,5
DA:430,5
DA:431,0
DA:432,23
DA:433,23
DA:434,23
DA:435,0
DA:437,23
DA:438,23
DA:439,23
DA:440,23
DA:441,23
DA:442,3
DA:443,3
DA:444,0
DA:445,23
DA:446,23
DA:447,0
DA:448,0
DA:450,0
DA:451,0
DA:452,23
DA:453,23
DA:454,23
DA:455,0
DA:456,23
DA:457,23
DA:458,23
DA:459,0
DA:461,23
DA:462,23
DA:464,5
DA:465,5
DA:466,5
DA:467,5
DA:468,5
DA:469,4
DA:470,4
DA:471,4
DA:472,4
DA:474,1
DA:477,5
DA:478,5
DA:479,5
DA:480,5
DA:481,11
DA:482,11
DA:483,11
DA:484,0
DA:485,11
DA:486,11
DA:487,11
DA:488,11
DA:489,5
DA:490,5
DA:491,0
DA:492,5
DA:493,5
DA:494,10
DA:495,4
DA:496,4
DA:497,4
DA:499,5
DA:500,5
DA:501,5
DA:502,5
DA:503,5
DA:504,5
DA:505,5
DA:506,5
DA:507,5
DA:508,5
DA:509,5
DA:510,5
DA:511,5
DA:512,5
DA:513,5
DA:514,5
DA:515,5
DA:517,5
DA:518,5
DA:519,5
DA:520,5
DA:521,5
DA:522,5
DA:523,0
DA:524,5
DA:525,5
DA:526,5
DA:527,0
DA:528,5
DA:530,5
DA:531,5
DA:532,5
DA:533,4
DA:534,4
DA:535,4
DA:536,4
DA:537,4
DA:538,1
DA:539,1
DA:540,0
DA:541,0
DA:542,0
DA:543,0
DA:544,0
DA:545,1
DA:546,1
DA:547,1
DA:548,1
DA:549,1
DA:550,1
DA:551,1
DA:552,0
DA:555,0
DA:556,0
DA:557,0
DA:558,0
DA:559,0
DA:560,0
DA:561,0
DA:562,0
DA:563,0
DA:564,0
DA:565,0
DA:566,0
DA:568,0
DA:569,0
DA:570,0
DA:571,0
DA:572,5
DA:574,1
DA:575,1
DA:576,1
DA:578,17
DA:579,17
DA:580,17
DA:581,17
DA:584,17
DA:585,0
DA:586,0
DA:587,0
DA:588,17
DA:590,37
DA:591,37
DA:592,37
DA:593,37
DA:594,37
DA:595,37
DA:596,21
DA:597,21
DA:598,21
DA:601,16
DA:602,16
DA:603,13
DA:604,13
DA:605,13
DA:608,13
DA:609,0
DA:610,13
DA:613,13
DA:614,13
DA:615,13
DA:616,13
DA:617,13
DA:618,13
DA:619,13
DA:621,0
DA:622,13
DA:624,0
DA:625,0
DA:626,13
DA:629,13
DA:630,13
DA:631,13
DA:632,13
DA:633,13
DA:634,13
DA:636,0
DA:637,13
DA:639,0
DA:640,0
DA:643,3
DA:644,1
DA:645,1
DA:646,1
DA:649,1
DA:650,0
DA:651,1
DA:654,1
DA:655,1
DA:656,1
DA:658,0
DA:659,0
DA:660,1
DA:663,1
DA:664,1
DA:665,1
DA:667,0
DA:668,0
DA:671,2
DA:672,1
DA:673,1
DA:674,1
DA:677,1
DA:678,0
DA:679,1
DA:681,1
DA:682,1
DA:683,1
DA:684,1
DA:686,1
DA:688,0
DA:689,0
DA:690,1
DA:692,1
DA:693,1
DA:694,1
DA:695,1
DA:697,1
DA:699,0
DA:700,0
DA:701,1
DA:704,1
DA:705,1
DA:706,1
DA:707,1
DA:708,1
DA:709,0
DA:710,1
DA:712,0
DA:713,0
DA:714,1
DA:717,1
DA:718,1
DA:719,1
DA:720,1
DA:721,1
DA:722,0
DA:723,1
DA:725,0
DA:726,0
DA:729,1
DA:730,1
DA:731,1
DA:732,1
DA:733,1
DA:737,15
DA:739,15
DA:740,37
DA:742,22
DA:743,22
DA:744,22
DA:745,22
DA:746,22
DA:747,22
DA:748,6
DA:750,22
DA:751,22
DA:753,8
DA:754,8
DA:755,8
DA:756,8
DA:757,8
DA:758,8
DA:759,8
DA:760,8
DA:761,8
DA:762,8
DA:763,8
DA:764,8
DA:765,8
DA:766,8
DA:767,8
DA:768,8
DA:769,8
DA:770,1
DA:771,7
DA:772,7
DA:773,0
DA:776,7
DA:777,4
DA:780,4
DA:781,0
DA:782,4
DA:783,4
DA:786,3
DA:787,3
DA:788,0
DA:789,0
DA:791,0
DA:792,0
DA:793,0
DA:796,0
DA:797,0
DA:798,0
DA:800,0
DA:801,0
DA:802,0
DA:805,0
DA:806,0
DA:807,0
DA:808,0
DA:809,0
DA:810,0
DA:811,0
DA:814,0
DA:816,0
DA:817,0
DA:818,0
DA:821,0
DA:822,0
DA:823,0
DA:825,0
DA:826,0
DA:829,3
DA:830,1
DA:831,1
DA:833,0
DA:834,1
DA:835,1
DA:838,1
DA:839,1
DA:840,1
DA:842,0
DA:843,0
DA:844,1
DA:847,1
DA:848,1
DA:849,1
DA:850,1
DA:851,1
DA:853,1
DA:855,0
DA:856,0
DA:857,1
DA:860,1
DA:861,1
DA:862,1
DA:864,0
DA:865,0
DA:868,2
DA:869,1
DA:870,1
DA:872,0
DA:873,1
DA:874,1
DA:877,1
DA:878,1
DA:879,1
DA:881,0
DA:882,0
DA:883,1
DA:885,1
DA:886,1
DA:887,1
DA:888,1
DA:890,1
DA:892,0
DA:893,0
DA:894,1
DA:896,1
DA:897,1
DA:898,1
DA:899,1
DA:901,1
DA:903,0
DA:904,0
DA:905,1
DA:908,1
DA:909,1
DA:910,1
DA:911,1
DA:912,1
DA:914,1
DA:916,0
DA:917,0
DA:918,1
DA:921,1
DA:922,1
DA:923,1
DA:924,1
DA:925,1
DA:927,1
DA:929,0
DA:930,0
DA:933,1
DA:934,1
DA:935,1
DA:936,1
DA:937,1
DA:941,2
DA:942,2
DA:943,2
DA:944,2
DA:945,0
DA:947,2
DA:948,8
DA:950,1
DA:951,1
DA:952,1
DA:953,1
DA:954,1
DA:955,1
DA:956,1
DA:957,1
DA:958,1
DA:959,1
DA:960,1
DA:961,1
DA:962,1
DA:963,1
DA:964,0
DA:965,0
DA:966,1
DA:967,1
DA:968,1
DA:969,1
DA:970,1
DA:971,1
DA:972,1
DA:974,1
DA:975,0
DA:976,1
DA:977,1
DA:978,1
DA:979,1
DA:980,1
DA:982,1
DA:983,1
DA:984,1
DA:985,1
DA:986,1
DA:987,1
DA:988,1
DA:989,1
DA:990,1
DA:991,1
DA:992,1
DA:994,1
DA:995,1
DA:996,1
DA:997,0
DA:998,0
DA:999,0
DA:1002,1
DA:1003,1
DA:1004,1
DA:1006,10
DA:1007,10
DA:1008,10
DA:1009,10
DA:1010,10
DA:1011,10
DA:1012,10
DA:1013,1
DA:1014,1
DA:1015,9
DA:1016,9
DA:1017,9
DA:1018,9
DA:1019,9
DA:1020,9
DA:1021,9
DA:1022,9
DA:1024,9
DA:1025,9
DA:1026,9
DA:1027,16
DA:1028,16
DA:1029,16
DA:1030,16
DA:1031,16
DA:1032,16
DA:1033,16
DA:1035,16
DA:1036,9
DA:1037,9
DA:1038,7
DA:1039,7
DA:1041,9
DA:1042,9
DA:1043,14
DA:1044,14
DA:1045,5
DA:1046,9
DA:1048,10
DA:1049,0
DA:1052,9
DA:1053,0
DA:1054,9
DA:1056,9
DA:1059,9
DA:1060,9
DA:1061,9
DA:1062,9
DA:1063,9
DA:1064,17
DA:1065,17
DA:1066,17
DA:1067,0
DA:1068,17
DA:1070,17
DA:1071,0
DA:1072,17
DA:1074,17
DA:1075,17
DA:1076,17
DA:1077,17
DA:1078,17
DA:1079,17
DA:1080,17
DA:1081,17
DA:1082,17
DA:1083,17
DA:1084,17
DA:1085,17
DA:1086,17
DA:1087,17
DA:1088,17
DA:1089,17
DA:1093,9
DA:1094,8
DA:1095,8
DA:1097,9
DA:1098,3
DA:1099,8
DA:1101,9
DA:1102,0
DA:1103,9
DA:1105,9
DA:1107,9
DA:1108,9
DA:1109,9
DA:1110,17
DA:1111,17
DA:1112,17
DA:1113,17
DA:1114,17
DA:1115,17
DA:1116,17
DA:1117,17
DA:1118,17
DA:1119,17
DA:1120,17
DA:1121,17
DA:1122,17
DA:1123,17
DA:1124,17
DA:1125,17
DA:1126,17
DA:1127,17
DA:1128,17
DA:1129,17
DA:1130,17
DA:1131,17
DA:1132,17
DA:1133,17
DA:1134,17
DA:1135,17
DA:1136,17
DA:1137,17
DA:1138,17
DA:1139,17
DA:1140,17
DA:1141,17
DA:1142,17
DA:1143,17
DA:1144,17
DA:1145,17
DA:1146,17
DA:1148,17
DA:1150,17
DA:1151,17
DA:1153,17
DA:1154,8
DA:1156,9
DA:1158,17
DA:1160,17
DA:1161,17
DA:1162,17
DA:1163,17
DA:1164,17
DA:1165,17
DA:1166,17
DA:1167,17
DA:1168,17
DA:1170,17
DA:1171,17
DA:1172,17
DA:1173,17
DA:1174,17
DA:1175,17
DA:1176,17
DA:1177,17
DA:1178,9
DA:1179,10
DA:1181,7
DA:1182,7
DA:1183,7
DA:1184,7
DA:1185,7
DA:1186,7
DA:1187,1
DA:1191,1
DA:1196,1
DA:1197,1
DA:1198,1
DA:1200,1
DA:1201,1
DA:1202,1
DA:1203,1
DA:1204,1
DA:1205,1
DA:1208,1
DA:1210,0
DA:1211,1
DA:1212,1
DA:1214,1
DA:1215,1
DA:1216,1
DA:1217,1
DA:1218,1
DA:1219,1
DA:1222,1
DA:1224,0
DA:1226,1
DA:1227,1
DA:1228,1
DA:1229,1
DA:1230,1
DA:1231,0
DA:1232,1
DA:1233,6
DA:1235,6
DA:1236,6
DA:1237,6
DA:1239,6
DA:1240,0
DA:1241,6
DA:1242,6
DA:1244,6
DA:1245,0
DA:1247,6
DA:1248,6
DA:1249,6
DA:1250,7
DA:1252,9
DA:1253,9
DA:1254,9
DA:1255,9
DA:1256,9
DA:1257,9
DA:1258,16
DA:1259,16
DA:1260,16
DA:1261,16
DA:1262,16
DA:1263,16
DA:1264,9
DA:1265,9
DA:1267,16
DA:1268,16
DA:1269,16
DA:1270,16
DA:1271,16
DA:1272,16
DA:1273,16
DA:1274,16
DA:1275,16
DA:1276,16
DA:1277,16
DA:1279,16
DA:1280,16
DA:1281,9
DA:1282,9
DA:1283,9
DA:1286,16
DA:1287,11
DA:1288,11
DA:1289,11
DA:1291,16
DA:1292,5
DA:1293,5
DA:1294,11
DA:1296,74
DA:1297,74
DA:1298,3
DA:1299,3
DA:1300,71
DA:1301,9
DA:1302,9
DA:1303,62
DA:1306,84
DA:1307,84
DA:1308,7
DA:1309,77
DA:1312,16
DA:1313,3
DA:1314,3
DA:1315,3
DA:1316,1
DA:1317,1
DA:1318,2
DA:1319,0
DA:1320,0
DA:1321,2
DA:1324,48
DA:1325,48
DA:1326,3
DA:1327,3
DA:1328,45
DA:1329,1
DA:1330,1
DA:1331,44
DA:1333,13
DA:1335,16
DA:1336,16
DA:1337,16
DA:1338,11
DA:1339,11
DA:1340,11
DA:1342,16
DA:1343,16
DA:1345,34
DA:1346,34
DA:1347,34
DA:1348,34
DA:1349,34
DA:1350,34
DA:1351,46
DA:1352,46
DA:1353,18
DA:1354,12
DA:1355,12
DA:1357,4
DA:1359,0
DA:1361,0
DA:1364,46
DA:1365,46
DA:1366,46
DA:1367,57
DA:1370,34
DA:1371,34
DA:1373,19
DA:1374,19
DA:1375,19
DA:1376,19
DA:1377,19
DA:1378,19
DA:1379,19
DA:1380,19
DA:1381,19
DA:1383,19
DA:1384,19
DA:1385,19
DA:1387,19
DA:1388,19
DA:1390,19
DA:1393,79
DA:1394,79
DA:1395,75
DA:1396,75
DA:1397,79
DA:1398,4
DA:1399,4
DA:1400,15
DA:1402,19
DA:1404,12
DA:1405,12
DA:1406,12
DA:1407,3
DA:1408,3
DA:1409,3
DA:1410,9
DA:1413,4
DA:1414,0
DA:1415,0
DA:1416,4
DA:1419,0
DA:1420,0
DA:1421,0
DA:1422,0
DA:1425,1
DA:1426,1
DA:1427,1
DA:1428,1
DA:1429,0
DA:1430,0
DA:1431,0
DA:1432,1
DA:1435,1
DA:1436,1
DA:1437,1
DA:1438,1
DA:1439,1
DA:1440,1
DA:1441,1
DA:1442,1
DA:1443,1
DA:1446,1
DA:1447,1
DA:1448,1
DA:1449,1
DA:1450,1
DA:1451,1
DA:1452,1
DA:1453,1
DA:1454,1
DA:1455,1
DA:1456,1
DA:1457,1
DA:1458,1
DA:1462,19
DA:1463,5
DA:1464,4
DA:1465,4
DA:1466,4
DA:1467,4
DA:1468,1
DA:1469,1
DA:1470,1
DA:1471,1
DA:1473,14
DA:1475,19
DA:1476,19
DA:1478,19
DA:1479,381
DA:1480,19
DA:1482,18
DA:1483,18
DA:1484,18
DA:1485,18
DA:1486,18
DA:1487,18
DA:1488,18
DA:1490,33
DA:1491,33
DA:1492,14
DA:1493,14
DA:1494,14
DA:1495,42
DA:1496,42
DA:1497,42
DA:1498,42
DA:1499,14
DA:1500,19
DA:1503,4
DA:1504,18
DA:1506,15
DA:1507,15
DA:1508,13
DA:1509,13
DA:1510,13
DA:1511,13
DA:1512,13
DA:1513,2
DA:1515,2
DA:1516,1
DA:1517,1
DA:1518,1
DA:1519,1
DA:1520,1
DA:1521,1
DA:1523,1
DA:1524,15
DA:1526,15
DA:1527,15
DA:1528,1
DA:1529,1
DA:1530,1
DA:1531,1
DA:1532,1
DA:1533,14
DA:1535,14
DA:1536,1
DA:1537,1
DA:1538,1
DA:1539,1
DA:1540,1
DA:1541,13
DA:1543,13
DA:1544,15
DA:1546,5
DA:1547,5
DA:1549,15
DA:1550,15
DA:1551,4
DA:1552,4
DA:1553,4
DA:1554,4
DA:1555,4
DA:1556,11
DA:1559,1
DA:1560,5
DA:1562,2
DA:1563,2
DA:1564,1
DA:1565,1
DA:1566,1
DA:1567,1
DA:1568,1
DA:1569,1
DA:1571,1
DA:1572,1
DA:1573,1
DA:1574,1
DA:1575,1
DA:1576,1
DA:1577,0
DA:1579,0
DA:1580,2
DA:1582,1
DA:1583,1
DA:1584,1
DA:1585,1
DA:1586,1
DA:1587,1
DA:1588,1
DA:1589,1
DA:1590,1
DA:1591,1
DA:1592,1
DA:1593,1
DA:1594,1
DA:1595,1
DA:1596,1
DA:1598,1
DA:1599,1
DA:1600,1
DA:1601,1
DA:1602,1
DA:1603,1
DA:1604,1
DA:1605,0
DA:1608,0
DA:1609,1
DA:1611,19
DA:1612,682
DA:1613,124
DA:1614,124
DA:1615,124
DA:1616,124
DA:1617,19
DA:1618,19
DA:1620,9
DA:1621,9
DA:1622,16
DA:1623,16
DA:1624,16
DA:1625,16
DA:1627,9
DA:1628,9
DA:1630,1
DA:1631,1
DA:1632,1
DA:1633,1
DA:1634,1
DA:1635,1
DA:1636,1
DA:1637,1
DA:1639,1
DA:1640,1
DA:1641,1
DA:1642,1
DA:1643,1
DA:1644,1
DA:1645,1
DA:1646,1
DA:1647,1
DA:1648,1
DA:1649,1
DA:1651,1
DA:1652,1
DA:1653,1
DA:1654,1
DA:1655,1
DA:1656,0
DA:1657,1
DA:1658,0
DA:1660,1
DA:1661,1
DA:1662,1
DA:1663,1
DA:1664,1
DA:1665,0
DA:1667,1
DA:1668,0
DA:1669,1
DA:1671,1
DA:1672,1
DA:1673,1
DA:1674,1
DA:1675,1
DA:1676,1
DA:1678,0
DA:1680,1
DA:1681,0
DA:1683,1
DA:1685,1
DA:1686,0
DA:1688,1
DA:1691,1
DA:1692,1
DA:1694,4
DA:1695,3
DA:1696,1
DA:1697,1
DA:1698,1
DA:1699,1
DA:1700,3
DA:1701,1
DA:1702,1
DA:1703,1
DA:1704,1
DA:1706,2
DA:1708,4
DA:1710,1
DA:1711,1
DA:1712,1
DA:1714,1
DA:1716,1
DA:1718,0
DA:1720,0
DA:1721,0
DA:1722,1
DA:1724,2
DA:1725,1
DA:1726,1
DA:1727,0
DA:1728,0
DA:1729,0
DA:1730,0
DA:1731,0
DA:1733,1
DA:1734,1
DA:1735,1
DA:1736,1
DA:1738,0
DA:1740,2
DA:1742,2
DA:1743,2
DA:1744,2
DA:1745,2
DA:1746,5
DA:1747,2
DA:1748,2
DA:1750,2
DA:1751,2
DA:1752,2
DA:1753,0
DA:1755,2
DA:1756,2
DA:1757,2
DA:1759,1
DA:1761,2
DA:1762,3
DA:1763,0
DA:1765,2
DA:1766,2
DA:1767,2
DA:1768,2
DA:1770,18
DA:1771,18
DA:1772,18
DA:1773,18
DA:1774,18
DA:1775,18
DA:1776,4
DA:1778,4
DA:1780,4
DA:1782,14
DA:1784,14
DA:1785,18
DA:1787,20
DA:1788,20
DA:1789,20
DA:1790,20
DA:1791,20
DA:1792,20
DA:1793,20
DA:1794,20
DA:1795,20
DA:1796,20
DA:1797,20
DA:1799,20
DA:1800,5
DA:1801,4
DA:1803,4
DA:1804,4
DA:1807,1
DA:1809,1
DA:1811,1
DA:1814,15
DA:1816,15
DA:1818,15
DA:1821,20
DA:1823,19
DA:1824,19
DA:1825,19
DA:1826,19
DA:1827,19
DA:1828,19
DA:1829,19
DA:1830,19
DA:1831,5
DA:1832,14
DA:1834,14
DA:1836,14
DA:1839,14
DA:1840,14
DA:1841,14
DA:1842,19
DA:1844,21
DA:1845,21
DA:1846,21
DA:1847,21
DA:1848,21
DA:1849,18
DA:1852,3
DA:1853,3
DA:1855,3
DA:1856,0
DA:1857,3
DA:1859,3
DA:1860,1
DA:1861,2
DA:1863,2
DA:1864,1
DA:1865,1
DA:1867,1
DA:1868,21
DA:1870,9
DA:1871,9
DA:1872,9
DA:1873,9
DA:1875,17
DA:1876,17
DA:1877,17
DA:1879,1
DA:1880,1
DA:1881,1
DA:1882,1
DA:1883,1
DA:1884,1
DA:1885,1
DA:1887,1
DA:1888,1
DA:1889,1
DA:1891,6
DA:1892,6
DA:1893,6
DA:1894,6
DA:1895,6
DA:1896,6
DA:1897,6
DA:1898,6
DA:1899,6
DA:1900,6
DA:1901,6
DA:1902,6
DA:1904,6
DA:1906,18
DA:1907,18
DA:1908,18
DA:1909,18
DA:1910,18
DA:1911,18
DA:1912,18
DA:1913,18
DA:1914,18
DA:1915,18
DA:1916,18
DA:1917,18
DA:1919,18
DA:1920,18
DA:1921,18
DA:1923,18
DA:1924,18
DA:1925,18
DA:1927,18
DA:1928,18
DA:1929,18
DA:1930,18
DA:1931,18
DA:1933,18
DA:1934,18
DA:1936,9
DA:1937,9
DA:1938,9
DA:1939,9
DA:1940,9
DA:1941,9
DA:1942,9
DA:1944,18
DA:1945,18
DA:1946,18
DA:1947,18
DA:1948,18
DA:1949,18
DA:1950,0
DA:1951,18
DA:1953,18
DA:1954,0
DA:1955,18
DA:1957,18
DA:1958,0
DA:1959,0
DA:1960,0
DA:1961,0
DA:1962,0
DA:1963,0
DA:1964,0
DA:1965,0
DA:1966,0
DA:1967,0
DA:1968,0
DA:1969,18
DA:1971,18
DA:1972,0
DA:1973,18
DA:1975,18
DA:1976,0
DA:1977,0
DA:1978,0
DA:1979,0
DA:1980,0
DA:1981,0
DA:1982,0
DA:1983,18
DA:1984,18
DA:1986,10
DA:1987,10
DA:1988,0
DA:1989,10
DA:1991,10
DA:1992,0
DA:1993,10
DA:1995,10
DA:1996,0
DA:1997,10
DA:1999,10
DA:2000,0
DA:2001,10
DA:2002,10
DA:2004,29
DA:2005,29
DA:2006,29
DA:2007,29
DA:2008,29
DA:2009,29
DA:2011,29
DA:2012,1
DA:2013,1
DA:2014,1
DA:2015,1
DA:2017,1
DA:2018,1
DA:2019,1
DA:2021,1
DA:2022,1
DA:2023,1
DA:2024,1
DA:2025,1
DA:2026,1
DA:2028,0
DA:2029,1
DA:2031,0
DA:2032,1
DA:2033,1
DA:2035,1
DA:2036,1
DA:2037,1
DA:2038,1
DA:2039,1
DA:2040,1
DA:2042,0
DA:2043,1
DA:2045,0
DA:2047,1
DA:2048,1
DA:2049,1
DA:2050,28
DA:2052,28
DA:2053,28
DA:2054,28
DA:2056,28
DA:2057,0
DA:2058,28
DA:2059,28
DA:2061,28
DA:2062,0
DA:2064,28
DA:2065,28
DA:2066,28
DA:2067,29
DA:2069,36
DA:2070,36
DA:2071,36
DA:2072,36
DA:2073,36
DA:2074,36
DA:2076,36
DA:2078,88
DA:2079,88
DA:2080,88
DA:2081,88
DA:2082,88
DA:2083,88
DA:2084,88
DA:2085,88
DA:2086,88
DA:2087,88
DA:2088,88
DA:2089,88
DA:2090,88
DA:2092,44
DA:2093,44
DA:2094,44
DA:2095,44
DA:2096,44
DA:2097,44
DA:2098,44
DA:2100,44
DA:2101,44
DA:2102,44
DA:2103,44
DA:2104,44
DA:2105,44
DA:2106,44
DA:2107,44
DA:2109,55
DA:2110,55
DA:2111,55
DA:2112,55
DA:2113,55
DA:2114,55
DA:2115,52
DA:2118,3
DA:2119,3
DA:2120,3
DA:2122,3
DA:2123,6
DA:2124,6
DA:2125,6
DA:2126,6
DA:2127,6
DA:2128,0
DA:2131,3
DA:2132,3
DA:2133,3
DA:2134,3
DA:2135,3
DA:2136,0
DA:2138,3
DA:2139,2
DA:2140,1
DA:2141,1
DA:2142,1
DA:2144,1
DA:2145,1
DA:2146,1
DA:2147,1
DA:2148,0
DA:2149,1
DA:2151,2
DA:2152,2
DA:2153,2
DA:2154,2
DA:2155,2
DA:2156,0
DA:2158,2
DA:2159,55
DA:2161,7
DA:2162,7
DA:2163,7
DA:2164,7
DA:2165,7
DA:2166,7
DA:2167,3
DA:2168,3
DA:2170,4
DA:2172,7
DA:2174,5
DA:2175,5
DA:2176,5
DA:2177,5
DA:2178,5
DA:2179,5
DA:2180,5
DA:2181,2
DA:2182,2
DA:2184,3
DA:2186,5
DA:2188,7
DA:2189,7
DA:2190,7
DA:2191,7
DA:2192,7
DA:2193,7
DA:2194,7
DA:2195,7
DA:2196,7
DA:2197,7
DA:2198,7
DA:2199,7
DA:2200,7
DA:2202,7
DA:2204,3
DA:2205,3
DA:2206,3
DA:2207,3
DA:2208,3
DA:2209,3
DA:2210,3
DA:2211,3
DA:2213,3
DA:2215,2
DA:2216,2
DA:2217,2
DA:2218,2
DA:2219,2
DA:2220,2
DA:2221,2
DA:2222,2
DA:2224,2
DA:2226,7
DA:2227,7
DA:2228,7
DA:2229,7
DA:2230,7
DA:2231,7
DA:2232,7
DA:2234,9
DA:2235,9
DA:2236,9
DA:2237,9
DA:2238,9
DA:2239,9
DA:2240,9
DA:2241,9
DA:2242,9
DA:2245,9
DA:2246,9
DA:2248,50
DA:2249,50
DA:2250,83
DA:2251,83
DA:2252,83
DA:2254,50
DA:2255,44
DA:2256,44
DA:2257,44
DA:2258,6
DA:2260,50
DA:2261,50
DA:2263,176
DA:2264,176
DA:2265,176
DA:2266,176
DA:2267,176
DA:2268,2
DA:2269,2
DA:2270,2
DA:2271,176
DA:2273,15
DA:2274,15
DA:2275,15
DA:2276,15
DA:2277,15
DA:2278,0
DA:2279,0
DA:2280,0
DA:2281,0
DA:2282,0
DA:2283,0
DA:2284,15
DA:2286,15
DA:2287,15
DA:2288,15
DA:2289,15
DA:2291,8
DA:2292,8
DA:2293,8
DA:2294,8
DA:2295,8
DA:2296,8
DA:2297,7
DA:2298,7
DA:2299,7
DA:2300,7
DA:2301,7
DA:2302,7
DA:2304,7
DA:2305,7
DA:2306,7
DA:2307,7
DA:2308,7
DA:2310,7
DA:2311,1
DA:2312,6
DA:2314,7
DA:2315,7
DA:2317,0
DA:2318,0
DA:2321,1
DA:2322,1
DA:2324,1
DA:2326,1
DA:2329,8
DA:2331,9
DA:2332,9
DA:2333,9
DA:2334,9
DA:2335,9
DA:2336,9
DA:2337,3
DA:2339,2
DA:2340,2
DA:2342,2
DA:2347,2
DA:2349,7
DA:2351,7
DA:2352,6
DA:2353,1
DA:2354,1
DA:2355,1
DA:2357,1
DA:2359,1
DA:2364,6
DA:2365,5
DA:2366,5
DA:2367,1
DA:2369,4
DA:2371,5
DA:2372,5
DA:2373,5
DA:2374,5
DA:2375,5
DA:2376,5
DA:2378,5
DA:2379,5
DA:2380,5
DA:2381,5
DA:2383,5
DA:2384,5
DA:2385,5
DA:2386,5
DA:2387,5
DA:2388,5
DA:2389,5
DA:2390,5
DA:2392,5
DA:2393,5
DA:2394,0
DA:2395,5
DA:2397,5
DA:2399,1
DA:2400,1
DA:2402,1
DA:2404,1
DA:2407,9
DA:2409,8
DA:2410,8
DA:2411,8
DA:2412,8
DA:2413,8
DA:2414,8
DA:2415,7
DA:2416,1
DA:2417,1
DA:2418,1
DA:2420,1
DA:2422,1
DA:2427,7
DA:2428,6
DA:2429,4
DA:2430,4
DA:2431,4
DA:2432,4
DA:2433,4
DA:2434,4
DA:2436,4
DA:2437,4
DA:2438,4
DA:2439,4
DA:2441,4
DA:2442,0
DA:2443,0
DA:2444,4
DA:2445,4
DA:2446,4
DA:2447,4
DA:2448,4
DA:2449,4
DA:2450,4
DA:2451,4
DA:2452,4
DA:2454,4
DA:2455,4
DA:2456,0
DA:2457,4
DA:2458,4
DA:2460,1
DA:2461,2
DA:2462,1
DA:2463,1
DA:2464,1
DA:2466,1
DA:2467,1
DA:2468,1
DA:2469,1
DA:2470,1
DA:2471,1
DA:2473,1
DA:2474,1
DA:2475,1
DA:2476,1
DA:2478,1
DA:2479,1
DA:2480,1
DA:2481,1
DA:2482,1
DA:2483,1
DA:2484,1
DA:2485,1
DA:2487,1
DA:2488,1
DA:2489,0
DA:2490,1
DA:2491,1
DA:2493,1
DA:2494,1
DA:2496,1
DA:2501,1
DA:2502,1
DA:2504,1
DA:2505,1
DA:2506,1
DA:2507,1
DA:2508,0
DA:2512,0
DA:2514,1
DA:2515,1
DA:2516,1
DA:2517,1
DA:2518,1
DA:2519,1
DA:2521,1
DA:2522,1
DA:2523,1
DA:2524,1
DA:2526,1
DA:2527,0
DA:2528,0
DA:2529,0
DA:2530,0
DA:2531,0
DA:2532,0
DA:2533,0
DA:2534,1
DA:2535,1
DA:2537,1
DA:2538,1
DA:2540,1
DA:2542,1
DA:2545,8
DA:2547,2
DA:2548,2
DA:2549,2
DA:2550,2
DA:2551,2
DA:2552,2
DA:2553,2
DA:2556,2
DA:2557,1
DA:2558,1
DA:2559,2
DA:2560,1
DA:2561,1
DA:2562,2
DA:2563,1
DA:2564,1
DA:2565,2
DA:2566,1
DA:2567,1
DA:2569,2
DA:2570,2
DA:2572,7
DA:2573,7
DA:2574,7
DA:2575,7
DA:2576,7
DA:2577,1
DA:2580,6
DA:2581,1
DA:2582,1
DA:2583,1
DA:2586,5
DA:2587,5
DA:2588,1
DA:2589,1
DA:2590,1
DA:2594,4
DA:2595,2
DA:2596,1
DA:2598,1
DA:2600,1
DA:2601,1
DA:2602,1
DA:2607,3
DA:2608,1
DA:2610,1
DA:2611,1
DA:2612,1
DA:2616,2
DA:2617,1
DA:2619,1
DA:2621,2
DA:2622,1
DA:2624,1
DA:2625,1
DA:2626,1
DA:2630,1
DA:2631,1
DA:2633,1
DA:2634,1
DA:2635,1
DA:2636,1
DA:2637,1
DA:2638,1
DA:2639,1
DA:2640,1
DA:2641,1
DA:2642,1
DA:2643,1
DA:2644,1
DA:2645,1
DA:2647,1
DA:2648,1
DA:2649,1
DA:2650,1
DA:2651,1
DA:2653,1
DA:2654,1
DA:2655,1
DA:2656,1
DA:2658,1
DA:2659,1
DA:2660,1
DA:2661,1
DA:2662,1
DA:2663,1
DA:2665,1
DA:2666,1
DA:2667,1
DA:2668,1
DA:2669,1
DA:2670,1
DA:2671,1
DA:2672,1
DA:2673,1
DA:2675,1
DA:2677,7
DA:2679,17
DA:2680,17
DA:2681,3
DA:2682,3
DA:2683,2
DA:2684,1
DA:2685,1
DA:2686,1
DA:2688,1
DA:2689,1
DA:2690,1
DA:2691,1
DA:2692,17
DA:2694,6
DA:2695,6
DA:2696,6
DA:2697,6
DA:2698,6
DA:2699,1
DA:2700,1
DA:2701,1
DA:2704,5
DA:2705,1
DA:2706,1
DA:2707,1
DA:2711,4
DA:2712,4
DA:2713,4
DA:2714,4
DA:2715,4
DA:2716,4
DA:2718,2
DA:2720,1
DA:2725,1
DA:2727,1
DA:2728,1
DA:2729,1
DA:2732,1
DA:2733,1
DA:2735,1
DA:2736,1
DA:2737,1
DA:2742,2
DA:2743,2
DA:2744,2
DA:2745,4
DA:2747,1
DA:2750,1
DA:2751,1
DA:2753,1
DA:2755,1
DA:2756,1
DA:2757,1
DA:2758,1
DA:2759,1
DA:2761,1
DA:2762,1
DA:2763,1
DA:2765,1
DA:2766,1
DA:2768,1
DA:2769,1
DA:2770,1
DA:2771,1
DA:2773,1
DA:2775,6
DA:2777,8
DA:2778,8
DA:2779,8
DA:2780,8
DA:2781,8
DA:2782,1
DA:2783,1
DA:2784,1
DA:2787,7
DA:2788,1
DA:2789,1
DA:2790,1
DA:2794,6
DA:2795,6
DA:2796,6
DA:2797,6
DA:2798,6
DA:2799,6
DA:2801,4
DA:2802,0
DA:2803,1
DA:2804,3
DA:2805,3
DA:2806,3
DA:2807,3
DA:2808,3
DA:2809,3
DA:2810,3
DA:2811,3
DA:2813,0
DA:2815,1
DA:2816,1
DA:2817,1
DA:2820,1
DA:2821,1
DA:2825,1
DA:2826,1
DA:2829,1
DA:2830,1
DA:2833,8
DA:2835,0
DA:2836,0
DA:2837,0
DA:2838,0
DA:2839,0
DA:2840,0
DA:2841,0
DA:2842,0
DA:2843,0
DA:2845,0
DA:2847,0
DA:2849,2
DA:2850,2
DA:2851,2
DA:2852,2
DA:2853,2
DA:2854,2
DA:2856,2
DA:2858,2
DA:2860,2
DA:2861,2
DA:2863,2
DA:2864,2
DA:2865,2
DA:2866,2
DA:2867,2
DA:2868,2
DA:2870,2
DA:2872,2
DA:2874,2
DA:2875,2
DA:2877,8
DA:2878,8
DA:2879,8
DA:2880,8
DA:2881,8
DA:2882,8
DA:2883,8
DA:2884,8
DA:2885,8
DA:2886,8
DA:2887,8
DA:2888,8
DA:2889,8
DA:2890,8
DA:2891,8
DA:2892,8
DA:2893,8
DA:2894,8
DA:2895,8
DA:2896,8
DA:2897,8
DA:2899,8
DA:2900,8
DA:2901,8
DA:2903,17
DA:2904,17
DA:2905,17
DA:2906,17
DA:2907,17
DA:2908,17
DA:2909,17
DA:2910,17
DA:2911,17
DA:2912,17
DA:2913,17
DA:2914,17
DA:2915,17
DA:2917,5
DA:2918,5
DA:2919,5
DA:2920,5
DA:2921,5
DA:2922,5
DA:2923,5
DA:2924,5
DA:2925,5
DA:2927,1
DA:2928,1
DA:2929,1
DA:2930,1
DA:2931,1
DA:2932,1
DA:2933,1
DA:2934,0
DA:2935,0
DA:2936,1
DA:2937,1
DA:2939,1
DA:2940,1
DA:2941,1
DA:2942,1
DA:2943,1
DA:2944,1
DA:2945,1
DA:2946,1
DA:2947,1
DA:2949,5
DA:2950,5
DA:2951,5
DA:2952,5
DA:2953,5
DA:2954,5
DA:2955,5
DA:2957,10
DA:2958,10
DA:2959,10
DA:2960,10
DA:2961,10
DA:2962,8
DA:2963,8
DA:2964,8
DA:2965,8
DA:2966,8
DA:2967,8
DA:2968,8
DA:2970,10
DA:2971,10
DA:2972,10
DA:2975,5
DA:2976,5
DA:2978,5
DA:2979,5
DA:2980,5
DA:2981,5
DA:2982,5
DA:2983,5
DA:2984,5
DA:2985,5
DA:2986,5
DA:2987,4
DA:2988,4
DA:2989,5
DA:2991,1
DA:2992,1
DA:2993,1
DA:2994,1
DA:2995,3
DA:2996,3
DA:2997,3
DA:2998,3
DA:2999,3
DA:3000,3
DA:3001,0
DA:3002,3
DA:3003,3
DA:3004,3
DA:3005,1
DA:3006,1
DA:3008,2
DA:3009,2
DA:3010,2
DA:3011,2
DA:3012,4
DA:3013,4
DA:3014,2
DA:3015,2
DA:3018,0
DA:3019,2
DA:3021,2
DA:3022,2
DA:3024,4
DA:3025,4
DA:3026,4
DA:3027,0
DA:3028,4
DA:3030,4
DA:3031,4
DA:3032,4
DA:3033,4
DA:3034,4
DA:3037,2
DA:3038,2
DA:3040,4
DA:3041,4
DA:3042,4
DA:3044,42
DA:3045,42
DA:3046,42
DA:3047,42
DA:3048,42
DA:3049,0
DA:3050,0
DA:3051,0
DA:3054,4
DA:3055,4
DA:3057,1
DA:3058,1
DA:3066,1
DA:3068,8
DA:3069,8
DA:3070,8
DA:3071,8
DA:3072,8
DA:3073,8
DA:3074,17
DA:3075,17
DA:3076,17
DA:3077,17
DA:3078,16
DA:3079,16
DA:3080,16
DA:3081,16
DA:3082,17
DA:3083,8
DA:3084,8
DA:3086,8
DA:3087,8
DA:3088,8
DA:3089,8
DA:3090,8
DA:3091,8
DA:3092,8
DA:3094,8
DA:3095,8
DA:3096,8
DA:3097,8
DA:3099,8
DA:3100,5
DA:3101,5
DA:3102,5
DA:3103,5
DA:3104,5
DA:3105,5
DA:3106,5
DA:3107,5
DA:3108,5
DA:3109,5
DA:3110,5
DA:3111,5
DA:3112,3
DA:3114,3
DA:3115,2
DA:3116,2
DA:3117,2
DA:3118,2
DA:3119,2
DA:3120,2
DA:3121,2
DA:3122,2
DA:3123,2
DA:3124,1
DA:3126,1
DA:3129,7
DA:3130,8
DA:3133,2
DA:3134,2
DA:3135,2
DA:3136,2
DA:3137,2
DA:3138,2
DA:3139,2
DA:3140,2
DA:3141,2
DA:3142,2
DA:3143,2
DA:3144,2
DA:3145,2
DA:3146,2
DA:3147,2
DA:3148,2
DA:3149,2
DA:3151,2
DA:3153,2
DA:3154,2
DA:3155,2
DA:3156,2
DA:3157,2
DA:3161,1
DA:3162,1
DA:3163,1
DA:3164,1
DA:3165,1
DA:3166,1
DA:3167,1
DA:3169,1
DA:3171,8
DA:3172,8
DA:3173,8
DA:3174,8
DA:3175,8
DA:3176,8
DA:3177,8
DA:3178,8
DA:3179,8
DA:3180,8
DA:3181,1
DA:3182,1
DA:3183,1
DA:3185,7
DA:3186,7
DA:3187,7
DA:3188,7
DA:3189,7
DA:3190,7
DA:3191,8
DA:3193,8
DA:3194,8
DA:3195,2
DA:3197,6
DA:3199,8
DA:3201,5
DA:3202,5
DA:3203,5
DA:3204,5
DA:3205,5
DA:3206,5
DA:3208,6
DA:3209,6
DA:3210,6
DA:3232,14
DA:3233,14
DA:3234,14
DA:3238,1
DA:3239,1
DA:3240,1
DA:3242,2
DA:3243,2
DA:3244,2
DA:3245,2
DA:3246,2
DA:3247,2
DA:3249,2
DA:3251,7
DA:3252,7
DA:3253,7
DA:3254,7
DA:3255,7
DA:3256,7
DA:3257,7
DA:3258,7
DA:3259,7
DA:3262,78
DA:3264,78
DA:3265,78
DA:3266,0
DA:3268,0
DA:3269,78
DA:3271,7
DA:3272,7
DA:3273,7
DA:3402,7
DA:3403,7
DA:3404,7
DA:3405,7
DA:3406,7
DA:3407,7
DA:3409,10
DA:3410,10
DA:3411,10
DA:3412,10
DA:3413,10
DA:3414,10
DA:3415,10
DA:3418,10
DA:3419,10
DA:3420,10
DA:3421,10
DA:3424,10
DA:3425,10
DA:3426,10
DA:3428,26
DA:3429,26
DA:3430,26
DA:3431,26
DA:3432,26
DA:3433,26
DA:3434,26
DA:3435,26
DA:3436,26
DA:3437,26
DA:3438,26
DA:3439,26
DA:3440,26
DA:3441,26
DA:3442,26
DA:3443,26
DA:3444,26
DA:3445,26
DA:3446,26
DA:3447,26
DA:3448,26
DA:3449,26
DA:3451,10
DA:3452,10
DA:3453,10
DA:3454,10
DA:3455,10
DA:3456,10
DA:3457,10
DA:3458,10
DA:3459,10
DA:3460,10
DA:3461,10
DA:3462,10
DA:3463,10
DA:3464,10
DA:3465,10
DA:3466,10
DA:3467,10
DA:3468,10
DA:3469,10
DA:3470,10
DA:3471,10
DA:3472,10
DA:3473,10
DA:3474,10
DA:3475,10
DA:3476,10
DA:3477,10
DA:3478,10
DA:3479,10
DA:3480,10
DA:3481,10
DA:3482,10
DA:3483,10
DA:3484,10
DA:3485,10
DA:3486,10
DA:3487,10
DA:3488,10
DA:3489,10
DA:3490,10
DA:3491,10
DA:3492,10
DA:3493,10
DA:3494,10
DA:3495,10
DA:3496,10
DA:3497,10
DA:3498,10
DA:3499,10
DA:3500,10
DA:3501,10
DA:3502,10
DA:3503,10
DA:3504,10
DA:3505,10
DA:3506,10
DA:3507,10
DA:3508,10
DA:3509,10
DA:3510,10
DA:3511,10
DA:3513,3
DA:3514,3
DA:3515,3
DA:3516,3
DA:3517,3
DA:3518,3
DA:3519,3
DA:3520,3
DA:3521,3
DA:3522,3
DA:3523,3
DA:3524,3
DA:3525,3
DA:3526,3
DA:3527,3
DA:3529,1
DA:3530,1
DA:3531,1
DA:3532,1
DA:3533,1
DA:3534,1
DA:3535,1
DA:3536,1
DA:3538,1
DA:3539,1
DA:3540,1
DA:3541,1
DA:3542,1
DA:3543,1
DA:3544,1
DA:3545,1
DA:3546,1
DA:3547,1
DA:3548,1
DA:3549,1
DA:3550,1
DA:3551,1
DA:3552,1
DA:3553,1
DA:3554,1
DA:3555,1
DA:3556,1
DA:3557,1
DA:3558,1
DA:3559,1
DA:3560,1
DA:3562,17
DA:3563,17
DA:3564,17
DA:3565,17
DA:3566,17
DA:3567,17
DA:3568,17
DA:3569,17
DA:3570,17
DA:3571,17
DA:3572,17
DA:3573,17
DA:3574,17
DA:3575,17
DA:3576,17
DA:3578,15
DA:3579,15
DA:3580,15
DA:3581,15
DA:3582,15
DA:3583,15
DA:3584,15
DA:3585,15
DA:3586,15
DA:3587,15
DA:3588,15
DA:3589,15
DA:3590,15
DA:3591,15
DA:3592,15
DA:3593,15
DA:3594,15
DA:3595,15
DA:3596,15
DA:3599,1
DA:3600,1
DA:3601,1
DA:3603,1
DA:3604,1
DA:3607,1
DA:3608,1
DA:3609,1
DA:3610,1
DA:3611,1
DA:3612,1
DA:3613,1
DA:3614,1
DA:3615,1
DA:3616,1
DA:3617,1
DA:3618,1
DA:3619,1
DA:3620,1
DA:3622,1
DA:3623,1
DA:3625,1
DA:3626,1
DA:3627,1
DA:3628,1
DA:3631,1
DA:3632,1
DA:3633,1
DA:3634,1
DA:3635,1
DA:3636,1
DA:3637,1
DA:3638,1
DA:3639,1
DA:3640,1
DA:3641,1
DA:3642,1
DA:3643,1
DA:3644,1
DA:3647,1
DA:3648,1
DA:3649,1
DA:3650,1
DA:3651,1
DA:3652,1
DA:3653,1
DA:3654,1
DA:3655,1
DA:3656,1
DA:3657,1
DA:3658,1
DA:3659,1
DA:3662,1
DA:3663,1
DA:3664,1
DA:3665,1
DA:3666,1
DA:3667,1
DA:3668,1
DA:3669,1
DA:3670,1
DA:3673,1
DA:3674,1
DA:3675,1
DA:3676,1
DA:3677,1
DA:3678,1
DA:3679,1
DA:3680,1
DA:3683,1
DA:3684,1
DA:3685,1
DA:3686,1
DA:3687,1
DA:3688,1
DA:3689,1
DA:3690,1
DA:3693,1
DA:3694,1
DA:3695,1
DA:3696,1
DA:3697,1
DA:3698,1
DA:3699,1
DA:3700,1
DA:3703,1
DA:3706,1
DA:3707,1
DA:3709,1
DA:3710,1
DA:3711,1
DA:3713,1
DA:3714,1
DA:3715,1
DA:3716,1
DA:3717,1
DA:3718,1
DA:3719,1
DA:3720,1
DA:3721,1
DA:3722,1
DA:3723,1
DA:3724,1
DA:3725,1
DA:3729,1
DA:3730,1
DA:3731,1
DA:3732,1
DA:3733,1
DA:3734,1
DA:3735,1
DA:3736,1
DA:3737,1
DA:3738,1
DA:3739,1
DA:3740,1
DA:3741,1
DA:3743,1
DA:3746,1
DA:3747,1
DA:3748,1
DA:3749,1
DA:3750,1
DA:3754,1
DA:3755,1
DA:3756,1
DA:3759,1
DA:3762,1
DA:3763,1
DA:3764,1
DA:3765,1
DA:3766,1
DA:3768,1
DA:3769,1
DA:3770,1
DA:3771,1
DA:3773,1
DA:3774,1
DA:3775,1
DA:3778,1
DA:3779,1
DA:3780,3
DA:3781,1
DA:3784,1
DA:3785,1
DA:3786,1
DA:3789,1
DA:3790,1
DA:3791,3
DA:3792,1
DA:3795,1
DA:3796,1
DA:3797,1
DA:3800,1
DA:3801,1
DA:3802,5
DA:3803,1
DA:3805,1
DA:3806,1
DA:3807,1
DA:3808,1
DA:3811,1
DA:3814,1
DA:3815,1
DA:3816,1
DA:3817,1
DA:3818,1
DA:3819,1
DA:3821,1
DA:3822,1
DA:3823,1
DA:3824,1
DA:3825,1
DA:3826,1
DA:3829,1
DA:3830,1
DA:3831,1
DA:3833,1
DA:3834,1
DA:3835,1
DA:3836,1
DA:3837,1
DA:3838,1
DA:3839,1
DA:3840,1
DA:3841,1
DA:3843,1
DA:3844,1
DA:3845,1
DA:3846,1
DA:3847,1
DA:3850,1
DA:3851,1
DA:3854,1
DA:3855,1
DA:3856,1
DA:3857,1
DA:3858,1
DA:3859,1
DA:3861,1
DA:3862,1
DA:3864,1
DA:3865,1
DA:3866,1
DA:3867,1
DA:3870,1
DA:3871,1
DA:3874,1
DA:3875,1
DA:3876,1
DA:3877,1
DA:3878,1
DA:3880,1
DA:3882,1
DA:3883,7
DA:3884,1
DA:3886,1
DA:3887,1
DA:3888,1
DA:3889,1
DA:3890,1
DA:3891,1
DA:3894,1
DA:3897,1
DA:3898,1
DA:3899,1
DA:3900,1
DA:3901,1
DA:3902,1
DA:3903,1
DA:3904,1
DA:3905,1
DA:3906,1
DA:3907,1
DA:3908,1
DA:3909,1
DA:3910,1
DA:3912,1
DA:3913,1
DA:3914,1
DA:3915,1
DA:3917,1
DA:3919,1
DA:3920,5
DA:3921,1
DA:3923,1
DA:3924,1
DA:3925,1
DA:3926,1
DA:3929,1
DA:3932,1
DA:3933,1
DA:3934,1
DA:3935,1
DA:3936,1
DA:3937,1
DA:3939,1
DA:3941,1
DA:3942,1
DA:3943,1
DA:3944,1
DA:3946,1
DA:3949,1
DA:3950,1
DA:3951,1
DA:3952,1
DA:3954,1
DA:3955,1
DA:3956,1
DA:3957,1
DA:3959,1
DA:3960,1
DA:3961,1
DA:3962,1
DA:3963,1
DA:3965,1
DA:3966,1
DA:3967,3
DA:3968,1
DA:3971,1
DA:3972,1
DA:3973,1
DA:3974,1
DA:3975,1
DA:3977,1
DA:3978,1
DA:3979,5
DA:3980,1
DA:3982,1
DA:3983,1
DA:3984,1
DA:3985,1
DA:3989,1
DA:3990,1
DA:3993,1
DA:3994,1
DA:3995,1
DA:3996,1
DA:3998,1
DA:3999,1
DA:4000,1
DA:4001,1
DA:4002,1
DA:4004,1
DA:4005,1
DA:4006,1
DA:4007,1
DA:4009,1
DA:4010,1
DA:4011,2
DA:4012,1
DA:4014,1
DA:4018,1
DA:4019,1
DA:4020,2
DA:4021,1
DA:4024,1
DA:4025,1
DA:4028,1
DA:4029,1
DA:4030,1
DA:4031,1
DA:4032,1
DA:4034,1
DA:4035,1
DA:4036,1
DA:4039,1
DA:4040,1
DA:4041,2
DA:4042,1
DA:4045,1
DA:4046,1
DA:4047,2
DA:4048,1
DA:4050,1
DA:4053,1
DA:4054,1
DA:4055,1
DA:4056,1
DA:4057,1
DA:4058,1
DA:4059,1
DA:4060,1
DA:4062,1
DA:4063,1
DA:4064,1
DA:4065,1
DA:4066,1
DA:4067,1
DA:4068,1
DA:4070,1
DA:4072,1
DA:4073,1
DA:4074,1
DA:4075,1
DA:4076,1
DA:4077,1
DA:4078,1
DA:4080,1
DA:4081,1
DA:4082,1
DA:4083,1
DA:4084,1
DA:4085,1
DA:4086,1
DA:4088,1
DA:4089,1
DA:4092,1
DA:4093,1
DA:4094,1
DA:4095,1
DA:4097,1
DA:4098,1
DA:4099,1
DA:4100,1
DA:4101,1
DA:4103,1
DA:4104,1
DA:4106,1
DA:4107,1
DA:4108,1
DA:4109,1
DA:4111,1
DA:4112,1
DA:4113,1
DA:4115,1
DA:4118,1
DA:4119,1
DA:4120,1
DA:4121,1
DA:4122,1
DA:4123,1
DA:4124,1
DA:4125,1
DA:4126,1
DA:4127,1
DA:4128,1
DA:4131,1
DA:4133,1
DA:4134,1
DA:4135,1
DA:4136,1
DA:4138,1
DA:4141,1
DA:4142,1
DA:4143,1
DA:4144,1
DA:4145,1
DA:4146,1
DA:4147,1
DA:4149,1
DA:4150,1
DA:4152,1
DA:4153,1
DA:4154,1
DA:4155,1
DA:4156,1
DA:4157,1
DA:4159,1
DA:4160,1
DA:4161,1
DA:4162,1
DA:4164,1
DA:4165,1
DA:4166,1
DA:4167,1
DA:4168,1
DA:4170,1
DA:4172,1
DA:4173,1
DA:4174,1
DA:4175,1
DA:4176,1
DA:4178,1
DA:4180,1
DA:4181,1
DA:4182,1
DA:4183,1
DA:4184,1
DA:4185,1
DA:4186,1
DA:4187,1
DA:4188,1
DA:4189,1
DA:4190,1
DA:4192,1
DA:4193,1
DA:4196,1
DA:4197,1
DA:4198,1
DA:4199,1
DA:4200,1
DA:4201,1
DA:4202,1
DA:4203,1
DA:4204,1
DA:4205,1
DA:4206,1
DA:4207,1
DA:4208,1
DA:4209,1
DA:4211,1
DA:4212,1
DA:4213,1
DA:4214,1
DA:4215,1
DA:4218,1
DA:4219,1
DA:4220,1
DA:4221,1
DA:4222,1
DA:4224,1
DA:4227,1
DA:4228,1
DA:4229,1
DA:4230,1
DA:4231,1
DA:4232,1
DA:4233,1
DA:4235,1
DA:4236,1
DA:4238,1
DA:4239,1
DA:4240,1
DA:4241,1
DA:4242,1
DA:4243,1
DA:4244,1
DA:4246,1
DA:4247,1
DA:4248,1
DA:4249,1
DA:4250,1
DA:4251,1
DA:4252,1
DA:4253,1
DA:4254,1
DA:4255,1
DA:4256,1
DA:4258,1
DA:4259,1
DA:4260,1
DA:4262,1
DA:4263,1
DA:4264,1
DA:4265,1
DA:4266,1
DA:4267,1
DA:4269,1
DA:4271,1
DA:4272,1
DA:4273,1
DA:4274,1
DA:4277,1
DA:4278,1
DA:4279,1
DA:4280,1
DA:4281,1
DA:4282,1
DA:4283,1
DA:4284,1
DA:4285,1
DA:4286,1
DA:4287,1
DA:4289,1
DA:4290,1
DA:4291,1
DA:4292,1
DA:4300,1
DA:4302,1
DA:4303,1
DA:4306,1
DA:4307,1
DA:4308,1
DA:4309,1
DA:4310,1
DA:4311,1
DA:4312,1
DA:4314,1
DA:4315,1
DA:4317,1
DA:4318,1
DA:4319,1
DA:4320,1
DA:4321,1
DA:4322,1
DA:4323,1
DA:4325,1
DA:4326,1
DA:4327,1
DA:4328,1
DA:4329,1
DA:4330,1
DA:4331,1
DA:4333,1
DA:4335,1
DA:4336,1
DA:4337,1
DA:4338,1
DA:4340,1
DA:4341,1
DA:4342,1
DA:4343,1
DA:4344,1
DA:4346,1
DA:4347,1
DA:4348,1
DA:4349,1
DA:4350,1
DA:4351,1
DA:4352,1
DA:4353,1
DA:4354,1
DA:4356,1
DA:4357,1
DA:4358,1
DA:4360,1
DA:4362,1
DA:4363,1
DA:4364,1
DA:4365,1
DA:4366,1
DA:4368,1
DA:4369,1
DA:4370,1
DA:4371,1
DA:4372,1
DA:4373,1
DA:4374,1
DA:4375,1
DA:4376,1
DA:4378,1
DA:4379,1
DA:4380,1
DA:4382,1
DA:4384,1
DA:4385,1
DA:4386,1
DA:4387,1
DA:4388,1
DA:4389,1
DA:4391,1
DA:4392,1
DA:4393,1
DA:4395,1
DA:4397,1
DA:4398,1
DA:4399,1
DA:4400,1
DA:4401,1
DA:4403,1
DA:4404,1
DA:4405,1
DA:4407,1
DA:4409,1
DA:4410,1
DA:4411,1
DA:4412,1
DA:4413,1
DA:4415,1
DA:4416,1
DA:4419,1
DA:4420,1
DA:4421,1
DA:4422,1
DA:4424,1
DA:4425,1
DA:4426,1
DA:4427,1
DA:4429,1
DA:4430,1
DA:4431,1
DA:4432,1
DA:4434,1
DA:4435,1
DA:4437,1
DA:4438,1
DA:4439,1
DA:4440,1
DA:4442,1
DA:4443,1
DA:4444,1
DA:4445,1
DA:4446,1
DA:4448,1
DA:4449,1
DA:4450,1
DA:4451,1
DA:4452,1
DA:4453,1
DA:4455,1
DA:4458,1
DA:4459,1
DA:4460,1
DA:4461,1
DA:4463,1
DA:4464,1
DA:4465,1
DA:4466,1
DA:4468,1
DA:4469,1
DA:4470,1
DA:4471,1
DA:4473,1
DA:4474,1
DA:4475,1
DA:4476,1
DA:4479,1
DA:4480,1
DA:4481,1
DA:4483,1
DA:4484,1
DA:4485,1
DA:4486,1
DA:4488,1
DA:4489,1
DA:4490,1
DA:4491,1
DA:4492,1
DA:4495,1
DA:4496,1
DA:4497,1
DA:4498,1
DA:4499,1
DA:4500,1
DA:4501,1
DA:4502,1
DA:4504,1
DA:4505,1
DA:4506,1
DA:4509,1
DA:4510,1
DA:4511,1
DA:4512,1
DA:4514,1
DA:4515,1
DA:4516,1
DA:4517,1
DA:4518,1
DA:4519,1
DA:4520,1
DA:4522,1
DA:4524,1
DA:4525,1
DA:4526,3
DA:4527,1
DA:4530,1
DA:4531,1
DA:4532,1
DA:4534,1
DA:4535,1
DA:4536,3
DA:4537,1
DA:4540,1
DA:4541,1
DA:4542,1
DA:4543,1
DA:4545,1
DA:4546,1
DA:4547,1
DA:4548,1
DA:4550,1
DA:4551,1
DA:4552,1
DA:4553,1
DA:4554,1
DA:4555,1
DA:4556,1
DA:4557,1
DA:4558,1
DA:4559,1
DA:4560,1
DA:4561,1
DA:4562,1
DA:4564,1
DA:4565,1
DA:4566,1
DA:4569,1
DA:4571,1
DA:4572,1
DA:4573,1
DA:4574,1
DA:4578,1
DA:4579,1
DA:4580,1
DA:4581,1
DA:4583,1
DA:4584,1
DA:4586,1
DA:4587,1
DA:4588,1
DA:4590,1
DA:4591,1
DA:4592,1
DA:4593,1
DA:4594,1
DA:4597,1
DA:4598,1
DA:4599,1
DA:4600,1
DA:4602,1
DA:4603,1
DA:4604,1
DA:4605,1
DA:4606,1
DA:4607,1
DA:4608,1
DA:4610,1
DA:4611,1
DA:4612,1
DA:4613,1
DA:4614,1
DA:4615,1
DA:4616,1
DA:4617,1
DA:4618,1
DA:4619,1
DA:4620,1
DA:4621,1
DA:4622,1
DA:4623,1
DA:4624,1
DA:4625,1
DA:4626,1
DA:4627,1
DA:4628,1
DA:4629,1
DA:4630,1
DA:4631,1
DA:4632,1
DA:4633,1
DA:4634,1
DA:4635,1
DA:4637,1
DA:4638,1
DA:4639,1
DA:4640,1
DA:4641,1
DA:4643,1
DA:4644,1
DA:4645,1
DA:4646,4
DA:4648,7
DA:4649,7
DA:4650,7
DA:4651,1
DA:4654,1
DA:4655,1
DA:4656,1
DA:4657,1
DA:4659,1
DA:4660,1
DA:4661,1
DA:4662,1
DA:4663,1
DA:4664,1
DA:4665,1
DA:4666,1
DA:4667,1
DA:4668,1
DA:4669,1
DA:4670,1
DA:4671,1
DA:4672,1
DA:4673,1
DA:4674,1
DA:4675,1
DA:4676,1
DA:4677,1
DA:4678,1
DA:4679,1
DA:4680,1
DA:4682,1
DA:4683,1
DA:4684,1
DA:4685,1
DA:4686,1
DA:4687,1
DA:4688,1
DA:4689,1
DA:4690,1
DA:4691,1
DA:4692,1
DA:4693,1
DA:4694,1
DA:4695,1
DA:4697,1
DA:4698,1
DA:4699,1
DA:4701,1
DA:4704,1
DA:4706,1
DA:4707,1
DA:4708,1
DA:4710,1
DA:4711,1
DA:4712,1
DA:4714,1
DA:4715,1
DA:4716,1
DA:4718,1
DA:4719,1
DA:4720,1
DA:4722,1
DA:4725,1
DA:4726,1
DA:4727,1
DA:4728,1
DA:4729,1
DA:4730,1
DA:4731,1
DA:4732,1
DA:4733,1
DA:4734,1
DA:4735,1
DA:4736,1
DA:4737,1
DA:4738,1
DA:4739,1
DA:4740,1
DA:4741,1
DA:4742,1
DA:4743,1
DA:4744,1
DA:4746,1
DA:4747,1
DA:4748,1
DA:4749,1
DA:4750,1
DA:4751,1
DA:4752,1
DA:4753,1
DA:4754,1
DA:4755,1
DA:4756,1
DA:4758,1
DA:4760,1
DA:4762,1
DA:4763,1
DA:4764,1
DA:4765,1
DA:4768,1
DA:4769,1
DA:4770,1
DA:4771,1
DA:4772,1
DA:4773,1
DA:4774,1
DA:4775,1
DA:4776,1
DA:4777,1
DA:4778,1
DA:4779,1
DA:4781,1
DA:4783,1
DA:4785,1
DA:4786,1
DA:4789,1
DA:4790,1
DA:4791,1
DA:4792,1
DA:4793,1
DA:4794,1
DA:4795,1
DA:4796,1
DA:4797,1
DA:4798,1
DA:4799,1
DA:4800,1
DA:4801,1
DA:4802,1
DA:4803,1
DA:4805,1
DA:4806,1
DA:4807,1
DA:4808,1
DA:4809,1
DA:4810,1
DA:4812,1
DA:4813,1
DA:4814,1
DA:4815,1
DA:4816,1
DA:4817,1
DA:4819,1
DA:4820,1
DA:4821,1
DA:4824,1
DA:4825,1
DA:4826,1
DA:4827,1
DA:4828,1
DA:4833,1
DA:4834,1
DA:4835,1
DA:4837,1
DA:4838,1
DA:4840,1
DA:4841,1
DA:4843,1
DA:4844,1
DA:4845,1
DA:4847,1
DA:4848,1
DA:4849,1
DA:4850,1
DA:4851,1
DA:4853,1
DA:4854,1
DA:4856,1
DA:4857,1
DA:4858,1
DA:4860,1
DA:4861,1
DA:4863,1
DA:4864,1
DA:4867,1
DA:4868,1
DA:4869,1
DA:4870,1
DA:4871,1
DA:4874,1
DA:4875,1
DA:4876,1
DA:4877,1
DA:4878,1
DA:4879,1
DA:4880,1
DA:4881,1
DA:4882,1
DA:4883,1
DA:4884,1
DA:4885,1
DA:4886,1
DA:4887,1
DA:4888,1
DA:4889,1
DA:4890,1
DA:4891,1
DA:4893,1
DA:4894,1
DA:4896,1
DA:4897,1
DA:4899,1
DA:4901,1
DA:4902,1
DA:4903,1
DA:4906,1
DA:4907,1
DA:4908,1
DA:4911,1
DA:4912,1
DA:4913,1
DA:4914,1
DA:4915,1
DA:4916,1
DA:4917,1
DA:4920,1
DA:4921,1
DA:4924,1
DA:4925,1
DA:4929,1
DA:4930,1
DA:4931,1
DA:4932,1
DA:4933,1
DA:4934,1
DA:4935,1
DA:4936,1
DA:4937,1
DA:4938,1
DA:4939,1
DA:4940,1
DA:4941,1
DA:4942,1
DA:4943,1
DA:4944,1
DA:4945,1
DA:4946,1
DA:4947,1
DA:4948,1
DA:4949,1
DA:4950,1
DA:4951,1
DA:4952,1
DA:4953,1
DA:4954,1
DA:4955,1
DA:4958,1
DA:4959,1
DA:4960,1
DA:4962,1
DA:4963,1
DA:4964,1
DA:4965,1
DA:4968,1
DA:4969,1
DA:4970,1
DA:4971,1
DA:4972,1
DA:4974,1
DA:4975,1
DA:4976,1
DA:4977,1
DA:4979,1
DA:4980,1
DA:4981,1
DA:4982,1
DA:4984,1
DA:4985,1
DA:4986,1
DA:4987,1
DA:4989,1
DA:4990,1
DA:4991,1
DA:4992,1
DA:4993,1
DA:4994,1
DA:4995,1
DA:4996,1
DA:4997,1
DA:4998,1
DA:4999,1
DA:5000,1
DA:5001,1
DA:5002,1
DA:5003,1
DA:5004,1
DA:5005,1
DA:5006,1
DA:5007,1
DA:5009,1
DA:5010,1
DA:5011,1
DA:5012,1
DA:5013,1
DA:5014,1
DA:5015,1
DA:5016,1
DA:5017,1
DA:5018,1
DA:5019,1
DA:5020,1
DA:5021,3
DA:5022,1
DA:5023,1
DA:5024,1
DA:5025,4
DA:5028,1
DA:5029,1
DA:5030,1
DA:5031,1
DA:5032,1
DA:5033,1
DA:5034,1
DA:5035,1
DA:5036,1
DA:5037,1
DA:5038,1
DA:5039,1
DA:5040,1
DA:5041,1
DA:5042,1
DA:5043,3
DA:5045,4
DA:5046,5
DA:5047,6
DA:5048,6
DA:5049,6
DA:5050,1
BRF:0
BRH:0
LF:3885
LH:3530
end_of_record
SF:/Users/rt/workspace/apply-the/boundline/crates/boundline-adapters/src/../../../src/orchestrator/decision_loop.rs
FN:441,_RNCNvMNtNtCsgV4MOW29Zwc_18boundline_adapters12orchestrator13decision_loopINtB4_12DecisionLoopNtNtNtB8_8adapters11trace_store14FileTraceStoreE15dispatch_action0B8_
FN:446,_RNCNvMNtNtCsgV4MOW29Zwc_18boundline_adapters12orchestrator13decision_loopINtB4_12DecisionLoopNtNtNtB8_8adapters11trace_store14FileTraceStoreE15dispatch_actions0_0B8_
FN:447,_RNCNvMNtNtCsgV4MOW29Zwc_18boundline_adapters12orchestrator13decision_loopINtB4_12DecisionLoopNtNtNtB8_8adapters11trace_store14FileTraceStoreE15dispatch_actions1_0B8_
FN:442,_RNCNvMNtNtCsgV4MOW29Zwc_18boundline_adapters12orchestrator13decision_loopINtB4_12DecisionLoopNtNtNtB8_8adapters11trace_store14FileTraceStoreE15dispatch_actions_0B8_
FN:219,_RNCNvMNtNtCsgV4MOW29Zwc_18boundline_adapters12orchestrator13decision_loopINtB4_12DecisionLoopNtNtNtB8_8adapters11trace_store14FileTraceStoreE16run_with_options0B8_
FN:235,_RNCNvMNtNtCsgV4MOW29Zwc_18boundline_adapters12orchestrator13decision_loopINtB4_12DecisionLoopNtNtNtB8_8adapters11trace_store14FileTraceStoreE16run_with_optionss0_0B8_
FN:250,_RNCNvMNtNtCsgV4MOW29Zwc_18boundline_adapters12orchestrator13decision_loopINtB4_12DecisionLoopNtNtNtB8_8adapters11trace_store14FileTraceStoreE16run_with_optionss1_0B8_
FN:251,_RNCNvMNtNtCsgV4MOW29Zwc_18boundline_adapters12orchestrator13decision_loopINtB4_12DecisionLoopNtNtNtB8_8adapters11trace_store14FileTraceStoreE16run_with_optionss2_0B8_
FN:254,_RNCNvMNtNtCsgV4MOW29Zwc_18boundline_adapters12orchestrator13decision_loopINtB4_12DecisionLoopNtNtNtB8_8adapters11trace_store14FileTraceStoreE16run_with_optionss3_0B8_
FN:262,_RNCNvMNtNtCsgV4MOW29Zwc_18boundline_adapters12orchestrator13decision_loopINtB4_12DecisionLoopNtNtNtB8_8adapters11trace_store14FileTraceStoreE16run_with_optionss4_0B8_
FN:152,_RNCNvMNtNtCsgV4MOW29Zwc_18boundline_adapters12orchestrator13decision_loopINtB4_12DecisionLoopNtNtNtB8_8adapters11trace_store14FileTraceStoreE16run_with_optionss5_0B8_
FN:158,_RNCNvMNtNtCsgV4MOW29Zwc_18boundline_adapters12orchestrator13decision_loopINtB4_12DecisionLoopNtNtNtB8_8adapters11trace_store14FileTraceStoreE16run_with_optionss6_0B8_
FN:164,_RNCNvMNtNtCsgV4MOW29Zwc_18boundline_adapters12orchestrator13decision_loopINtB4_12DecisionLoopNtNtNtB8_8adapters11trace_store14FileTraceStoreE16run_with_optionss7_0B8_
FN:168,_RNCNvMNtNtCsgV4MOW29Zwc_18boundline_adapters12orchestrator13decision_loopINtB4_12DecisionLoopNtNtNtB8_8adapters11trace_store14FileTraceStoreE16run_with_optionss8_0B8_
FN:173,_RNCNvMNtNtCsgV4MOW29Zwc_18boundline_adapters12orchestrator13decision_loopINtB4_12DecisionLoopNtNtNtB8_8adapters11trace_store14FileTraceStoreE16run_with_optionss9_0B8_
FN:220,_RNCNvMNtNtCsgV4MOW29Zwc_18boundline_adapters12orchestrator13decision_loopINtB4_12DecisionLoopNtNtNtB8_8adapters11trace_store14FileTraceStoreE16run_with_optionss_0B8_
FN:174,_RNCNvMNtNtCsgV4MOW29Zwc_18boundline_adapters12orchestrator13decision_loopINtB4_12DecisionLoopNtNtNtB8_8adapters11trace_store14FileTraceStoreE16run_with_optionssa_0B8_
FN:522,_RNCNvNtNtCsgV4MOW29Zwc_18boundline_adapters12orchestrator13decision_loop16decision_details0B7_
FN:546,_RNCNvNtNtCsgV4MOW29Zwc_18boundline_adapters12orchestrator13decision_loop16decision_detailss0_0B7_
FN:561,_RNCNvNtNtCsgV4MOW29Zwc_18boundline_adapters12orchestrator13decision_loop16decision_detailss1_0B7_
FN:537,_RNCNvNtNtCsgV4MOW29Zwc_18boundline_adapters12orchestrator13decision_loop16decision_detailss_0B7_
FN:622,_RNCNvNtNtCsgV4MOW29Zwc_18boundline_adapters12orchestrator13decision_loop22select_action_selector0B7_
FN:645,_RNCNvNtNtCsgV4MOW29Zwc_18boundline_adapters12orchestrator13decision_loop28canon_memory_terminal_reason0B7_
FN:597,_RNCNvNtNtCsgV4MOW29Zwc_18boundline_adapters12orchestrator13decision_loop31failed_recovery_terminal_reason0B7_
FN:409,_RNvMNtNtCsgV4MOW29Zwc_18boundline_adapters12orchestrator13decision_loopINtB2_12DecisionLoopNtNtNtB6_8adapters11trace_store14FileTraceStoreE15dispatch_actionB6_
FN:116,_RNvMNtNtCsgV4MOW29Zwc_18boundline_adapters12orchestrator13decision_loopINtB2_12DecisionLoopNtNtNtB6_8adapters11trace_store14FileTraceStoreE16run_with_optionsB6_
FN:96,_RNvMNtNtCsgV4MOW29Zwc_18boundline_adapters12orchestrator13decision_loopINtB2_12DecisionLoopNtNtNtB6_8adapters11trace_store14FileTraceStoreE3newB6_
FN:734,_RNvNtNtCsgV4MOW29Zwc_18boundline_adapters12orchestrator13decision_loop15adapter_binding
FN:455,_RNvNtNtCsgV4MOW29Zwc_18boundline_adapters12orchestrator13decision_loop16decision_details
FN:670,_RNvNtNtCsgV4MOW29Zwc_18boundline_adapters12orchestrator13decision_loop22decision_event_payload
FN:744,_RNvNtNtCsgV4MOW29Zwc_18boundline_adapters12orchestrator13decision_loop22missing_adapter_result
FN:706,_RNvNtNtCsgV4MOW29Zwc_18boundline_adapters12orchestrator13decision_loop22recovery_decision_type
FN:686,_RNvNtNtCsgV4MOW29Zwc_18boundline_adapters12orchestrator13decision_loop22recovery_event_payload
FN:602,_RNvNtNtCsgV4MOW29Zwc_18boundline_adapters12orchestrator13decision_loop22select_action_selector
FN:586,_RNvNtNtCsgV4MOW29Zwc_18boundline_adapters12orchestrator13decision_loop23recovery_completes_task
FN:650,_RNvNtNtCsgV4MOW29Zwc_18boundline_adapters12orchestrator13decision_loop26canon_memory_evidence_refs
FN:702,_RNvNtNtCsgV4MOW29Zwc_18boundline_adapters12orchestrator13decision_loop27no_actionable_state_payload
FN:644,_RNvNtNtCsgV4MOW29Zwc_18boundline_adapters12orchestrator13decision_loop28canon_memory_terminal_reason
FN:805,_RNvNtNtCsgV4MOW29Zwc_18boundline_adapters12orchestrator13decision_loop28workspace_routing_projection
FN:593,_RNvNtNtCsgV4MOW29Zwc_18boundline_adapters12orchestrator13decision_loop31failed_recovery_terminal_reason
FN:754,_RNvNtNtCsgV4MOW29Zwc_18boundline_adapters12orchestrator13decision_loop31tool_result_from_step_execution
FN:567,_RNvNtNtCsgV4MOW29Zwc_18boundline_adapters12orchestrator13decision_loop35successful_recovery_terminal_reason
FN:441,_RNCNvMNtNtCsblqRvDQyS7m_18boundline_adapters12orchestrator13decision_loopINtB4_12DecisionLoopNtNtNtB8_8adapters11trace_store14FileTraceStoreE15dispatch_action0B8_
FN:446,_RNCNvMNtNtCsblqRvDQyS7m_18boundline_adapters12orchestrator13decision_loopINtB4_12DecisionLoopNtNtNtB8_8adapters11trace_store14FileTraceStoreE15dispatch_actions0_0B8_
FN:447,_RNCNvMNtNtCsblqRvDQyS7m_18boundline_adapters12orchestrator13decision_loopINtB4_12DecisionLoopNtNtNtB8_8adapters11trace_store14FileTraceStoreE15dispatch_actions1_0B8_
FN:442,_RNCNvMNtNtCsblqRvDQyS7m_18boundline_adapters12orchestrator13decision_loopINtB4_12DecisionLoopNtNtNtB8_8adapters11trace_store14FileTraceStoreE15dispatch_actions_0B8_
FN:219,_RNCNvMNtNtCsblqRvDQyS7m_18boundline_adapters12orchestrator13decision_loopINtB4_12DecisionLoopNtNtNtB8_8adapters11trace_store14FileTraceStoreE16run_with_options0B8_
FN:235,_RNCNvMNtNtCsblqRvDQyS7m_18boundline_adapters12orchestrator13decision_loopINtB4_12DecisionLoopNtNtNtB8_8adapters11trace_store14FileTraceStoreE16run_with_optionss0_0B8_
FN:250,_RNCNvMNtNtCsblqRvDQyS7m_18boundline_adapters12orchestrator13decision_loopINtB4_12DecisionLoopNtNtNtB8_8adapters11trace_store14FileTraceStoreE16run_with_optionss1_0B8_
FN:251,_RNCNvMNtNtCsblqRvDQyS7m_18boundline_adapters12orchestrator13decision_loopINtB4_12DecisionLoopNtNtNtB8_8adapters11trace_store14FileTraceStoreE16run_with_optionss2_0B8_
FN:254,_RNCNvMNtNtCsblqRvDQyS7m_18boundline_adapters12orchestrator13decision_loopINtB4_12DecisionLoopNtNtNtB8_8adapters11trace_store14FileTraceStoreE16run_with_optionss3_0B8_
FN:262,_RNCNvMNtNtCsblqRvDQyS7m_18boundline_adapters12orchestrator13decision_loopINtB4_12DecisionLoopNtNtNtB8_8adapters11trace_store14FileTraceStoreE16run_with_optionss4_0B8_
FN:152,_RNCNvMNtNtCsblqRvDQyS7m_18boundline_adapters12orchestrator13decision_loopINtB4_12DecisionLoopNtNtNtB8_8adapters11trace_store14FileTraceStoreE16run_with_optionss5_0B8_
FN:158,_RNCNvMNtNtCsblqRvDQyS7m_18boundline_adapters12orchestrator13decision_loopINtB4_12DecisionLoopNtNtNtB8_8adapters11trace_store14FileTraceStoreE16run_with_optionss6_0B8_
FN:164,_RNCNvMNtNtCsblqRvDQyS7m_18boundline_adapters12orchestrator13decision_loopINtB4_12DecisionLoopNtNtNtB8_8adapters11trace_store14FileTraceStoreE16run_with_optionss7_0B8_
FN:168,_RNCNvMNtNtCsblqRvDQyS7m_18boundline_adapters12orchestrator13decision_loopINtB4_12DecisionLoopNtNtNtB8_8adapters11trace_store14FileTraceStoreE16run_with_optionss8_0B8_
FN:173,_RNCNvMNtNtCsblqRvDQyS7m_18boundline_adapters12orchestrator13decision_loopINtB4_12DecisionLoopNtNtNtB8_8adapters11trace_store14FileTraceStoreE16run_with_optionss9_0B8_
FN:220,_RNCNvMNtNtCsblqRvDQyS7m_18boundline_adapters12orchestrator13decision_loopINtB4_12DecisionLoopNtNtNtB8_8adapters11trace_store14FileTraceStoreE16run_with_optionss_0B8_
FN:174,_RNCNvMNtNtCsblqRvDQyS7m_18boundline_adapters12orchestrator13decision_loopINtB4_12DecisionLoopNtNtNtB8_8adapters11trace_store14FileTraceStoreE16run_with_optionssa_0B8_
FN:522,_RNCNvNtNtCsblqRvDQyS7m_18boundline_adapters12orchestrator13decision_loop16decision_details0B7_
FN:546,_RNCNvNtNtCsblqRvDQyS7m_18boundline_adapters12orchestrator13decision_loop16decision_detailss0_0B7_
FN:561,_RNCNvNtNtCsblqRvDQyS7m_18boundline_adapters12orchestrator13decision_loop16decision_detailss1_0B7_
FN:537,_RNCNvNtNtCsblqRvDQyS7m_18boundline_adapters12orchestrator13decision_loop16decision_detailss_0B7_
FN:622,_RNCNvNtNtCsblqRvDQyS7m_18boundline_adapters12orchestrator13decision_loop22select_action_selector0B7_
FN:645,_RNCNvNtNtCsblqRvDQyS7m_18boundline_adapters12orchestrator13decision_loop28canon_memory_terminal_reason0B7_
FN:597,_RNCNvNtNtCsblqRvDQyS7m_18boundline_adapters12orchestrator13decision_loop31failed_recovery_terminal_reason0B7_
FN:409,_RNvMNtNtCsblqRvDQyS7m_18boundline_adapters12orchestrator13decision_loopINtB2_12DecisionLoopNtNtNtB6_8adapters11trace_store14FileTraceStoreE15dispatch_actionB6_
FN:116,_RNvMNtNtCsblqRvDQyS7m_18boundline_adapters12orchestrator13decision_loopINtB2_12DecisionLoopNtNtNtB6_8adapters11trace_store14FileTraceStoreE16run_with_optionsB6_
FN:96,_RNvMNtNtCsblqRvDQyS7m_18boundline_adapters12orchestrator13decision_loopINtB2_12DecisionLoopNtNtNtB6_8adapters11trace_store14FileTraceStoreE3newB6_
FN:106,_RNvMNtNtCsblqRvDQyS7m_18boundline_adapters12orchestrator13decision_loopINtB2_12DecisionLoopNtNtNtB6_8adapters11trace_store14FileTraceStoreE3runB6_
FN:734,_RNvNtNtCsblqRvDQyS7m_18boundline_adapters12orchestrator13decision_loop15adapter_binding
FN:455,_RNvNtNtCsblqRvDQyS7m_18boundline_adapters12orchestrator13decision_loop16decision_details
FN:670,_RNvNtNtCsblqRvDQyS7m_18boundline_adapters12orchestrator13decision_loop22decision_event_payload
FN:744,_RNvNtNtCsblqRvDQyS7m_18boundline_adapters12orchestrator13decision_loop22missing_adapter_result
FN:706,_RNvNtNtCsblqRvDQyS7m_18boundline_adapters12orchestrator13decision_loop22recovery_decision_type
FN:686,_RNvNtNtCsblqRvDQyS7m_18boundline_adapters12orchestrator13decision_loop22recovery_event_payload
FN:602,_RNvNtNtCsblqRvDQyS7m_18boundline_adapters12orchestrator13decision_loop22select_action_selector
FN:586,_RNvNtNtCsblqRvDQyS7m_18boundline_adapters12orchestrator13decision_loop23recovery_completes_task
FN:650,_RNvNtNtCsblqRvDQyS7m_18boundline_adapters12orchestrator13decision_loop26canon_memory_evidence_refs
FN:702,_RNvNtNtCsblqRvDQyS7m_18boundline_adapters12orchestrator13decision_loop27no_actionable_state_payload
FN:644,_RNvNtNtCsblqRvDQyS7m_18boundline_adapters12orchestrator13decision_loop28canon_memory_terminal_reason
FN:805,_RNvNtNtCsblqRvDQyS7m_18boundline_adapters12orchestrator13decision_loop28workspace_routing_projection
FN:593,_RNvNtNtCsblqRvDQyS7m_18boundline_adapters12orchestrator13decision_loop31failed_recovery_terminal_reason
FN:754,_RNvNtNtCsblqRvDQyS7m_18boundline_adapters12orchestrator13decision_loop31tool_result_from_step_execution
FN:567,_RNvNtNtCsblqRvDQyS7m_18boundline_adapters12orchestrator13decision_loop35successful_recovery_terminal_reason
FN:1325,_RNCNCNvNtNtNtCsblqRvDQyS7m_18boundline_adapters12orchestrator13decision_loop5testss_60decision_loop_terminalizes_when_canon_memory_is_not_credible00Bb_
FN:1323,_RNCNvNtNtNtCsblqRvDQyS7m_18boundline_adapters12orchestrator13decision_loop5testss_60decision_loop_terminalizes_when_canon_memory_is_not_credible0B9_
FN:1214,_RNCNvNtNtNtCsblqRvDQyS7m_18boundline_adapters12orchestrator13decision_loop5testss_65selector_payload_and_tool_result_helpers_cover_remaining_branches0B9_
FN:1230,_RNCNvNtNtNtCsblqRvDQyS7m_18boundline_adapters12orchestrator13decision_loop5testss_65selector_payload_and_tool_result_helpers_cover_remaining_branchess0_0B9_
FN:1215,_RNCNvNtNtNtCsblqRvDQyS7m_18boundline_adapters12orchestrator13decision_loop5testss_65selector_payload_and_tool_result_helpers_cover_remaining_branchess_0B9_
FN:885,_RNvNtNtNtCsblqRvDQyS7m_18boundline_adapters12orchestrator13decision_loop5tests12planned_task
FN:879,_RNvNtNtNtCsblqRvDQyS7m_18boundline_adapters12orchestrator13decision_loop5tests14temp_workspace
FN:899,_RNvNtNtNtCsblqRvDQyS7m_18boundline_adapters12orchestrator13decision_loop5tests15failed_decision
FN:916,_RNvNtNtNtCsblqRvDQyS7m_18boundline_adapters12orchestrator13decision_loop5tests25observation_with_evidence
FN:1004,_RNvNtNtNtCsblqRvDQyS7m_18boundline_adapters12orchestrator13decision_loop5testss_52recovery_helpers_cover_terminal_and_completion_cases
FN:1281,_RNvNtNtNtCsblqRvDQyS7m_18boundline_adapters12orchestrator13decision_loop5testss_60decision_loop_terminalizes_when_canon_memory_is_not_credible
FN:1333,_RNvNtNtNtCsblqRvDQyS7m_18boundline_adapters12orchestrator13decision_loop5testss_62canon_memory_helpers_cover_default_reason_and_provenance_links
FN:929,_RNvNtNtNtCsblqRvDQyS7m_18boundline_adapters12orchestrator13decision_loop5testss_63decision_details_cover_selector_specific_rationale_and_defaults
FN:1054,_RNvNtNtNtCsblqRvDQyS7m_18boundline_adapters12orchestrator13decision_loop5testss_65selector_payload_and_tool_result_helpers_cover_remaining_branches
FN:106,_RNvMNtNtCsgV4MOW29Zwc_18boundline_adapters12orchestrator13decision_loopINtB2_12DecisionLoopNtNtNtB6_8adapters11trace_store14FileTraceStoreE3runCsy8NdhUIsqy_4unit
FNDA:18,_RNCNvMNtNtCsgV4MOW29Zwc_18boundline_adapters12orchestrator13decision_loopINtB4_12DecisionLoopNtNtNtB8_8adapters11trace_store14FileTraceStoreE15dispatch_action0B8_
FNDA:5,_RNCNvMNtNtCsgV4MOW29Zwc_18boundline_adapters12orchestrator13decision_loopINtB4_12DecisionLoopNtNtNtB8_8adapters11trace_store14FileTraceStoreE15dispatch_actions0_0B8_
FNDA:1,_RNCNvMNtNtCsgV4MOW29Zwc_18boundline_adapters12orchestrator13decision_loopINtB4_12DecisionLoopNtNtNtB8_8adapters11trace_store14FileTraceStoreE15dispatch_actions1_0B8_
FNDA:0,_RNCNvMNtNtCsgV4MOW29Zwc_18boundline_adapters12orchestrator13decision_loopINtB4_12DecisionLoopNtNtNtB8_8adapters11trace_store14FileTraceStoreE15dispatch_actions_0B8_
FNDA:62,_RNCNvMNtNtCsgV4MOW29Zwc_18boundline_adapters12orchestrator13decision_loopINtB4_12DecisionLoopNtNtNtB8_8adapters11trace_store14FileTraceStoreE16run_with_options0B8_
FNDA:36,_RNCNvMNtNtCsgV4MOW29Zwc_18boundline_adapters12orchestrator13decision_loopINtB4_12DecisionLoopNtNtNtB8_8adapters11trace_store14FileTraceStoreE16run_with_optionss0_0B8_
FNDA:12,_RNCNvMNtNtCsgV4MOW29Zwc_18boundline_adapters12orchestrator13decision_loopINtB4_12DecisionLoopNtNtNtB8_8adapters11trace_store14FileTraceStoreE16run_with_optionss1_0B8_
FNDA:12,_RNCNvMNtNtCsgV4MOW29Zwc_18boundline_adapters12orchestrator13decision_loopINtB4_12DecisionLoopNtNtNtB8_8adapters11trace_store14FileTraceStoreE16run_with_optionss2_0B8_
FNDA:36,_RNCNvMNtNtCsgV4MOW29Zwc_18boundline_adapters12orchestrator13decision_loopINtB4_12DecisionLoopNtNtNtB8_8adapters11trace_store14FileTraceStoreE16run_with_optionss3_0B8_
FNDA:9,_RNCNvMNtNtCsgV4MOW29Zwc_18boundline_adapters12orchestrator13decision_loopINtB4_12DecisionLoopNtNtNtB8_8adapters11trace_store14FileTraceStoreE16run_with_optionss4_0B8_
FNDA:4,_RNCNvMNtNtCsgV4MOW29Zwc_18boundline_adapters12orchestrator13decision_loopINtB4_12DecisionLoopNtNtNtB8_8adapters11trace_store14FileTraceStoreE16run_with_optionss5_0B8_
FNDA:0,_RNCNvMNtNtCsgV4MOW29Zwc_18boundline_adapters12orchestrator13decision_loopINtB4_12DecisionLoopNtNtNtB8_8adapters11trace_store14FileTraceStoreE16run_with_optionss6_0B8_
FNDA:0,_RNCNvMNtNtCsgV4MOW29Zwc_18boundline_adapters12orchestrator13decision_loopINtB4_12DecisionLoopNtNtNtB8_8adapters11trace_store14FileTraceStoreE16run_with_optionss7_0B8_
FNDA:0,_RNCNvMNtNtCsgV4MOW29Zwc_18boundline_adapters12orchestrator13decision_loopINtB4_12DecisionLoopNtNtNtB8_8adapters11trace_store14FileTraceStoreE16run_with_optionss8_0B8_
FNDA:0,_RNCNvMNtNtCsgV4MOW29Zwc_18boundline_adapters12orchestrator13decision_loopINtB4_12DecisionLoopNtNtNtB8_8adapters11trace_store14FileTraceStoreE16run_with_optionss9_0B8_
FNDA:36,_RNCNvMNtNtCsgV4MOW29Zwc_18boundline_adapters12orchestrator13decision_loopINtB4_12DecisionLoopNtNtNtB8_8adapters11trace_store14FileTraceStoreE16run_with_optionss_0B8_
FNDA:0,_RNCNvMNtNtCsgV4MOW29Zwc_18boundline_adapters12orchestrator13decision_loopINtB4_12DecisionLoopNtNtNtB8_8adapters11trace_store14FileTraceStoreE16run_with_optionssa_0B8_
FNDA:0,_RNCNvNtNtCsgV4MOW29Zwc_18boundline_adapters12orchestrator13decision_loop16decision_details0B7_
FNDA:0,_RNCNvNtNtCsgV4MOW29Zwc_18boundline_adapters12orchestrator13decision_loop16decision_detailss0_0B7_
FNDA:0,_RNCNvNtNtCsgV4MOW29Zwc_18boundline_adapters12orchestrator13decision_loop16decision_detailss1_0B7_
FNDA:0,_RNCNvNtNtCsgV4MOW29Zwc_18boundline_adapters12orchestrator13decision_loop16decision_detailss_0B7_
FNDA:0,_RNCNvNtNtCsgV4MOW29Zwc_18boundline_adapters12orchestrator13decision_loop22select_action_selector0B7_
FNDA:0,_RNCNvNtNtCsgV4MOW29Zwc_18boundline_adapters12orchestrator13decision_loop28canon_memory_terminal_reason0B7_
FNDA:0,_RNCNvNtNtCsgV4MOW29Zwc_18boundline_adapters12orchestrator13decision_loop31failed_recovery_terminal_reason0B7_
FNDA:24,_RNvMNtNtCsgV4MOW29Zwc_18boundline_adapters12orchestrator13decision_loopINtB2_12DecisionLoopNtNtNtB6_8adapters11trace_store14FileTraceStoreE15dispatch_actionB6_
FNDA:15,_RNvMNtNtCsgV4MOW29Zwc_18boundline_adapters12orchestrator13decision_loopINtB2_12DecisionLoopNtNtNtB6_8adapters11trace_store14FileTraceStoreE16run_with_optionsB6_
FNDA:14,_RNvMNtNtCsgV4MOW29Zwc_18boundline_adapters12orchestrator13decision_loopINtB2_12DecisionLoopNtNtNtB6_8adapters11trace_store14FileTraceStoreE3newB6_
FNDA:24,_RNvNtNtCsgV4MOW29Zwc_18boundline_adapters12orchestrator13decision_loop15adapter_binding
FNDA:24,_RNvNtNtCsgV4MOW29Zwc_18boundline_adapters12orchestrator13decision_loop16decision_details
FNDA:72,_RNvNtNtCsgV4MOW29Zwc_18boundline_adapters12orchestrator13decision_loop22decision_event_payload
FNDA:1,_RNvNtNtCsgV4MOW29Zwc_18boundline_adapters12orchestrator13decision_loop22missing_adapter_result
FNDA:2,_RNvNtNtCsgV4MOW29Zwc_18boundline_adapters12orchestrator13decision_loop22recovery_decision_type
FNDA:2,_RNvNtNtCsgV4MOW29Zwc_18boundline_adapters12orchestrator13decision_loop22recovery_event_payload
FNDA:24,_RNvNtNtCsgV4MOW29Zwc_18boundline_adapters12orchestrator13decision_loop22select_action_selector
FNDA:0,_RNvNtNtCsgV4MOW29Zwc_18boundline_adapters12orchestrator13decision_loop23recovery_completes_task
FNDA:0,_RNvNtNtCsgV4MOW29Zwc_18boundline_adapters12orchestrator13decision_loop26canon_memory_evidence_refs
FNDA:2,_RNvNtNtCsgV4MOW29Zwc_18boundline_adapters12orchestrator13decision_loop27no_actionable_state_payload
FNDA:0,_RNvNtNtCsgV4MOW29Zwc_18boundline_adapters12orchestrator13decision_loop28canon_memory_terminal_reason
FNDA:15,_RNvNtNtCsgV4MOW29Zwc_18boundline_adapters12orchestrator13decision_loop28workspace_routing_projection
FNDA:0,_RNvNtNtCsgV4MOW29Zwc_18boundline_adapters12orchestrator13decision_loop31failed_recovery_terminal_reason
FNDA:24,_RNvNtNtCsgV4MOW29Zwc_18boundline_adapters12orchestrator13decision_loop31tool_result_from_step_execution
FNDA:2,_RNvNtNtCsgV4MOW29Zwc_18boundline_adapters12orchestrator13decision_loop35successful_recovery_terminal_reason
FNDA:0,_RNCNvMNtNtCsblqRvDQyS7m_18boundline_adapters12orchestrator13decision_loopINtB4_12DecisionLoopNtNtNtB8_8adapters11trace_store14FileTraceStoreE15dispatch_action0B8_
FNDA:0,_RNCNvMNtNtCsblqRvDQyS7m_18boundline_adapters12orchestrator13decision_loopINtB4_12DecisionLoopNtNtNtB8_8adapters11trace_store14FileTraceStoreE15dispatch_actions0_0B8_
FNDA:0,_RNCNvMNtNtCsblqRvDQyS7m_18boundline_adapters12orchestrator13decision_loopINtB4_12DecisionLoopNtNtNtB8_8adapters11trace_store14FileTraceStoreE15dispatch_actions1_0B8_
FNDA:0,_RNCNvMNtNtCsblqRvDQyS7m_18boundline_adapters12orchestrator13decision_loopINtB4_12DecisionLoopNtNtNtB8_8adapters11trace_store14FileTraceStoreE15dispatch_actions_0B8_
FNDA:0,_RNCNvMNtNtCsblqRvDQyS7m_18boundline_adapters12orchestrator13decision_loopINtB4_12DecisionLoopNtNtNtB8_8adapters11trace_store14FileTraceStoreE16run_with_options0B8_
FNDA:0,_RNCNvMNtNtCsblqRvDQyS7m_18boundline_adapters12orchestrator13decision_loopINtB4_12DecisionLoopNtNtNtB8_8adapters11trace_store14FileTraceStoreE16run_with_optionss0_0B8_
FNDA:0,_RNCNvMNtNtCsblqRvDQyS7m_18boundline_adapters12orchestrator13decision_loopINtB4_12DecisionLoopNtNtNtB8_8adapters11trace_store14FileTraceStoreE16run_with_optionss1_0B8_
FNDA:0,_RNCNvMNtNtCsblqRvDQyS7m_18boundline_adapters12orchestrator13decision_loopINtB4_12DecisionLoopNtNtNtB8_8adapters11trace_store14FileTraceStoreE16run_with_optionss2_0B8_
FNDA:0,_RNCNvMNtNtCsblqRvDQyS7m_18boundline_adapters12orchestrator13decision_loopINtB4_12DecisionLoopNtNtNtB8_8adapters11trace_store14FileTraceStoreE16run_with_optionss3_0B8_
FNDA:0,_RNCNvMNtNtCsblqRvDQyS7m_18boundline_adapters12orchestrator13decision_loopINtB4_12DecisionLoopNtNtNtB8_8adapters11trace_store14FileTraceStoreE16run_with_optionss4_0B8_
FNDA:0,_RNCNvMNtNtCsblqRvDQyS7m_18boundline_adapters12orchestrator13decision_loopINtB4_12DecisionLoopNtNtNtB8_8adapters11trace_store14FileTraceStoreE16run_with_optionss5_0B8_
FNDA:1,_RNCNvMNtNtCsblqRvDQyS7m_18boundline_adapters12orchestrator13decision_loopINtB4_12DecisionLoopNtNtNtB8_8adapters11trace_store14FileTraceStoreE16run_with_optionss6_0B8_
FNDA:1,_RNCNvMNtNtCsblqRvDQyS7m_18boundline_adapters12orchestrator13decision_loopINtB4_12DecisionLoopNtNtNtB8_8adapters11trace_store14FileTraceStoreE16run_with_optionss7_0B8_
FNDA:1,_RNCNvMNtNtCsblqRvDQyS7m_18boundline_adapters12orchestrator13decision_loopINtB4_12DecisionLoopNtNtNtB8_8adapters11trace_store14FileTraceStoreE16run_with_optionss8_0B8_
FNDA:1,_RNCNvMNtNtCsblqRvDQyS7m_18boundline_adapters12orchestrator13decision_loopINtB4_12DecisionLoopNtNtNtB8_8adapters11trace_store14FileTraceStoreE16run_with_optionss9_0B8_
FNDA:0,_RNCNvMNtNtCsblqRvDQyS7m_18boundline_adapters12orchestrator13decision_loopINtB4_12DecisionLoopNtNtNtB8_8adapters11trace_store14FileTraceStoreE16run_with_optionss_0B8_
FNDA:1,_RNCNvMNtNtCsblqRvDQyS7m_18boundline_adapters12orchestrator13decision_loopINtB4_12DecisionLoopNtNtNtB8_8adapters11trace_store14FileTraceStoreE16run_with_optionssa_0B8_
FNDA:1,_RNCNvNtNtCsblqRvDQyS7m_18boundline_adapters12orchestrator13decision_loop16decision_details0B7_
FNDA:1,_RNCNvNtNtCsblqRvDQyS7m_18boundline_adapters12orchestrator13decision_loop16decision_detailss0_0B7_
FNDA:1,_RNCNvNtNtCsblqRvDQyS7m_18boundline_adapters12orchestrator13decision_loop16decision_detailss1_0B7_
FNDA:1,_RNCNvNtNtCsblqRvDQyS7m_18boundline_adapters12orchestrator13decision_loop16decision_detailss_0B7_
FNDA:1,_RNCNvNtNtCsblqRvDQyS7m_18boundline_adapters12orchestrator13decision_loop22select_action_selector0B7_
FNDA:1,_RNCNvNtNtCsblqRvDQyS7m_18boundline_adapters12orchestrator13decision_loop28canon_memory_terminal_reason0B7_
FNDA:1,_RNCNvNtNtCsblqRvDQyS7m_18boundline_adapters12orchestrator13decision_loop31failed_recovery_terminal_reason0B7_
FNDA:0,_RNvMNtNtCsblqRvDQyS7m_18boundline_adapters12orchestrator13decision_loopINtB2_12DecisionLoopNtNtNtB6_8adapters11trace_store14FileTraceStoreE15dispatch_actionB6_
FNDA:1,_RNvMNtNtCsblqRvDQyS7m_18boundline_adapters12orchestrator13decision_loopINtB2_12DecisionLoopNtNtNtB6_8adapters11trace_store14FileTraceStoreE16run_with_optionsB6_
FNDA:1,_RNvMNtNtCsblqRvDQyS7m_18boundline_adapters12orchestrator13decision_loopINtB2_12DecisionLoopNtNtNtB6_8adapters11trace_store14FileTraceStoreE3newB6_
FNDA:1,_RNvMNtNtCsblqRvDQyS7m_18boundline_adapters12orchestrator13decision_loopINtB2_12DecisionLoopNtNtNtB6_8adapters11trace_store14FileTraceStoreE3runB6_
FNDA:6,_RNvNtNtCsblqRvDQyS7m_18boundline_adapters12orchestrator13decision_loop15adapter_binding
FNDA:12,_RNvNtNtCsblqRvDQyS7m_18boundline_adapters12orchestrator13decision_loop16decision_details
FNDA:1,_RNvNtNtCsblqRvDQyS7m_18boundline_adapters12orchestrator13decision_loop22decision_event_payload
FNDA:0,_RNvNtNtCsblqRvDQyS7m_18boundline_adapters12orchestrator13decision_loop22missing_adapter_result
FNDA:3,_RNvNtNtCsblqRvDQyS7m_18boundline_adapters12orchestrator13decision_loop22recovery_decision_type
FNDA:1,_RNvNtNtCsblqRvDQyS7m_18boundline_adapters12orchestrator13decision_loop22recovery_event_payload
FNDA:11,_RNvNtNtCsblqRvDQyS7m_18boundline_adapters12orchestrator13decision_loop22select_action_selector
FNDA:5,_RNvNtNtCsblqRvDQyS7m_18boundline_adapters12orchestrator13decision_loop23recovery_completes_task
FNDA:1,_RNvNtNtCsblqRvDQyS7m_18boundline_adapters12orchestrator13decision_loop26canon_memory_evidence_refs
FNDA:1,_RNvNtNtCsblqRvDQyS7m_18boundline_adapters12orchestrator13decision_loop27no_actionable_state_payload
FNDA:2,_RNvNtNtCsblqRvDQyS7m_18boundline_adapters12orchestrator13decision_loop28canon_memory_terminal_reason
FNDA:1,_RNvNtNtCsblqRvDQyS7m_18boundline_adapters12orchestrator13decision_loop28workspace_routing_projection
FNDA:2,_RNvNtNtCsblqRvDQyS7m_18boundline_adapters12orchestrator13decision_loop31failed_recovery_terminal_reason
FNDA:1,_RNvNtNtCsblqRvDQyS7m_18boundline_adapters12orchestrator13decision_loop31tool_result_from_step_execution
FNDA:3,_RNvNtNtCsblqRvDQyS7m_18boundline_adapters12orchestrator13decision_loop35successful_recovery_terminal_reason
FNDA:1,_RNCNCNvNtNtNtCsblqRvDQyS7m_18boundline_adapters12orchestrator13decision_loop5testss_60decision_loop_terminalizes_when_canon_memory_is_not_credible00Bb_
FNDA:2,_RNCNvNtNtNtCsblqRvDQyS7m_18boundline_adapters12orchestrator13decision_loop5testss_60decision_loop_terminalizes_when_canon_memory_is_not_credible0B9_
FNDA:1,_RNCNvNtNtNtCsblqRvDQyS7m_18boundline_adapters12orchestrator13decision_loop5testss_65selector_payload_and_tool_result_helpers_cover_remaining_branches0B9_
FNDA:1,_RNCNvNtNtNtCsblqRvDQyS7m_18boundline_adapters12orchestrator13decision_loop5testss_65selector_payload_and_tool_result_helpers_cover_remaining_branchess0_0B9_
FNDA:1,_RNCNvNtNtNtCsblqRvDQyS7m_18boundline_adapters12orchestrator13decision_loop5testss_65selector_payload_and_tool_result_helpers_cover_remaining_branchess_0B9_
FNDA:3,_RNvNtNtNtCsblqRvDQyS7m_18boundline_adapters12orchestrator13decision_loop5tests12planned_task
FNDA:2,_RNvNtNtNtCsblqRvDQyS7m_18boundline_adapters12orchestrator13decision_loop5tests14temp_workspace
FNDA:12,_RNvNtNtNtCsblqRvDQyS7m_18boundline_adapters12orchestrator13decision_loop5tests15failed_decision
FNDA:12,_RNvNtNtNtCsblqRvDQyS7m_18boundline_adapters12orchestrator13decision_loop5tests25observation_with_evidence
FNDA:1,_RNvNtNtNtCsblqRvDQyS7m_18boundline_adapters12orchestrator13decision_loop5testss_52recovery_helpers_cover_terminal_and_completion_cases
FNDA:1,_RNvNtNtNtCsblqRvDQyS7m_18boundline_adapters12orchestrator13decision_loop5testss_60decision_loop_terminalizes_when_canon_memory_is_not_credible
FNDA:1,_RNvNtNtNtCsblqRvDQyS7m_18boundline_adapters12orchestrator13decision_loop5testss_62canon_memory_helpers_cover_default_reason_and_provenance_links
FNDA:1,_RNvNtNtNtCsblqRvDQyS7m_18boundline_adapters12orchestrator13decision_loop5testss_63decision_details_cover_selector_specific_rationale_and_defaults
FNDA:1,_RNvNtNtNtCsblqRvDQyS7m_18boundline_adapters12orchestrator13decision_loop5testss_65selector_payload_and_tool_result_helpers_cover_remaining_branches
FNDA:12,_RNvMNtNtCsgV4MOW29Zwc_18boundline_adapters12orchestrator13decision_loopINtB2_12DecisionLoopNtNtNtB6_8adapters11trace_store14FileTraceStoreE3runCsy8NdhUIsqy_4unit
FNF:57
FNH:56
DA:96,15
DA:97,15
DA:98,15
DA:99,15
DA:100,15
DA:101,15
DA:102,15
DA:103,15
DA:106,13
DA:107,13
DA:108,13
DA:109,13
DA:110,13
DA:111,13
DA:112,13
DA:113,13
DA:114,13
DA:116,16
DA:117,16
DA:118,16
DA:119,16
DA:120,16
DA:121,16
DA:122,16
DA:123,16
DA:124,16
DA:125,16
DA:126,16
DA:127,16
DA:129,16
DA:130,16
DA:131,16
DA:133,16
DA:134,16
DA:135,16
DA:136,16
DA:137,16
DA:138,16
DA:139,16
DA:140,16
DA:141,16
DA:142,16
DA:143,16
DA:144,16
DA:145,16
DA:146,16
DA:147,16
DA:148,16
DA:149,16
DA:150,16
DA:151,16
DA:152,16
DA:153,16
DA:154,16
DA:155,16
DA:156,16
DA:157,16
DA:158,16
DA:159,1
DA:160,1
DA:161,16
DA:162,16
DA:163,16
DA:164,16
DA:165,16
DA:166,16
DA:167,16
DA:168,16
DA:169,16
DA:170,16
DA:171,16
DA:172,16
DA:173,16
DA:174,16
DA:178,16
DA:179,1
DA:181,1
DA:182,1
DA:183,1
DA:184,1
DA:186,1
DA:188,1
DA:189,15
DA:191,15
DA:192,15
DA:193,15
DA:194,15
DA:198,37
DA:199,3
DA:200,3
DA:201,3
DA:202,3
DA:203,3
DA:205,3
DA:206,3
DA:207,3
DA:208,3
DA:211,3
DA:212,34
DA:215,34
DA:216,34
DA:217,34
DA:218,34
DA:219,62
DA:220,36
DA:221,34
DA:223,34
DA:224,10
DA:225,10
DA:226,10
DA:227,10
DA:229,10
DA:231,10
DA:232,24
DA:234,24
DA:235,36
DA:236,24
DA:237,24
DA:238,24
DA:239,24
DA:240,24
DA:241,24
DA:242,24
DA:243,24
DA:244,24
DA:245,24
DA:247,24
DA:248,24
DA:249,24
DA:250,24
DA:251,24
DA:253,24
DA:254,36
DA:258,24
DA:259,24
DA:260,24
DA:261,24
DA:262,24
DA:263,24
DA:264,24
DA:265,2
DA:267,22
DA:268,22
DA:269,2
DA:270,2
DA:272,0
DA:273,0
DA:276,20
DA:279,24
DA:280,24
DA:281,24
DA:282,24
DA:283,24
DA:284,24
DA:285,24
DA:288,24
DA:289,24
DA:290,24
DA:291,24
DA:292,24
DA:293,24
DA:295,24
DA:296,24
DA:297,24
DA:299,24
DA:300,24
DA:301,24
DA:303,24
DA:307,24
DA:308,24
DA:309,24
DA:310,24
DA:312,24
DA:317,24
DA:318,24
DA:321,24
DA:322,20
DA:323,20
DA:324,20
DA:325,20
DA:327,20
DA:329,20
DA:330,2
DA:331,2
DA:332,2
DA:333,2
DA:334,2
DA:336,2
DA:338,0
DA:340,2
DA:341,2
DA:342,2
DA:343,2
DA:344,2
DA:345,2
DA:346,2
DA:347,2
DA:348,2
DA:349,2
DA:350,2
DA:351,2
DA:353,2
DA:355,2
DA:356,0
DA:358,0
DA:359,0
DA:361,0
DA:362,0
DA:363,0
DA:364,0
DA:366,18
DA:368,18
DA:369,2
DA:370,16
DA:373,4
DA:374,4
DA:375,4
DA:376,4
DA:378,4
DA:381,4
DA:382,0
DA:383,0
DA:385,0
DA:386,0
DA:387,0
DA:388,0
DA:389,0
DA:391,0
DA:393,0
DA:394,0
DA:396,0
DA:397,0
DA:398,0
DA:399,4
DA:403,22
DA:404,22
DA:406,16
DA:409,24
DA:410,24
DA:411,24
DA:412,24
DA:413,24
DA:414,24
DA:415,24
DA:416,24
DA:417,24
DA:418,24
DA:419,24
DA:420,24
DA:421,24
DA:422,24
DA:423,24
DA:424,24
DA:425,24
DA:426,24
DA:427,24
DA:429,24
DA:430,24
DA:431,24
DA:432,24
DA:433,24
DA:437,24
DA:438,18
DA:439,18
DA:440,18
DA:441,18
DA:442,18
DA:443,6
DA:444,6
DA:445,6
DA:446,6
DA:447,6
DA:448,0
DA:451,24
DA:452,24
DA:455,36
DA:456,36
DA:457,36
DA:458,36
DA:459,36
DA:460,36
DA:461,36
DA:462,8
DA:463,8
DA:464,8
DA:465,1
DA:466,1
DA:467,1
DA:468,1
DA:469,1
DA:470,1
DA:471,1
DA:472,1
DA:473,1
DA:474,3
DA:475,3
DA:476,3
DA:477,3
DA:478,3
DA:479,3
DA:480,3
DA:481,3
DA:482,3
DA:483,1
DA:484,1
DA:485,1
DA:486,1
DA:487,1
DA:488,1
DA:489,1
DA:490,1
DA:491,1
DA:492,1
DA:493,1
DA:494,1
DA:495,1
DA:496,1
DA:497,1
DA:498,1
DA:499,1
DA:500,1
DA:501,1
DA:502,1
DA:503,1
DA:504,1
DA:505,1
DA:506,1
DA:507,1
DA:508,1
DA:509,1
DA:511,28
DA:513,28
DA:514,28
DA:515,28
DA:517,10
DA:518,10
DA:519,10
DA:520,10
DA:521,10
DA:522,10
DA:523,10
DA:525,6
DA:526,6
DA:527,6
DA:528,6
DA:529,6
DA:530,6
DA:532,5
DA:533,5
DA:534,5
DA:535,5
DA:536,5
DA:537,5
DA:538,5
DA:541,4
DA:542,4
DA:543,4
DA:544,4
DA:545,4
DA:546,4
DA:547,4
DA:549,1
DA:550,1
DA:551,1
DA:552,1
DA:553,1
DA:554,1
DA:556,2
DA:557,2
DA:558,2
DA:559,2
DA:560,2
DA:561,2
DA:562,2
DA:565,36
DA:567,5
DA:568,5
DA:569,5
DA:570,5
DA:571,5
DA:572,5
DA:573,3
DA:575,2
DA:577,1
DA:578,1
DA:579,1
DA:580,1
DA:582,1
DA:584,5
DA:586,5
DA:587,5
DA:588,2
DA:589,3
DA:590,2
DA:591,5
DA:593,2
DA:594,2
DA:595,2
DA:596,2
DA:597,2
DA:598,1
DA:599,1
DA:600,2
DA:602,35
DA:603,35
DA:604,35
DA:605,35
DA:606,35
DA:607,35
DA:608,35
DA:609,35
DA:610,35
DA:611,8
DA:612,1
DA:613,3
DA:614,1
DA:615,1
DA:616,1
DA:617,1
DA:619,27
DA:621,27
DA:622,19
DA:623,1
DA:624,1
DA:625,1
DA:627,1
DA:628,26
DA:630,26
DA:631,18
DA:632,18
DA:633,17
DA:634,10
DA:635,10
DA:637,9
DA:638,9
DA:639,8
DA:641,17
DA:642,35
DA:644,2
DA:645,2
DA:646,1
DA:647,1
DA:648,2
DA:650,1
DA:651,1
DA:652,1
DA:653,1
DA:654,1
DA:655,1
DA:656,1
DA:657,1
DA:658,1
DA:659,2
DA:660,2
DA:661,2
DA:662,1
DA:663,2
DA:664,2
DA:665,2
DA:666,0
DA:667,1
DA:668,1
DA:670,73
DA:671,73
DA:672,73
DA:673,73
DA:674,73
DA:675,73
DA:676,73
DA:677,73
DA:678,73
DA:679,73
DA:680,73
DA:681,73
DA:682,73
DA:683,73
DA:684,73
DA:686,3
DA:687,3
DA:688,3
DA:689,3
DA:690,3
DA:691,3
DA:692,3
DA:693,3
DA:694,3
DA:695,3
DA:696,3
DA:697,3
DA:698,3
DA:699,3
DA:700,3
DA:702,3
DA:703,3
DA:704,3
DA:706,5
DA:707,5
DA:708,5
DA:709,5
DA:710,5
DA:711,3
DA:712,0
DA:713,2
DA:714,0
DA:717,5
DA:718,4
DA:719,4
DA:720,1
DA:721,3
DA:724,1
DA:725,1
DA:727,1
DA:728,0
DA:729,3
DA:731,3
DA:732,5
DA:734,30
DA:735,30
DA:736,16
DA:737,5
DA:738,4
DA:739,3
DA:740,2
DA:742,30
DA:744,1
DA:745,1
DA:746,1
DA:748,1
DA:750,1
DA:752,1
DA:754,25
DA:755,25
DA:756,25
DA:757,25
DA:758,25
DA:759,25
DA:760,25
DA:761,25
DA:762,25
DA:766,25
DA:767,21
DA:768,11
DA:769,11
DA:770,10
DA:771,10
DA:773,21
DA:774,1
DA:775,20
DA:777,21
DA:778,2
DA:779,19
DA:781,21
DA:782,1
DA:783,20
DA:784,4
DA:786,25
DA:787,5
DA:788,4
DA:789,4
DA:790,21
DA:792,25
DA:793,1
DA:794,1
DA:795,1
DA:796,24
DA:798,25
DA:799,4
DA:800,21
DA:802,25
DA:803,25
DA:805,16
DA:806,16
DA:807,16
DA:808,16
DA:809,16
DA:810,16
DA:811,16
DA:812,16
DA:813,16
DA:814,16
DA:815,16
DA:816,16
DA:817,16
DA:818,16
DA:820,16
DA:821,16
DA:822,16
DA:823,16
DA:825,16
DA:826,16
DA:827,16
DA:828,16
DA:831,16
DA:832,16
DA:833,16
DA:834,16
DA:836,16
DA:879,2
DA:880,2
DA:881,2
DA:882,2
DA:883,2
DA:885,3
DA:886,3
DA:887,3
DA:888,3
DA:889,3
DA:890,3
DA:891,3
DA:892,3
DA:893,3
DA:894,3
DA:895,3
DA:896,3
DA:897,3
DA:899,12
DA:900,12
DA:901,12
DA:902,12
DA:905,12
DA:907,12
DA:908,12
DA:909,12
DA:910,12
DA:911,12
DA:912,12
DA:913,12
DA:914,12
DA:916,12
DA:917,12
DA:918,12
DA:919,12
DA:920,12
DA:921,12
DA:922,12
DA:923,12
DA:924,12
DA:925,12
DA:926,12
DA:929,1
DA:930,1
DA:931,1
DA:933,1
DA:934,1
DA:935,1
DA:936,1
DA:937,1
DA:938,1
DA:939,1
DA:940,1
DA:941,1
DA:942,1
DA:943,1
DA:944,1
DA:945,1
DA:946,1
DA:947,1
DA:948,1
DA:949,1
DA:950,1
DA:951,1
DA:952,1
DA:953,1
DA:954,1
DA:955,1
DA:956,1
DA:957,1
DA:958,1
DA:959,1
DA:960,1
DA:961,1
DA:962,1
DA:963,1
DA:964,1
DA:966,6
DA:967,6
DA:968,6
DA:969,6
DA:970,6
DA:971,6
DA:972,6
DA:973,6
DA:976,1
DA:977,1
DA:978,1
DA:979,1
DA:980,1
DA:981,1
DA:982,1
DA:983,1
DA:984,1
DA:985,1
DA:986,1
DA:987,1
DA:988,1
DA:989,1
DA:990,1
DA:991,1
DA:993,6
DA:994,6
DA:995,6
DA:996,6
DA:997,6
DA:998,6
DA:999,6
DA:1001,1
DA:1004,1
DA:1005,1
DA:1006,1
DA:1007,1
DA:1011,1
DA:1013,1
DA:1014,1
DA:1015,1
DA:1019,1
DA:1021,1
DA:1023,1
DA:1024,1
DA:1025,1
DA:1027,1
DA:1028,1
DA:1029,1
DA:1031,1
DA:1032,1
DA:1033,1
DA:1034,1
DA:1035,1
DA:1040,1
DA:1041,1
DA:1042,1
DA:1043,1
DA:1044,1
DA:1046,1
DA:1047,1
DA:1048,1
DA:1050,1
DA:1051,1
DA:1054,1
DA:1055,1
DA:1056,1
DA:1057,1
DA:1058,1
DA:1060,1
DA:1061,1
DA:1062,1
DA:1063,1
DA:1064,1
DA:1065,1
DA:1066,1
DA:1067,1
DA:1068,1
DA:1069,1
DA:1073,1
DA:1074,1
DA:1075,1
DA:1076,1
DA:1077,1
DA:1078,1
DA:1079,1
DA:1080,1
DA:1084,1
DA:1085,1
DA:1086,1
DA:1087,1
DA:1088,1
DA:1089,1
DA:1090,1
DA:1091,1
DA:1095,1
DA:1096,1
DA:1097,1
DA:1098,1
DA:1099,1
DA:1100,1
DA:1101,1
DA:1102,1
DA:1106,1
DA:1107,1
DA:1108,1
DA:1109,1
DA:1110,1
DA:1111,1
DA:1112,1
DA:1113,1
DA:1117,1
DA:1118,1
DA:1119,1
DA:1120,1
DA:1121,1
DA:1122,1
DA:1123,1
DA:1124,1
DA:1128,1
DA:1129,1
DA:1130,1
DA:1131,1
DA:1132,1
DA:1133,1
DA:1134,1
DA:1135,1
DA:1139,1
DA:1140,1
DA:1141,1
DA:1142,1
DA:1143,1
DA:1144,1
DA:1145,1
DA:1146,1
DA:1150,1
DA:1151,1
DA:1152,1
DA:1153,1
DA:1154,1
DA:1155,1
DA:1156,1
DA:1157,1
DA:1161,1
DA:1162,1
DA:1163,1
DA:1164,1
DA:1165,1
DA:1166,1
DA:1167,1
DA:1168,1
DA:1173,1
DA:1174,1
DA:1175,1
DA:1176,1
DA:1177,1
DA:1178,1
DA:1179,1
DA:1180,1
DA:1181,1
DA:1182,1
DA:1183,1
DA:1184,1
DA:1185,1
DA:1186,1
DA:1187,1
DA:1188,1
DA:1189,1
DA:1190,1
DA:1191,1
DA:1192,1
DA:1193,1
DA:1198,1
DA:1199,1
DA:1203,1
DA:1205,1
DA:1206,1
DA:1207,1
DA:1208,1
DA:1209,1
DA:1210,1
DA:1212,1
DA:1213,1
DA:1214,1
DA:1215,1
DA:1216,1
DA:1218,1
DA:1219,1
DA:1220,1
DA:1221,1
DA:1222,1
DA:1223,1
DA:1224,1
DA:1225,1
DA:1226,1
DA:1227,1
DA:1229,1
DA:1230,1
DA:1231,1
DA:1234,1
DA:1235,1
DA:1236,1
DA:1237,1
DA:1238,1
DA:1239,1
DA:1240,1
DA:1241,1
DA:1242,1
DA:1243,1
DA:1244,1
DA:1245,1
DA:1248,1
DA:1249,1
DA:1250,1
DA:1251,1
DA:1256,1
DA:1257,1
DA:1258,1
DA:1259,1
DA:1260,1
DA:1261,1
DA:1263,1
DA:1264,1
DA:1265,1
DA:1266,1
DA:1267,1
DA:1268,1
DA:1269,1
DA:1270,1
DA:1271,1
DA:1272,1
DA:1273,1
DA:1275,1
DA:1276,1
DA:1277,1
DA:1278,1
DA:1281,1
DA:1282,1
DA:1283,1
DA:1285,1
DA:1287,1
DA:1288,1
DA:1289,1
DA:1290,1
DA:1291,1
DA:1292,1
DA:1293,1
DA:1294,1
DA:1295,1
DA:1296,1
DA:1297,1
DA:1298,1
DA:1299,1
DA:1300,1
DA:1301,1
DA:1302,1
DA:1303,1
DA:1304,1
DA:1305,1
DA:1306,1
DA:1307,1
DA:1308,1
DA:1312,1
DA:1313,1
DA:1314,1
DA:1316,1
DA:1318,1
DA:1319,1
DA:1320,1
DA:1322,1
DA:1323,2
DA:1324,2
DA:1325,1
DA:1326,1
DA:1327,2
DA:1329,1
DA:1330,1
DA:1333,1
DA:1334,1
DA:1335,1
DA:1336,1
DA:1337,1
DA:1338,1
DA:1339,1
DA:1340,1
DA:1341,1
DA:1342,1
DA:1343,1
DA:1344,1
DA:1345,1
DA:1346,1
DA:1347,1
DA:1348,1
DA:1349,1
DA:1350,1
DA:1351,1
DA:1352,1
DA:1353,1
DA:1354,1
DA:1355,1
DA:1356,1
DA:1357,1
DA:1358,1
DA:1360,1
DA:1361,1
DA:1365,1
DA:1366,1
DA:1367,1
DA:1368,1
DA:1369,1
DA:1370,1
DA:1371,1
DA:1372,1
DA:1373,1
BRF:0
BRH:0
LF:1016
LH:974
end_of_record
SF:/Users/rt/workspace/apply-the/boundline/crates/boundline-adapters/src/../../../src/orchestrator/engine.rs
FN:709,_RNCNCNvMNtNtCsgV4MOW29Zwc_18boundline_adapters12orchestrator6engineINtB6_12OrchestratorINtNtCs1OjIl8oxbrv_5alloc4sync3ArcDNtNtB8_7planner7PlannerEL_ENtNtNtBa_8adapters11trace_store14FileTraceStoreE25apply_governance_responses0_00Cs9UpcZiueOLV_13boundline_cli
FN:715,_RNCNCNvMNtNtCsgV4MOW29Zwc_18boundline_adapters12orchestrator6engineINtB6_12OrchestratorINtNtCs1OjIl8oxbrv_5alloc4sync3ArcDNtNtB8_7planner7PlannerEL_ENtNtNtBa_8adapters11trace_store14FileTraceStoreE25apply_governance_responses0_0s_0Cs9UpcZiueOLV_13boundline_cli
FN:1042,_RNCNvMNtNtCsgV4MOW29Zwc_18boundline_adapters12orchestrator6engineINtB4_12OrchestratorINtNtCs1OjIl8oxbrv_5alloc4sync3ArcDNtNtB6_7planner7PlannerEL_ENtNtNtB8_8adapters11trace_store14FileTraceStoreE16execute_decision0Cs9UpcZiueOLV_13boundline_cli
FN:373,_RNCNvMNtNtCsgV4MOW29Zwc_18boundline_adapters12orchestrator6engineINtB4_12OrchestratorINtNtCs1OjIl8oxbrv_5alloc4sync3ArcDNtNtB6_7planner7PlannerEL_ENtNtNtB8_8adapters11trace_store14FileTraceStoreE23ensure_stage_governance0Cs9UpcZiueOLV_13boundline_cli
FN:404,_RNCNvMNtNtCsgV4MOW29Zwc_18boundline_adapters12orchestrator6engineINtB4_12OrchestratorINtNtCs1OjIl8oxbrv_5alloc4sync3ArcDNtNtB6_7planner7PlannerEL_ENtNtNtB8_8adapters11trace_store14FileTraceStoreE23ensure_stage_governances0_0Cs9UpcZiueOLV_13boundline_cli
FN:408,_RNCNvMNtNtCsgV4MOW29Zwc_18boundline_adapters12orchestrator6engineINtB4_12OrchestratorINtNtCs1OjIl8oxbrv_5alloc4sync3ArcDNtNtB6_7planner7PlannerEL_ENtNtNtB8_8adapters11trace_store14FileTraceStoreE23ensure_stage_governances1_0Cs9UpcZiueOLV_13boundline_cli
FN:413,_RNCNvMNtNtCsgV4MOW29Zwc_18boundline_adapters12orchestrator6engineINtB4_12OrchestratorINtNtCs1OjIl8oxbrv_5alloc4sync3ArcDNtNtB6_7planner7PlannerEL_ENtNtNtB8_8adapters11trace_store14FileTraceStoreE23ensure_stage_governances2_0Cs9UpcZiueOLV_13boundline_cli
FN:421,_RNCNvMNtNtCsgV4MOW29Zwc_18boundline_adapters12orchestrator6engineINtB4_12OrchestratorINtNtCs1OjIl8oxbrv_5alloc4sync3ArcDNtNtB6_7planner7PlannerEL_ENtNtNtB8_8adapters11trace_store14FileTraceStoreE23ensure_stage_governances3_0Cs9UpcZiueOLV_13boundline_cli
FN:439,_RNCNvMNtNtCsgV4MOW29Zwc_18boundline_adapters12orchestrator6engineINtB4_12OrchestratorINtNtCs1OjIl8oxbrv_5alloc4sync3ArcDNtNtB6_7planner7PlannerEL_ENtNtNtB8_8adapters11trace_store14FileTraceStoreE23ensure_stage_governances6_0Cs9UpcZiueOLV_13boundline_cli
FN:532,_RNCNvMNtNtCsgV4MOW29Zwc_18boundline_adapters12orchestrator6engineINtB4_12OrchestratorINtNtCs1OjIl8oxbrv_5alloc4sync3ArcDNtNtB6_7planner7PlannerEL_ENtNtNtB8_8adapters11trace_store14FileTraceStoreE23ensure_stage_governances8_0Cs9UpcZiueOLV_13boundline_cli
FN:533,_RNCNvMNtNtCsgV4MOW29Zwc_18boundline_adapters12orchestrator6engineINtB4_12OrchestratorINtNtCs1OjIl8oxbrv_5alloc4sync3ArcDNtNtB6_7planner7PlannerEL_ENtNtNtB8_8adapters11trace_store14FileTraceStoreE23ensure_stage_governances9_0Cs9UpcZiueOLV_13boundline_cli
FN:395,_RNCNvMNtNtCsgV4MOW29Zwc_18boundline_adapters12orchestrator6engineINtB4_12OrchestratorINtNtCs1OjIl8oxbrv_5alloc4sync3ArcDNtNtB6_7planner7PlannerEL_ENtNtNtB8_8adapters11trace_store14FileTraceStoreE23ensure_stage_governances_0Cs9UpcZiueOLV_13boundline_cli
FN:534,_RNCNvMNtNtCsgV4MOW29Zwc_18boundline_adapters12orchestrator6engineINtB4_12OrchestratorINtNtCs1OjIl8oxbrv_5alloc4sync3ArcDNtNtB6_7planner7PlannerEL_ENtNtNtB8_8adapters11trace_store14FileTraceStoreE23ensure_stage_governancesa_0Cs9UpcZiueOLV_13boundline_cli
FN:536,_RNCNvMNtNtCsgV4MOW29Zwc_18boundline_adapters12orchestrator6engineINtB4_12OrchestratorINtNtCs1OjIl8oxbrv_5alloc4sync3ArcDNtNtB6_7planner7PlannerEL_ENtNtNtB8_8adapters11trace_store14FileTraceStoreE23ensure_stage_governancesb_0Cs9UpcZiueOLV_13boundline_cli
FN:558,_RNCNvMNtNtCsgV4MOW29Zwc_18boundline_adapters12orchestrator6engineINtB4_12OrchestratorINtNtCs1OjIl8oxbrv_5alloc4sync3ArcDNtNtB6_7planner7PlannerEL_ENtNtNtB8_8adapters11trace_store14FileTraceStoreE23ensure_stage_governancesc_0Cs9UpcZiueOLV_13boundline_cli
FN:605,_RNCNvMNtNtCsgV4MOW29Zwc_18boundline_adapters12orchestrator6engineINtB4_12OrchestratorINtNtCs1OjIl8oxbrv_5alloc4sync3ArcDNtNtB6_7planner7PlannerEL_ENtNtNtB8_8adapters11trace_store14FileTraceStoreE23ensure_stage_governancese_0Cs9UpcZiueOLV_13boundline_cli
FN:623,_RNCNvMNtNtCsgV4MOW29Zwc_18boundline_adapters12orchestrator6engineINtB4_12OrchestratorINtNtCs1OjIl8oxbrv_5alloc4sync3ArcDNtNtB6_7planner7PlannerEL_ENtNtNtB8_8adapters11trace_store14FileTraceStoreE23ensure_stage_governancesf_0Cs9UpcZiueOLV_13boundline_cli
FN:552,_RNCNvMNtNtCsgV4MOW29Zwc_18boundline_adapters12orchestrator6engineINtB4_12OrchestratorINtNtCs1OjIl8oxbrv_5alloc4sync3ArcDNtNtB6_7planner7PlannerEL_ENtNtNtB8_8adapters11trace_store14FileTraceStoreE23ensure_stage_governancesh_0Cs9UpcZiueOLV_13boundline_cli
FN:553,_RNCNvMNtNtCsgV4MOW29Zwc_18boundline_adapters12orchestrator6engineINtB4_12OrchestratorINtNtCs1OjIl8oxbrv_5alloc4sync3ArcDNtNtB6_7planner7PlannerEL_ENtNtNtB8_8adapters11trace_store14FileTraceStoreE23ensure_stage_governancesi_0Cs9UpcZiueOLV_13boundline_cli
FN:617,_RNCNvMNtNtCsgV4MOW29Zwc_18boundline_adapters12orchestrator6engineINtB4_12OrchestratorINtNtCs1OjIl8oxbrv_5alloc4sync3ArcDNtNtB6_7planner7PlannerEL_ENtNtNtB8_8adapters11trace_store14FileTraceStoreE23ensure_stage_governancesj_0Cs9UpcZiueOLV_13boundline_cli
FN:618,_RNCNvMNtNtCsgV4MOW29Zwc_18boundline_adapters12orchestrator6engineINtB4_12OrchestratorINtNtCs1OjIl8oxbrv_5alloc4sync3ArcDNtNtB6_7planner7PlannerEL_ENtNtNtB8_8adapters11trace_store14FileTraceStoreE23ensure_stage_governancesk_0Cs9UpcZiueOLV_13boundline_cli
FN:904,_RNCNvMNtNtCsgV4MOW29Zwc_18boundline_adapters12orchestrator6engineINtB4_12OrchestratorINtNtCs1OjIl8oxbrv_5alloc4sync3ArcDNtNtB6_7planner7PlannerEL_ENtNtNtB8_8adapters11trace_store14FileTraceStoreE23handle_governance_block0Cs9UpcZiueOLV_13boundline_cli
FN:927,_RNCNvMNtNtCsgV4MOW29Zwc_18boundline_adapters12orchestrator6engineINtB4_12OrchestratorINtNtCs1OjIl8oxbrv_5alloc4sync3ArcDNtNtB6_7planner7PlannerEL_ENtNtNtB8_8adapters11trace_store14FileTraceStoreE23handle_governance_blocks0_0Cs9UpcZiueOLV_13boundline_cli
FN:928,_RNCNvMNtNtCsgV4MOW29Zwc_18boundline_adapters12orchestrator6engineINtB4_12OrchestratorINtNtCs1OjIl8oxbrv_5alloc4sync3ArcDNtNtB6_7planner7PlannerEL_ENtNtNtB8_8adapters11trace_store14FileTraceStoreE23handle_governance_blocks1_0Cs9UpcZiueOLV_13boundline_cli
FN:929,_RNCNvMNtNtCsgV4MOW29Zwc_18boundline_adapters12orchestrator6engineINtB4_12OrchestratorINtNtCs1OjIl8oxbrv_5alloc4sync3ArcDNtNtB6_7planner7PlannerEL_ENtNtNtB8_8adapters11trace_store14FileTraceStoreE23handle_governance_blocks2_0Cs9UpcZiueOLV_13boundline_cli
FN:930,_RNCNvMNtNtCsgV4MOW29Zwc_18boundline_adapters12orchestrator6engineINtB4_12OrchestratorINtNtCs1OjIl8oxbrv_5alloc4sync3ArcDNtNtB6_7planner7PlannerEL_ENtNtNtB8_8adapters11trace_store14FileTraceStoreE23handle_governance_blocks3_0Cs9UpcZiueOLV_13boundline_cli
FN:931,_RNCNvMNtNtCsgV4MOW29Zwc_18boundline_adapters12orchestrator6engineINtB4_12OrchestratorINtNtCs1OjIl8oxbrv_5alloc4sync3ArcDNtNtB6_7planner7PlannerEL_ENtNtNtB8_8adapters11trace_store14FileTraceStoreE23handle_governance_blocks4_0Cs9UpcZiueOLV_13boundline_cli
FN:932,_RNCNvMNtNtCsgV4MOW29Zwc_18boundline_adapters12orchestrator6engineINtB4_12OrchestratorINtNtCs1OjIl8oxbrv_5alloc4sync3ArcDNtNtB6_7planner7PlannerEL_ENtNtNtB8_8adapters11trace_store14FileTraceStoreE23handle_governance_blocks5_0Cs9UpcZiueOLV_13boundline_cli
FN:933,_RNCNvMNtNtCsgV4MOW29Zwc_18boundline_adapters12orchestrator6engineINtB4_12OrchestratorINtNtCs1OjIl8oxbrv_5alloc4sync3ArcDNtNtB6_7planner7PlannerEL_ENtNtNtB8_8adapters11trace_store14FileTraceStoreE23handle_governance_blocks6_0Cs9UpcZiueOLV_13boundline_cli
FN:933,_RNCNvMNtNtCsgV4MOW29Zwc_18boundline_adapters12orchestrator6engineINtB4_12OrchestratorINtNtCs1OjIl8oxbrv_5alloc4sync3ArcDNtNtB6_7planner7PlannerEL_ENtNtNtB8_8adapters11trace_store14FileTraceStoreE23handle_governance_blocks7_0Cs9UpcZiueOLV_13boundline_cli
FN:916,_RNCNvMNtNtCsgV4MOW29Zwc_18boundline_adapters12orchestrator6engineINtB4_12OrchestratorINtNtCs1OjIl8oxbrv_5alloc4sync3ArcDNtNtB6_7planner7PlannerEL_ENtNtNtB8_8adapters11trace_store14FileTraceStoreE23handle_governance_blocks_0Cs9UpcZiueOLV_13boundline_cli
FN:695,_RNCNvMNtNtCsgV4MOW29Zwc_18boundline_adapters12orchestrator6engineINtB4_12OrchestratorINtNtCs1OjIl8oxbrv_5alloc4sync3ArcDNtNtB6_7planner7PlannerEL_ENtNtNtB8_8adapters11trace_store14FileTraceStoreE25apply_governance_response0Cs9UpcZiueOLV_13boundline_cli
FN:705,_RNCNvMNtNtCsgV4MOW29Zwc_18boundline_adapters12orchestrator6engineINtB4_12OrchestratorINtNtCs1OjIl8oxbrv_5alloc4sync3ArcDNtNtB6_7planner7PlannerEL_ENtNtNtB8_8adapters11trace_store14FileTraceStoreE25apply_governance_responses0_0Cs9UpcZiueOLV_13boundline_cli
FN:725,_RNCNvMNtNtCsgV4MOW29Zwc_18boundline_adapters12orchestrator6engineINtB4_12OrchestratorINtNtCs1OjIl8oxbrv_5alloc4sync3ArcDNtNtB6_7planner7PlannerEL_ENtNtNtB8_8adapters11trace_store14FileTraceStoreE25apply_governance_responses1_0Cs9UpcZiueOLV_13boundline_cli
FN:737,_RNCNvMNtNtCsgV4MOW29Zwc_18boundline_adapters12orchestrator6engineINtB4_12OrchestratorINtNtCs1OjIl8oxbrv_5alloc4sync3ArcDNtNtB6_7planner7PlannerEL_ENtNtNtB8_8adapters11trace_store14FileTraceStoreE25apply_governance_responses2_0Cs9UpcZiueOLV_13boundline_cli
FN:738,_RNCNvMNtNtCsgV4MOW29Zwc_18boundline_adapters12orchestrator6engineINtB4_12OrchestratorINtNtCs1OjIl8oxbrv_5alloc4sync3ArcDNtNtB6_7planner7PlannerEL_ENtNtNtB8_8adapters11trace_store14FileTraceStoreE25apply_governance_responses3_0Cs9UpcZiueOLV_13boundline_cli
FN:750,_RNCNvMNtNtCsgV4MOW29Zwc_18boundline_adapters12orchestrator6engineINtB4_12OrchestratorINtNtCs1OjIl8oxbrv_5alloc4sync3ArcDNtNtB6_7planner7PlannerEL_ENtNtNtB8_8adapters11trace_store14FileTraceStoreE25apply_governance_responses4_0Cs9UpcZiueOLV_13boundline_cli
FN:766,_RNCNvMNtNtCsgV4MOW29Zwc_18boundline_adapters12orchestrator6engineINtB4_12OrchestratorINtNtCs1OjIl8oxbrv_5alloc4sync3ArcDNtNtB6_7planner7PlannerEL_ENtNtNtB8_8adapters11trace_store14FileTraceStoreE25apply_governance_responses5_0Cs9UpcZiueOLV_13boundline_cli
FN:767,_RNCNvMNtNtCsgV4MOW29Zwc_18boundline_adapters12orchestrator6engineINtB4_12OrchestratorINtNtCs1OjIl8oxbrv_5alloc4sync3ArcDNtNtB6_7planner7PlannerEL_ENtNtNtB8_8adapters11trace_store14FileTraceStoreE25apply_governance_responses6_0Cs9UpcZiueOLV_13boundline_cli
FN:768,_RNCNvMNtNtCsgV4MOW29Zwc_18boundline_adapters12orchestrator6engineINtB4_12OrchestratorINtNtCs1OjIl8oxbrv_5alloc4sync3ArcDNtNtB6_7planner7PlannerEL_ENtNtNtB8_8adapters11trace_store14FileTraceStoreE25apply_governance_responses7_0Cs9UpcZiueOLV_13boundline_cli
FN:769,_RNCNvMNtNtCsgV4MOW29Zwc_18boundline_adapters12orchestrator6engineINtB4_12OrchestratorINtNtCs1OjIl8oxbrv_5alloc4sync3ArcDNtNtB6_7planner7PlannerEL_ENtNtNtB8_8adapters11trace_store14FileTraceStoreE25apply_governance_responses8_0Cs9UpcZiueOLV_13boundline_cli
FN:770,_RNCNvMNtNtCsgV4MOW29Zwc_18boundline_adapters12orchestrator6engineINtB4_12OrchestratorINtNtCs1OjIl8oxbrv_5alloc4sync3ArcDNtNtB6_7planner7PlannerEL_ENtNtNtB8_8adapters11trace_store14FileTraceStoreE25apply_governance_responses9_0Cs9UpcZiueOLV_13boundline_cli
FN:823,_RNCNvMNtNtCsgV4MOW29Zwc_18boundline_adapters12orchestrator6engineINtB4_12OrchestratorINtNtCs1OjIl8oxbrv_5alloc4sync3ArcDNtNtB6_7planner7PlannerEL_ENtNtNtB8_8adapters11trace_store14FileTraceStoreE25apply_governance_responsesA_0Cs9UpcZiueOLV_13boundline_cli
FN:823,_RNCNvMNtNtCsgV4MOW29Zwc_18boundline_adapters12orchestrator6engineINtB4_12OrchestratorINtNtCs1OjIl8oxbrv_5alloc4sync3ArcDNtNtB6_7planner7PlannerEL_ENtNtNtB8_8adapters11trace_store14FileTraceStoreE25apply_governance_responsesB_0Cs9UpcZiueOLV_13boundline_cli
FN:848,_RNCNvMNtNtCsgV4MOW29Zwc_18boundline_adapters12orchestrator6engineINtB4_12OrchestratorINtNtCs1OjIl8oxbrv_5alloc4sync3ArcDNtNtB6_7planner7PlannerEL_ENtNtNtB8_8adapters11trace_store14FileTraceStoreE25apply_governance_responsesC_0Cs9UpcZiueOLV_13boundline_cli
FN:849,_RNCNvMNtNtCsgV4MOW29Zwc_18boundline_adapters12orchestrator6engineINtB4_12OrchestratorINtNtCs1OjIl8oxbrv_5alloc4sync3ArcDNtNtB6_7planner7PlannerEL_ENtNtNtB8_8adapters11trace_store14FileTraceStoreE25apply_governance_responsesD_0Cs9UpcZiueOLV_13boundline_cli
FN:850,_RNCNvMNtNtCsgV4MOW29Zwc_18boundline_adapters12orchestrator6engineINtB4_12OrchestratorINtNtCs1OjIl8oxbrv_5alloc4sync3ArcDNtNtB6_7planner7PlannerEL_ENtNtNtB8_8adapters11trace_store14FileTraceStoreE25apply_governance_responsesE_0Cs9UpcZiueOLV_13boundline_cli
FN:851,_RNCNvMNtNtCsgV4MOW29Zwc_18boundline_adapters12orchestrator6engineINtB4_12OrchestratorINtNtCs1OjIl8oxbrv_5alloc4sync3ArcDNtNtB6_7planner7PlannerEL_ENtNtNtB8_8adapters11trace_store14FileTraceStoreE25apply_governance_responsesF_0Cs9UpcZiueOLV_13boundline_cli
FN:852,_RNCNvMNtNtCsgV4MOW29Zwc_18boundline_adapters12orchestrator6engineINtB4_12OrchestratorINtNtCs1OjIl8oxbrv_5alloc4sync3ArcDNtNtB6_7planner7PlannerEL_ENtNtNtB8_8adapters11trace_store14FileTraceStoreE25apply_governance_responsesG_0Cs9UpcZiueOLV_13boundline_cli
FN:853,_RNCNvMNtNtCsgV4MOW29Zwc_18boundline_adapters12orchestrator6engineINtB4_12OrchestratorINtNtCs1OjIl8oxbrv_5alloc4sync3ArcDNtNtB6_7planner7PlannerEL_ENtNtNtB8_8adapters11trace_store14FileTraceStoreE25apply_governance_responsesH_0Cs9UpcZiueOLV_13boundline_cli
FN:854,_RNCNvMNtNtCsgV4MOW29Zwc_18boundline_adapters12orchestrator6engineINtB4_12OrchestratorINtNtCs1OjIl8oxbrv_5alloc4sync3ArcDNtNtB6_7planner7PlannerEL_ENtNtNtB8_8adapters11trace_store14FileTraceStoreE25apply_governance_responsesI_0Cs9UpcZiueOLV_13boundline_cli
FN:855,_RNCNvMNtNtCsgV4MOW29Zwc_18boundline_adapters12orchestrator6engineINtB4_12OrchestratorINtNtCs1OjIl8oxbrv_5alloc4sync3ArcDNtNtB6_7planner7PlannerEL_ENtNtNtB8_8adapters11trace_store14FileTraceStoreE25apply_governance_responsesJ_0Cs9UpcZiueOLV_13boundline_cli
FN:856,_RNCNvMNtNtCsgV4MOW29Zwc_18boundline_adapters12orchestrator6engineINtB4_12OrchestratorINtNtCs1OjIl8oxbrv_5alloc4sync3ArcDNtNtB6_7planner7PlannerEL_ENtNtNtB8_8adapters11trace_store14FileTraceStoreE25apply_governance_responsesK_0Cs9UpcZiueOLV_13boundline_cli
FN:857,_RNCNvMNtNtCsgV4MOW29Zwc_18boundline_adapters12orchestrator6engineINtB4_12OrchestratorINtNtCs1OjIl8oxbrv_5alloc4sync3ArcDNtNtB6_7planner7PlannerEL_ENtNtNtB8_8adapters11trace_store14FileTraceStoreE25apply_governance_responsesL_0Cs9UpcZiueOLV_13boundline_cli
FN:857,_RNCNvMNtNtCsgV4MOW29Zwc_18boundline_adapters12orchestrator6engineINtB4_12OrchestratorINtNtCs1OjIl8oxbrv_5alloc4sync3ArcDNtNtB6_7planner7PlannerEL_ENtNtNtB8_8adapters11trace_store14FileTraceStoreE25apply_governance_responsesM_0Cs9UpcZiueOLV_13boundline_cli
FN:704,_RNCNvMNtNtCsgV4MOW29Zwc_18boundline_adapters12orchestrator6engineINtB4_12OrchestratorINtNtCs1OjIl8oxbrv_5alloc4sync3ArcDNtNtB6_7planner7PlannerEL_ENtNtNtB8_8adapters11trace_store14FileTraceStoreE25apply_governance_responses_0Cs9UpcZiueOLV_13boundline_cli
FN:771,_RNCNvMNtNtCsgV4MOW29Zwc_18boundline_adapters12orchestrator6engineINtB4_12OrchestratorINtNtCs1OjIl8oxbrv_5alloc4sync3ArcDNtNtB6_7planner7PlannerEL_ENtNtNtB8_8adapters11trace_store14FileTraceStoreE25apply_governance_responsesa_0Cs9UpcZiueOLV_13boundline_cli
FN:772,_RNCNvMNtNtCsgV4MOW29Zwc_18boundline_adapters12orchestrator6engineINtB4_12OrchestratorINtNtCs1OjIl8oxbrv_5alloc4sync3ArcDNtNtB6_7planner7PlannerEL_ENtNtNtB8_8adapters11trace_store14FileTraceStoreE25apply_governance_responsesb_0Cs9UpcZiueOLV_13boundline_cli
FN:773,_RNCNvMNtNtCsgV4MOW29Zwc_18boundline_adapters12orchestrator6engineINtB4_12OrchestratorINtNtCs1OjIl8oxbrv_5alloc4sync3ArcDNtNtB6_7planner7PlannerEL_ENtNtNtB8_8adapters11trace_store14FileTraceStoreE25apply_governance_responsesc_0Cs9UpcZiueOLV_13boundline_cli
FN:787,_RNCNvMNtNtCsgV4MOW29Zwc_18boundline_adapters12orchestrator6engineINtB4_12OrchestratorINtNtCs1OjIl8oxbrv_5alloc4sync3ArcDNtNtB6_7planner7PlannerEL_ENtNtNtB8_8adapters11trace_store14FileTraceStoreE25apply_governance_responsesd_0Cs9UpcZiueOLV_13boundline_cli
FN:789,_RNCNvMNtNtCsgV4MOW29Zwc_18boundline_adapters12orchestrator6engineINtB4_12OrchestratorINtNtCs1OjIl8oxbrv_5alloc4sync3ArcDNtNtB6_7planner7PlannerEL_ENtNtNtB8_8adapters11trace_store14FileTraceStoreE25apply_governance_responsesf_0Cs9UpcZiueOLV_13boundline_cli
FN:790,_RNCNvMNtNtCsgV4MOW29Zwc_18boundline_adapters12orchestrator6engineINtB4_12OrchestratorINtNtCs1OjIl8oxbrv_5alloc4sync3ArcDNtNtB6_7planner7PlannerEL_ENtNtNtB8_8adapters11trace_store14FileTraceStoreE25apply_governance_responsesg_0Cs9UpcZiueOLV_13boundline_cli
FN:790,_RNCNvMNtNtCsgV4MOW29Zwc_18boundline_adapters12orchestrator6engineINtB4_12OrchestratorINtNtCs1OjIl8oxbrv_5alloc4sync3ArcDNtNtB6_7planner7PlannerEL_ENtNtNtB8_8adapters11trace_store14FileTraceStoreE25apply_governance_responsesh_0Cs9UpcZiueOLV_13boundline_cli
FN:791,_RNCNvMNtNtCsgV4MOW29Zwc_18boundline_adapters12orchestrator6engineINtB4_12OrchestratorINtNtCs1OjIl8oxbrv_5alloc4sync3ArcDNtNtB6_7planner7PlannerEL_ENtNtNtB8_8adapters11trace_store14FileTraceStoreE25apply_governance_responsesi_0Cs9UpcZiueOLV_13boundline_cli
FN:792,_RNCNvMNtNtCsgV4MOW29Zwc_18boundline_adapters12orchestrator6engineINtB4_12OrchestratorINtNtCs1OjIl8oxbrv_5alloc4sync3ArcDNtNtB6_7planner7PlannerEL_ENtNtNtB8_8adapters11trace_store14FileTraceStoreE25apply_governance_responsesj_0Cs9UpcZiueOLV_13boundline_cli
FN:793,_RNCNvMNtNtCsgV4MOW29Zwc_18boundline_adapters12orchestrator6engineINtB4_12OrchestratorINtNtCs1OjIl8oxbrv_5alloc4sync3ArcDNtNtB6_7planner7PlannerEL_ENtNtNtB8_8adapters11trace_store14FileTraceStoreE25apply_governance_responsesk_0Cs9UpcZiueOLV_13boundline_cli
FN:794,_RNCNvMNtNtCsgV4MOW29Zwc_18boundline_adapters12orchestrator6engineINtB4_12OrchestratorINtNtCs1OjIl8oxbrv_5alloc4sync3ArcDNtNtB6_7planner7PlannerEL_ENtNtNtB8_8adapters11trace_store14FileTraceStoreE25apply_governance_responsesl_0Cs9UpcZiueOLV_13boundline_cli
FN:795,_RNCNvMNtNtCsgV4MOW29Zwc_18boundline_adapters12orchestrator6engineINtB4_12OrchestratorINtNtCs1OjIl8oxbrv_5alloc4sync3ArcDNtNtB6_7planner7PlannerEL_ENtNtNtB8_8adapters11trace_store14FileTraceStoreE25apply_governance_responsesm_0Cs9UpcZiueOLV_13boundline_cli
FN:796,_RNCNvMNtNtCsgV4MOW29Zwc_18boundline_adapters12orchestrator6engineINtB4_12OrchestratorINtNtCs1OjIl8oxbrv_5alloc4sync3ArcDNtNtB6_7planner7PlannerEL_ENtNtNtB8_8adapters11trace_store14FileTraceStoreE25apply_governance_responsesn_0Cs9UpcZiueOLV_13boundline_cli
FN:797,_RNCNvMNtNtCsgV4MOW29Zwc_18boundline_adapters12orchestrator6engineINtB4_12OrchestratorINtNtCs1OjIl8oxbrv_5alloc4sync3ArcDNtNtB6_7planner7PlannerEL_ENtNtNtB8_8adapters11trace_store14FileTraceStoreE25apply_governance_responseso_0Cs9UpcZiueOLV_13boundline_cli
FN:798,_RNCNvMNtNtCsgV4MOW29Zwc_18boundline_adapters12orchestrator6engineINtB4_12OrchestratorINtNtCs1OjIl8oxbrv_5alloc4sync3ArcDNtNtB6_7planner7PlannerEL_ENtNtNtB8_8adapters11trace_store14FileTraceStoreE25apply_governance_responsesp_0Cs9UpcZiueOLV_13boundline_cli
FN:799,_RNCNvMNtNtCsgV4MOW29Zwc_18boundline_adapters12orchestrator6engineINtB4_12OrchestratorINtNtCs1OjIl8oxbrv_5alloc4sync3ArcDNtNtB6_7planner7PlannerEL_ENtNtNtB8_8adapters11trace_store14FileTraceStoreE25apply_governance_responsesq_0Cs9UpcZiueOLV_13boundline_cli
FN:799,_RNCNvMNtNtCsgV4MOW29Zwc_18boundline_adapters12orchestrator6engineINtB4_12OrchestratorINtNtCs1OjIl8oxbrv_5alloc4sync3ArcDNtNtB6_7planner7PlannerEL_ENtNtNtB8_8adapters11trace_store14FileTraceStoreE25apply_governance_responsesr_0Cs9UpcZiueOLV_13boundline_cli
FN:815,_RNCNvMNtNtCsgV4MOW29Zwc_18boundline_adapters12orchestrator6engineINtB4_12OrchestratorINtNtCs1OjIl8oxbrv_5alloc4sync3ArcDNtNtB6_7planner7PlannerEL_ENtNtNtB8_8adapters11trace_store14FileTraceStoreE25apply_governance_responsess_0Cs9UpcZiueOLV_13boundline_cli
FN:816,_RNCNvMNtNtCsgV4MOW29Zwc_18boundline_adapters12orchestrator6engineINtB4_12OrchestratorINtNtCs1OjIl8oxbrv_5alloc4sync3ArcDNtNtB6_7planner7PlannerEL_ENtNtNtB8_8adapters11trace_store14FileTraceStoreE25apply_governance_responsest_0Cs9UpcZiueOLV_13boundline_cli
FN:817,_RNCNvMNtNtCsgV4MOW29Zwc_18boundline_adapters12orchestrator6engineINtB4_12OrchestratorINtNtCs1OjIl8oxbrv_5alloc4sync3ArcDNtNtB6_7planner7PlannerEL_ENtNtNtB8_8adapters11trace_store14FileTraceStoreE25apply_governance_responsesu_0Cs9UpcZiueOLV_13boundline_cli
FN:818,_RNCNvMNtNtCsgV4MOW29Zwc_18boundline_adapters12orchestrator6engineINtB4_12OrchestratorINtNtCs1OjIl8oxbrv_5alloc4sync3ArcDNtNtB6_7planner7PlannerEL_ENtNtNtB8_8adapters11trace_store14FileTraceStoreE25apply_governance_responsesv_0Cs9UpcZiueOLV_13boundline_cli
FN:819,_RNCNvMNtNtCsgV4MOW29Zwc_18boundline_adapters12orchestrator6engineINtB4_12OrchestratorINtNtCs1OjIl8oxbrv_5alloc4sync3ArcDNtNtB6_7planner7PlannerEL_ENtNtNtB8_8adapters11trace_store14FileTraceStoreE25apply_governance_responsesw_0Cs9UpcZiueOLV_13boundline_cli
FN:820,_RNCNvMNtNtCsgV4MOW29Zwc_18boundline_adapters12orchestrator6engineINtB4_12OrchestratorINtNtCs1OjIl8oxbrv_5alloc4sync3ArcDNtNtB6_7planner7PlannerEL_ENtNtNtB8_8adapters11trace_store14FileTraceStoreE25apply_governance_responsesx_0Cs9UpcZiueOLV_13boundline_cli
FN:821,_RNCNvMNtNtCsgV4MOW29Zwc_18boundline_adapters12orchestrator6engineINtB4_12OrchestratorINtNtCs1OjIl8oxbrv_5alloc4sync3ArcDNtNtB6_7planner7PlannerEL_ENtNtNtB8_8adapters11trace_store14FileTraceStoreE25apply_governance_responsesy_0Cs9UpcZiueOLV_13boundline_cli
FN:822,_RNCNvMNtNtCsgV4MOW29Zwc_18boundline_adapters12orchestrator6engineINtB4_12OrchestratorINtNtCs1OjIl8oxbrv_5alloc4sync3ArcDNtNtB6_7planner7PlannerEL_ENtNtNtB8_8adapters11trace_store14FileTraceStoreE25apply_governance_responsesz_0Cs9UpcZiueOLV_13boundline_cli
FN:348,_RNCNvMNtNtCsgV4MOW29Zwc_18boundline_adapters12orchestrator6engineINtB4_12OrchestratorINtNtCs1OjIl8oxbrv_5alloc4sync3ArcDNtNtB6_7planner7PlannerEL_ENtNtNtB8_8adapters11trace_store14FileTraceStoreE3run0Cs9UpcZiueOLV_13boundline_cli
FN:955,_RNvMNtNtCsgV4MOW29Zwc_18boundline_adapters12orchestrator6engineINtB2_12OrchestratorINtNtCs1OjIl8oxbrv_5alloc4sync3ArcDNtNtB4_7planner7PlannerEL_ENtNtNtB6_8adapters11trace_store14FileTraceStoreE12execute_stepCs9UpcZiueOLV_13boundline_cli
FN:991,_RNvMNtNtCsgV4MOW29Zwc_18boundline_adapters12orchestrator6engineINtB2_12OrchestratorINtNtCs1OjIl8oxbrv_5alloc4sync3ArcDNtNtB4_7planner7PlannerEL_ENtNtNtB6_8adapters11trace_store14FileTraceStoreE12execute_toolCs9UpcZiueOLV_13boundline_cli
FN:963,_RNvMNtNtCsgV4MOW29Zwc_18boundline_adapters12orchestrator6engineINtB2_12OrchestratorINtNtCs1OjIl8oxbrv_5alloc4sync3ArcDNtNtB4_7planner7PlannerEL_ENtNtNtB6_8adapters11trace_store14FileTraceStoreE13execute_agentCs9UpcZiueOLV_13boundline_cli
FN:1065,_RNvMNtNtCsgV4MOW29Zwc_18boundline_adapters12orchestrator6engineINtB2_12OrchestratorINtNtCs1OjIl8oxbrv_5alloc4sync3ArcDNtNtB4_7planner7PlannerEL_ENtNtNtB6_8adapters11trace_store14FileTraceStoreE13finalize_taskCs9UpcZiueOLV_13boundline_cli
FN:1086,_RNvMNtNtCsgV4MOW29Zwc_18boundline_adapters12orchestrator6engineINtB2_12OrchestratorINtNtCs1OjIl8oxbrv_5alloc4sync3ArcDNtNtB4_7planner7PlannerEL_ENtNtNtB6_8adapters11trace_store14FileTraceStoreE13persist_traceCs9UpcZiueOLV_13boundline_cli
FN:57,_RNvMNtNtCsgV4MOW29Zwc_18boundline_adapters12orchestrator6engineINtB2_12OrchestratorINtNtCs1OjIl8oxbrv_5alloc4sync3ArcDNtNtB4_7planner7PlannerEL_ENtNtNtB6_8adapters11trace_store14FileTraceStoreE15with_governanceCs9UpcZiueOLV_13boundline_cli
FN:1016,_RNvMNtNtCsgV4MOW29Zwc_18boundline_adapters12orchestrator6engineINtB2_12OrchestratorINtNtCs1OjIl8oxbrv_5alloc4sync3ArcDNtNtB4_7planner7PlannerEL_ENtNtNtB6_8adapters11trace_store14FileTraceStoreE16execute_decisionCs9UpcZiueOLV_13boundline_cli
FN:1051,_RNvMNtNtCsgV4MOW29Zwc_18boundline_adapters12orchestrator6engineINtB2_12OrchestratorINtNtCs1OjIl8oxbrv_5alloc4sync3ArcDNtNtB4_7planner7PlannerEL_ENtNtNtB6_8adapters11trace_store14FileTraceStoreE16normalize_resultCs9UpcZiueOLV_13boundline_cli
FN:364,_RNvMNtNtCsgV4MOW29Zwc_18boundline_adapters12orchestrator6engineINtB2_12OrchestratorINtNtCs1OjIl8oxbrv_5alloc4sync3ArcDNtNtB4_7planner7PlannerEL_ENtNtNtB6_8adapters11trace_store14FileTraceStoreE23ensure_stage_governanceCs9UpcZiueOLV_13boundline_cli
FN:882,_RNvMNtNtCsgV4MOW29Zwc_18boundline_adapters12orchestrator6engineINtB2_12OrchestratorINtNtCs1OjIl8oxbrv_5alloc4sync3ArcDNtNtB4_7planner7PlannerEL_ENtNtNtB6_8adapters11trace_store14FileTraceStoreE23handle_governance_blockCs9UpcZiueOLV_13boundline_cli
FN:682,_RNvMNtNtCsgV4MOW29Zwc_18boundline_adapters12orchestrator6engineINtB2_12OrchestratorINtNtCs1OjIl8oxbrv_5alloc4sync3ArcDNtNtB4_7planner7PlannerEL_ENtNtNtB6_8adapters11trace_store14FileTraceStoreE25apply_governance_responseCs9UpcZiueOLV_13boundline_cli
FN:657,_RNvMNtNtCsgV4MOW29Zwc_18boundline_adapters12orchestrator6engineINtB2_12OrchestratorINtNtCs1OjIl8oxbrv_5alloc4sync3ArcDNtNtB4_7planner7PlannerEL_ENtNtNtB6_8adapters11trace_store14FileTraceStoreE32record_governance_decision_eventCs9UpcZiueOLV_13boundline_cli
FN:53,_RNvMNtNtCsgV4MOW29Zwc_18boundline_adapters12orchestrator6engineINtB2_12OrchestratorINtNtCs1OjIl8oxbrv_5alloc4sync3ArcDNtNtB4_7planner7PlannerEL_ENtNtNtB6_8adapters11trace_store14FileTraceStoreE3newCs9UpcZiueOLV_13boundline_cli
FN:67,_RNvMNtNtCsgV4MOW29Zwc_18boundline_adapters12orchestrator6engineINtB2_12OrchestratorINtNtCs1OjIl8oxbrv_5alloc4sync3ArcDNtNtB4_7planner7PlannerEL_ENtNtNtB6_8adapters11trace_store14FileTraceStoreE3runCs9UpcZiueOLV_13boundline_cli
FN:1161,_RNvMNtNtNtCsblqRvDQyS7m_18boundline_adapters12orchestrator6engine5testsNtB2_11TestPlanner18with_replan_result
FN:1157,_RNvMNtNtNtCsblqRvDQyS7m_18boundline_adapters12orchestrator6engine5testsNtB2_11TestPlanner20failing_initial_plan
FN:1153,_RNvMNtNtNtCsblqRvDQyS7m_18boundline_adapters12orchestrator6engine5testsNtB2_11TestPlanner9from_plan
FN:1191,_RNvMs0_NtNtNtCsblqRvDQyS7m_18boundline_adapters12orchestrator6engine5testsNtB5_14TestTraceStore10succeeding
FN:1195,_RNvMs0_NtNtNtCsblqRvDQyS7m_18boundline_adapters12orchestrator6engine5testsNtB5_14TestTraceStore7fail_on
FN:1236,_RNvNtNtNtCsblqRvDQyS7m_18boundline_adapters12orchestrator6engine5tests13build_context
FN:1221,_RNvNtNtNtCsblqRvDQyS7m_18boundline_adapters12orchestrator6engine5tests13build_request
FN:1355,_RNvNtNtNtCsblqRvDQyS7m_18boundline_adapters12orchestrator6engine5tests14temp_workspace
FN:1245,_RNvNtNtNtCsblqRvDQyS7m_18boundline_adapters12orchestrator6engine5tests18build_orchestrator
FN:1361,_RNvNtNtNtCsblqRvDQyS7m_18boundline_adapters12orchestrator6engine5tests18write_shell_script
FN:1296,_RNvNtNtNtCsblqRvDQyS7m_18boundline_adapters12orchestrator6engine5tests19build_governed_plan
FN:1342,_RNvNtNtNtCsblqRvDQyS7m_18boundline_adapters12orchestrator6engine5tests19build_governed_task
FN:1256,_RNvNtNtNtCsblqRvDQyS7m_18boundline_adapters12orchestrator6engine5tests24build_governance_profile
FN:1320,_RNvNtNtNtCsblqRvDQyS7m_18boundline_adapters12orchestrator6engine5tests27build_governed_orchestrator
FN:1225,_RNvNtNtNtCsblqRvDQyS7m_18boundline_adapters12orchestrator6engine5tests27build_request_for_workspace
FN:1300,_RNvNtNtNtCsblqRvDQyS7m_18boundline_adapters12orchestrator6engine5tests29build_governed_plan_for_stage
FN:1346,_RNvNtNtNtCsblqRvDQyS7m_18boundline_adapters12orchestrator6engine5tests29build_governed_task_for_stage
FN:1265,_RNvNtNtNtCsblqRvDQyS7m_18boundline_adapters12orchestrator6engine5tests34build_governance_profile_for_stage
FN:1329,_RNvNtNtNtCsblqRvDQyS7m_18boundline_adapters12orchestrator6engine5tests37build_governed_orchestrator_for_stage
FN:1493,_RNvNtNtNtCsblqRvDQyS7m_18boundline_adapters12orchestrator6engine5testss_49run_stops_with_step_limit_exceeded_after_retrying
FN:1994,_RNvNtNtNtCsblqRvDQyS7m_18boundline_adapters12orchestrator6engine5testss_52handle_governance_block_terminalizes_required_stages
FN:1807,_RNvNtNtNtCsblqRvDQyS7m_18boundline_adapters12orchestrator6engine5testss_53handle_governance_block_continues_for_optional_stages
FN:2036,_RNvNtNtNtCsblqRvDQyS7m_18boundline_adapters12orchestrator6engine5testss_54run_marks_task_not_credible_when_planner_cannot_replan
FN:1479,_RNvNtNtNtCsblqRvDQyS7m_18boundline_adapters12orchestrator6engine5testss_54run_returns_planning_errors_from_initial_plan_creation
FN:1508,_RNvNtNtNtCsblqRvDQyS7m_18boundline_adapters12orchestrator6engine5testss_55run_stops_when_current_plan_has_no_executable_next_step
FN:1937,_RNvNtNtNtCsblqRvDQyS7m_18boundline_adapters12orchestrator6engine5testss_56ensure_stage_governance_executes_available_canon_runtime
FN:1414,_RNvNtNtNtCsblqRvDQyS7m_18boundline_adapters12orchestrator6engine5testss_56execute_agent_and_tool_cover_missing_and_unknown_targets
FN:1541,_RNvNtNtNtCsblqRvDQyS7m_18boundline_adapters12orchestrator6engine5testss_57run_blocks_required_canon_governance_for_flow_aware_steps
FN:2129,_RNvNtNtNtCsblqRvDQyS7m_18boundline_adapters12orchestrator6engine5testss_59execute_step_dispatches_registered_agent_and_tool_endpoints
FN:1523,_RNvNtNtNtCsblqRvDQyS7m_18boundline_adapters12orchestrator6engine5testss_59run_executes_optional_local_governance_for_flow_aware_steps
FN:1566,_RNvNtNtNtCsblqRvDQyS7m_18boundline_adapters12orchestrator6engine5testss_62record_governance_decision_event_records_full_decision_payload
FN:1662,_RNvNtNtNtCsblqRvDQyS7m_18boundline_adapters12orchestrator6engine5testss_63apply_governance_response_terminalizes_when_approval_is_pending
FN:1372,_RNvNtNtNtCsblqRvDQyS7m_18boundline_adapters12orchestrator6engine5testss_63execute_decision_covers_success_retry_replan_and_terminal_paths
FN:2097,_RNvNtNtNtCsblqRvDQyS7m_18boundline_adapters12orchestrator6engine5testss_64persist_trace_surfaces_store_failures_on_first_and_second_writes
FN:2066,_RNvNtNtNtCsblqRvDQyS7m_18boundline_adapters12orchestrator6engine5testss_64run_normalizes_invalid_agent_results_into_unrecoverable_failures
FN:1458,_RNvNtNtNtCsblqRvDQyS7m_18boundline_adapters12orchestrator6engine5testss_65normalize_result_converts_invalid_payloads_into_terminal_failures
FN:1908,_RNvNtNtNtCsblqRvDQyS7m_18boundline_adapters12orchestrator6engine5testss_66ensure_stage_governance_blocks_when_required_canon_mode_is_missing
FN:2052,_RNvNtNtNtCsblqRvDQyS7m_18boundline_adapters12orchestrator6engine5testss_66run_marks_task_not_credible_when_replacement_plan_has_no_next_step
FN:1885,_RNvNtNtNtCsblqRvDQyS7m_18boundline_adapters12orchestrator6engine5testss_68ensure_stage_governance_blocks_when_required_canon_config_is_missing
FN:1853,_RNvNtNtNtCsblqRvDQyS7m_18boundline_adapters12orchestrator6engine5testss_68ensure_stage_governance_skips_when_current_stage_is_already_recorded
FN:1592,_RNvNtNtNtCsblqRvDQyS7m_18boundline_adapters12orchestrator6engine5testss_73apply_governance_response_continues_after_optional_local_packet_rejection
FN:1721,_RNvNtNtNtCsblqRvDQyS7m_18boundline_adapters12orchestrator6engine5testss_74apply_governance_response_surfaces_canon_memory_for_rejected_canon_packets
FN:1201,_RNvXs1_NtNtNtCsblqRvDQyS7m_18boundline_adapters12orchestrator6engine5testsNtB5_14TestTraceStoreNtNtNtBb_8adapters11trace_store10TraceStore7persist
FN:1167,_RNvXs_NtNtNtCsblqRvDQyS7m_18boundline_adapters12orchestrator6engine5testsNtB4_11TestPlannerNtNtB8_7planner7Planner19create_initial_plan
FN:1175,_RNvXs_NtNtNtCsblqRvDQyS7m_18boundline_adapters12orchestrator6engine5testsNtB4_11TestPlannerNtNtB8_7planner7Planner6replan
FN:1305,_RNCNvNtNtNtCsblqRvDQyS7m_18boundline_adapters12orchestrator6engine5tests29build_governed_plan_for_stage0B9_
FN:1274,_RNCNvNtNtNtCsblqRvDQyS7m_18boundline_adapters12orchestrator6engine5tests34build_governance_profile_for_stage0B9_
FN:2027,_RNCNvNtNtNtCsblqRvDQyS7m_18boundline_adapters12orchestrator6engine5testss_52handle_governance_block_terminalizes_required_stages0B9_
FN:1847,_RNCNvNtNtNtCsblqRvDQyS7m_18boundline_adapters12orchestrator6engine5testss_53handle_governance_block_continues_for_optional_stages0B9_
FN:1979,_RNCNvNtNtNtCsblqRvDQyS7m_18boundline_adapters12orchestrator6engine5testss_56ensure_stage_governance_executes_available_canon_runtime0B9_
FN:1974,_RNCNvNtNtNtCsblqRvDQyS7m_18boundline_adapters12orchestrator6engine5testss_56ensure_stage_governance_executes_available_canon_runtimes0_0B9_
FN:1968,_RNCNvNtNtNtCsblqRvDQyS7m_18boundline_adapters12orchestrator6engine5testss_56ensure_stage_governance_executes_available_canon_runtimes_0B9_
FN:2137,_RNCNvNtNtNtCsblqRvDQyS7m_18boundline_adapters12orchestrator6engine5testss_59execute_step_dispatches_registered_agent_and_tool_endpoints0B9_
FN:2149,_RNCNvNtNtNtCsblqRvDQyS7m_18boundline_adapters12orchestrator6engine5testss_59execute_step_dispatches_registered_agent_and_tool_endpointss_0B9_
FN:1712,_RNCNvNtNtNtCsblqRvDQyS7m_18boundline_adapters12orchestrator6engine5testss_63apply_governance_response_terminalizes_when_approval_is_pending0B9_
FN:1707,_RNCNvNtNtNtCsblqRvDQyS7m_18boundline_adapters12orchestrator6engine5testss_63apply_governance_response_terminalizes_when_approval_is_pendings_0B9_
FN:2075,_RNCNvNtNtNtCsblqRvDQyS7m_18boundline_adapters12orchestrator6engine5testss_64run_normalizes_invalid_agent_results_into_unrecoverable_failures0B9_
FN:1654,_RNCNvNtNtNtCsblqRvDQyS7m_18boundline_adapters12orchestrator6engine5testss_73apply_governance_response_continues_after_optional_local_packet_rejection0B9_
FN:1657,_RNCNvNtNtNtCsblqRvDQyS7m_18boundline_adapters12orchestrator6engine5testss_73apply_governance_response_continues_after_optional_local_packet_rejections_0B9_
FN:1779,_RNCNvNtNtNtCsblqRvDQyS7m_18boundline_adapters12orchestrator6engine5testss_74apply_governance_response_surfaces_canon_memory_for_rejected_canon_packets0B9_
FN:1795,_RNCNvNtNtNtCsblqRvDQyS7m_18boundline_adapters12orchestrator6engine5testss_74apply_governance_response_surfaces_canon_memory_for_rejected_canon_packetss_0B9_
FN:1212,_RNvXs1_NtNtNtCsblqRvDQyS7m_18boundline_adapters12orchestrator6engine5testsNtB5_14TestTraceStoreNtNtNtBb_8adapters11trace_store10TraceStore4load
FN:1216,_RNvXs1_NtNtNtCsblqRvDQyS7m_18boundline_adapters12orchestrator6engine5testsNtB5_14TestTraceStoreNtNtNtBb_8adapters11trace_store10TraceStore6latest
FN:709,_RNCNCNvMNtNtCsblqRvDQyS7m_18boundline_adapters12orchestrator6engineINtB6_12OrchestratorNtNtB6_5tests11TestPlannerNtB1p_14TestTraceStoreE25apply_governance_responses0_00Ba_
FN:715,_RNCNCNvMNtNtCsblqRvDQyS7m_18boundline_adapters12orchestrator6engineINtB6_12OrchestratorNtNtB6_5tests11TestPlannerNtB1p_14TestTraceStoreE25apply_governance_responses0_0s_0Ba_
FN:1042,_RNCNvMNtNtCsblqRvDQyS7m_18boundline_adapters12orchestrator6engineINtB4_12OrchestratorNtNtB4_5tests11TestPlannerNtB1n_14TestTraceStoreE16execute_decision0B8_
FN:373,_RNCNvMNtNtCsblqRvDQyS7m_18boundline_adapters12orchestrator6engineINtB4_12OrchestratorNtNtB4_5tests11TestPlannerNtB1n_14TestTraceStoreE23ensure_stage_governance0B8_
FN:404,_RNCNvMNtNtCsblqRvDQyS7m_18boundline_adapters12orchestrator6engineINtB4_12OrchestratorNtNtB4_5tests11TestPlannerNtB1n_14TestTraceStoreE23ensure_stage_governances0_0B8_
FN:408,_RNCNvMNtNtCsblqRvDQyS7m_18boundline_adapters12orchestrator6engineINtB4_12OrchestratorNtNtB4_5tests11TestPlannerNtB1n_14TestTraceStoreE23ensure_stage_governances1_0B8_
FN:413,_RNCNvMNtNtCsblqRvDQyS7m_18boundline_adapters12orchestrator6engineINtB4_12OrchestratorNtNtB4_5tests11TestPlannerNtB1n_14TestTraceStoreE23ensure_stage_governances2_0B8_
FN:421,_RNCNvMNtNtCsblqRvDQyS7m_18boundline_adapters12orchestrator6engineINtB4_12OrchestratorNtNtB4_5tests11TestPlannerNtB1n_14TestTraceStoreE23ensure_stage_governances3_0B8_
FN:439,_RNCNvMNtNtCsblqRvDQyS7m_18boundline_adapters12orchestrator6engineINtB4_12OrchestratorNtNtB4_5tests11TestPlannerNtB1n_14TestTraceStoreE23ensure_stage_governances6_0B8_
FN:532,_RNCNvMNtNtCsblqRvDQyS7m_18boundline_adapters12orchestrator6engineINtB4_12OrchestratorNtNtB4_5tests11TestPlannerNtB1n_14TestTraceStoreE23ensure_stage_governances8_0B8_
FN:533,_RNCNvMNtNtCsblqRvDQyS7m_18boundline_adapters12orchestrator6engineINtB4_12OrchestratorNtNtB4_5tests11TestPlannerNtB1n_14TestTraceStoreE23ensure_stage_governances9_0B8_
FN:395,_RNCNvMNtNtCsblqRvDQyS7m_18boundline_adapters12orchestrator6engineINtB4_12OrchestratorNtNtB4_5tests11TestPlannerNtB1n_14TestTraceStoreE23ensure_stage_governances_0B8_
FN:534,_RNCNvMNtNtCsblqRvDQyS7m_18boundline_adapters12orchestrator6engineINtB4_12OrchestratorNtNtB4_5tests11TestPlannerNtB1n_14TestTraceStoreE23ensure_stage_governancesa_0B8_
FN:536,_RNCNvMNtNtCsblqRvDQyS7m_18boundline_adapters12orchestrator6engineINtB4_12OrchestratorNtNtB4_5tests11TestPlannerNtB1n_14TestTraceStoreE23ensure_stage_governancesb_0B8_
FN:558,_RNCNvMNtNtCsblqRvDQyS7m_18boundline_adapters12orchestrator6engineINtB4_12OrchestratorNtNtB4_5tests11TestPlannerNtB1n_14TestTraceStoreE23ensure_stage_governancesc_0B8_
FN:605,_RNCNvMNtNtCsblqRvDQyS7m_18boundline_adapters12orchestrator6engineINtB4_12OrchestratorNtNtB4_5tests11TestPlannerNtB1n_14TestTraceStoreE23ensure_stage_governancese_0B8_
FN:623,_RNCNvMNtNtCsblqRvDQyS7m_18boundline_adapters12orchestrator6engineINtB4_12OrchestratorNtNtB4_5tests11TestPlannerNtB1n_14TestTraceStoreE23ensure_stage_governancesf_0B8_
FN:552,_RNCNvMNtNtCsblqRvDQyS7m_18boundline_adapters12orchestrator6engineINtB4_12OrchestratorNtNtB4_5tests11TestPlannerNtB1n_14TestTraceStoreE23ensure_stage_governancesh_0B8_
FN:553,_RNCNvMNtNtCsblqRvDQyS7m_18boundline_adapters12orchestrator6engineINtB4_12OrchestratorNtNtB4_5tests11TestPlannerNtB1n_14TestTraceStoreE23ensure_stage_governancesi_0B8_
FN:617,_RNCNvMNtNtCsblqRvDQyS7m_18boundline_adapters12orchestrator6engineINtB4_12OrchestratorNtNtB4_5tests11TestPlannerNtB1n_14TestTraceStoreE23ensure_stage_governancesj_0B8_
FN:618,_RNCNvMNtNtCsblqRvDQyS7m_18boundline_adapters12orchestrator6engineINtB4_12OrchestratorNtNtB4_5tests11TestPlannerNtB1n_14TestTraceStoreE23ensure_stage_governancesk_0B8_
FN:904,_RNCNvMNtNtCsblqRvDQyS7m_18boundline_adapters12orchestrator6engineINtB4_12OrchestratorNtNtB4_5tests11TestPlannerNtB1n_14TestTraceStoreE23handle_governance_block0B8_
FN:927,_RNCNvMNtNtCsblqRvDQyS7m_18boundline_adapters12orchestrator6engineINtB4_12OrchestratorNtNtB4_5tests11TestPlannerNtB1n_14TestTraceStoreE23handle_governance_blocks0_0B8_
FN:928,_RNCNvMNtNtCsblqRvDQyS7m_18boundline_adapters12orchestrator6engineINtB4_12OrchestratorNtNtB4_5tests11TestPlannerNtB1n_14TestTraceStoreE23handle_governance_blocks1_0B8_
FN:929,_RNCNvMNtNtCsblqRvDQyS7m_18boundline_adapters12orchestrator6engineINtB4_12OrchestratorNtNtB4_5tests11TestPlannerNtB1n_14TestTraceStoreE23handle_governance_blocks2_0B8_
FN:930,_RNCNvMNtNtCsblqRvDQyS7m_18boundline_adapters12orchestrator6engineINtB4_12OrchestratorNtNtB4_5tests11TestPlannerNtB1n_14TestTraceStoreE23handle_governance_blocks3_0B8_
FN:931,_RNCNvMNtNtCsblqRvDQyS7m_18boundline_adapters12orchestrator6engineINtB4_12OrchestratorNtNtB4_5tests11TestPlannerNtB1n_14TestTraceStoreE23handle_governance_blocks4_0B8_
FN:932,_RNCNvMNtNtCsblqRvDQyS7m_18boundline_adapters12orchestrator6engineINtB4_12OrchestratorNtNtB4_5tests11TestPlannerNtB1n_14TestTraceStoreE23handle_governance_blocks5_0B8_
FN:933,_RNCNvMNtNtCsblqRvDQyS7m_18boundline_adapters12orchestrator6engineINtB4_12OrchestratorNtNtB4_5tests11TestPlannerNtB1n_14TestTraceStoreE23handle_governance_blocks6_0B8_
FN:933,_RNCNvMNtNtCsblqRvDQyS7m_18boundline_adapters12orchestrator6engineINtB4_12OrchestratorNtNtB4_5tests11TestPlannerNtB1n_14TestTraceStoreE23handle_governance_blocks7_0B8_
FN:916,_RNCNvMNtNtCsblqRvDQyS7m_18boundline_adapters12orchestrator6engineINtB4_12OrchestratorNtNtB4_5tests11TestPlannerNtB1n_14TestTraceStoreE23handle_governance_blocks_0B8_
FN:695,_RNCNvMNtNtCsblqRvDQyS7m_18boundline_adapters12orchestrator6engineINtB4_12OrchestratorNtNtB4_5tests11TestPlannerNtB1n_14TestTraceStoreE25apply_governance_response0B8_
FN:705,_RNCNvMNtNtCsblqRvDQyS7m_18boundline_adapters12orchestrator6engineINtB4_12OrchestratorNtNtB4_5tests11TestPlannerNtB1n_14TestTraceStoreE25apply_governance_responses0_0B8_
FN:725,_RNCNvMNtNtCsblqRvDQyS7m_18boundline_adapters12orchestrator6engineINtB4_12OrchestratorNtNtB4_5tests11TestPlannerNtB1n_14TestTraceStoreE25apply_governance_responses1_0B8_
FN:737,_RNCNvMNtNtCsblqRvDQyS7m_18boundline_adapters12orchestrator6engineINtB4_12OrchestratorNtNtB4_5tests11TestPlannerNtB1n_14TestTraceStoreE25apply_governance_responses2_0B8_
FN:738,_RNCNvMNtNtCsblqRvDQyS7m_18boundline_adapters12orchestrator6engineINtB4_12OrchestratorNtNtB4_5tests11TestPlannerNtB1n_14TestTraceStoreE25apply_governance_responses3_0B8_
FN:750,_RNCNvMNtNtCsblqRvDQyS7m_18boundline_adapters12orchestrator6engineINtB4_12OrchestratorNtNtB4_5tests11TestPlannerNtB1n_14TestTraceStoreE25apply_governance_responses4_0B8_
FN:766,_RNCNvMNtNtCsblqRvDQyS7m_18boundline_adapters12orchestrator6engineINtB4_12OrchestratorNtNtB4_5tests11TestPlannerNtB1n_14TestTraceStoreE25apply_governance_responses5_0B8_
FN:767,_RNCNvMNtNtCsblqRvDQyS7m_18boundline_adapters12orchestrator6engineINtB4_12OrchestratorNtNtB4_5tests11TestPlannerNtB1n_14TestTraceStoreE25apply_governance_responses6_0B8_
FN:768,_RNCNvMNtNtCsblqRvDQyS7m_18boundline_adapters12orchestrator6engineINtB4_12OrchestratorNtNtB4_5tests11TestPlannerNtB1n_14TestTraceStoreE25apply_governance_responses7_0B8_
FN:769,_RNCNvMNtNtCsblqRvDQyS7m_18boundline_adapters12orchestrator6engineINtB4_12OrchestratorNtNtB4_5tests11TestPlannerNtB1n_14TestTraceStoreE25apply_governance_responses8_0B8_
FN:770,_RNCNvMNtNtCsblqRvDQyS7m_18boundline_adapters12orchestrator6engineINtB4_12OrchestratorNtNtB4_5tests11TestPlannerNtB1n_14TestTraceStoreE25apply_governance_responses9_0B8_
FN:823,_RNCNvMNtNtCsblqRvDQyS7m_18boundline_adapters12orchestrator6engineINtB4_12OrchestratorNtNtB4_5tests11TestPlannerNtB1n_14TestTraceStoreE25apply_governance_responsesA_0B8_
FN:823,_RNCNvMNtNtCsblqRvDQyS7m_18boundline_adapters12orchestrator6engineINtB4_12OrchestratorNtNtB4_5tests11TestPlannerNtB1n_14TestTraceStoreE25apply_governance_responsesB_0B8_
FN:848,_RNCNvMNtNtCsblqRvDQyS7m_18boundline_adapters12orchestrator6engineINtB4_12OrchestratorNtNtB4_5tests11TestPlannerNtB1n_14TestTraceStoreE25apply_governance_responsesC_0B8_
FN:849,_RNCNvMNtNtCsblqRvDQyS7m_18boundline_adapters12orchestrator6engineINtB4_12OrchestratorNtNtB4_5tests11TestPlannerNtB1n_14TestTraceStoreE25apply_governance_responsesD_0B8_
FN:850,_RNCNvMNtNtCsblqRvDQyS7m_18boundline_adapters12orchestrator6engineINtB4_12OrchestratorNtNtB4_5tests11TestPlannerNtB1n_14TestTraceStoreE25apply_governance_responsesE_0B8_
FN:851,_RNCNvMNtNtCsblqRvDQyS7m_18boundline_adapters12orchestrator6engineINtB4_12OrchestratorNtNtB4_5tests11TestPlannerNtB1n_14TestTraceStoreE25apply_governance_responsesF_0B8_
FN:852,_RNCNvMNtNtCsblqRvDQyS7m_18boundline_adapters12orchestrator6engineINtB4_12OrchestratorNtNtB4_5tests11TestPlannerNtB1n_14TestTraceStoreE25apply_governance_responsesG_0B8_
FN:853,_RNCNvMNtNtCsblqRvDQyS7m_18boundline_adapters12orchestrator6engineINtB4_12OrchestratorNtNtB4_5tests11TestPlannerNtB1n_14TestTraceStoreE25apply_governance_responsesH_0B8_
FN:854,_RNCNvMNtNtCsblqRvDQyS7m_18boundline_adapters12orchestrator6engineINtB4_12OrchestratorNtNtB4_5tests11TestPlannerNtB1n_14TestTraceStoreE25apply_governance_responsesI_0B8_
FN:855,_RNCNvMNtNtCsblqRvDQyS7m_18boundline_adapters12orchestrator6engineINtB4_12OrchestratorNtNtB4_5tests11TestPlannerNtB1n_14TestTraceStoreE25apply_governance_responsesJ_0B8_
FN:856,_RNCNvMNtNtCsblqRvDQyS7m_18boundline_adapters12orchestrator6engineINtB4_12OrchestratorNtNtB4_5tests11TestPlannerNtB1n_14TestTraceStoreE25apply_governance_responsesK_0B8_
FN:857,_RNCNvMNtNtCsblqRvDQyS7m_18boundline_adapters12orchestrator6engineINtB4_12OrchestratorNtNtB4_5tests11TestPlannerNtB1n_14TestTraceStoreE25apply_governance_responsesL_0B8_
FN:857,_RNCNvMNtNtCsblqRvDQyS7m_18boundline_adapters12orchestrator6engineINtB4_12OrchestratorNtNtB4_5tests11TestPlannerNtB1n_14TestTraceStoreE25apply_governance_responsesM_0B8_
FN:704,_RNCNvMNtNtCsblqRvDQyS7m_18boundline_adapters12orchestrator6engineINtB4_12OrchestratorNtNtB4_5tests11TestPlannerNtB1n_14TestTraceStoreE25apply_governance_responses_0B8_
FN:771,_RNCNvMNtNtCsblqRvDQyS7m_18boundline_adapters12orchestrator6engineINtB4_12OrchestratorNtNtB4_5tests11TestPlannerNtB1n_14TestTraceStoreE25apply_governance_responsesa_0B8_
FN:772,_RNCNvMNtNtCsblqRvDQyS7m_18boundline_adapters12orchestrator6engineINtB4_12OrchestratorNtNtB4_5tests11TestPlannerNtB1n_14TestTraceStoreE25apply_governance_responsesb_0B8_
FN:773,_RNCNvMNtNtCsblqRvDQyS7m_18boundline_adapters12orchestrator6engineINtB4_12OrchestratorNtNtB4_5tests11TestPlannerNtB1n_14TestTraceStoreE25apply_governance_responsesc_0B8_
FN:787,_RNCNvMNtNtCsblqRvDQyS7m_18boundline_adapters12orchestrator6engineINtB4_12OrchestratorNtNtB4_5tests11TestPlannerNtB1n_14TestTraceStoreE25apply_governance_responsesd_0B8_
FN:789,_RNCNvMNtNtCsblqRvDQyS7m_18boundline_adapters12orchestrator6engineINtB4_12OrchestratorNtNtB4_5tests11TestPlannerNtB1n_14TestTraceStoreE25apply_governance_responsesf_0B8_
FN:790,_RNCNvMNtNtCsblqRvDQyS7m_18boundline_adapters12orchestrator6engineINtB4_12OrchestratorNtNtB4_5tests11TestPlannerNtB1n_14TestTraceStoreE25apply_governance_responsesg_0B8_
FN:790,_RNCNvMNtNtCsblqRvDQyS7m_18boundline_adapters12orchestrator6engineINtB4_12OrchestratorNtNtB4_5tests11TestPlannerNtB1n_14TestTraceStoreE25apply_governance_responsesh_0B8_
FN:791,_RNCNvMNtNtCsblqRvDQyS7m_18boundline_adapters12orchestrator6engineINtB4_12OrchestratorNtNtB4_5tests11TestPlannerNtB1n_14TestTraceStoreE25apply_governance_responsesi_0B8_
FN:792,_RNCNvMNtNtCsblqRvDQyS7m_18boundline_adapters12orchestrator6engineINtB4_12OrchestratorNtNtB4_5tests11TestPlannerNtB1n_14TestTraceStoreE25apply_governance_responsesj_0B8_
FN:793,_RNCNvMNtNtCsblqRvDQyS7m_18boundline_adapters12orchestrator6engineINtB4_12OrchestratorNtNtB4_5tests11TestPlannerNtB1n_14TestTraceStoreE25apply_governance_responsesk_0B8_
FN:794,_RNCNvMNtNtCsblqRvDQyS7m_18boundline_adapters12orchestrator6engineINtB4_12OrchestratorNtNtB4_5tests11TestPlannerNtB1n_14TestTraceStoreE25apply_governance_responsesl_0B8_
FN:795,_RNCNvMNtNtCsblqRvDQyS7m_18boundline_adapters12orchestrator6engineINtB4_12OrchestratorNtNtB4_5tests11TestPlannerNtB1n_14TestTraceStoreE25apply_governance_responsesm_0B8_
FN:796,_RNCNvMNtNtCsblqRvDQyS7m_18boundline_adapters12orchestrator6engineINtB4_12OrchestratorNtNtB4_5tests11TestPlannerNtB1n_14TestTraceStoreE25apply_governance_responsesn_0B8_
FN:797,_RNCNvMNtNtCsblqRvDQyS7m_18boundline_adapters12orchestrator6engineINtB4_12OrchestratorNtNtB4_5tests11TestPlannerNtB1n_14TestTraceStoreE25apply_governance_responseso_0B8_
FN:798,_RNCNvMNtNtCsblqRvDQyS7m_18boundline_adapters12orchestrator6engineINtB4_12OrchestratorNtNtB4_5tests11TestPlannerNtB1n_14TestTraceStoreE25apply_governance_responsesp_0B8_
FN:799,_RNCNvMNtNtCsblqRvDQyS7m_18boundline_adapters12orchestrator6engineINtB4_12OrchestratorNtNtB4_5tests11TestPlannerNtB1n_14TestTraceStoreE25apply_governance_responsesq_0B8_
FN:799,_RNCNvMNtNtCsblqRvDQyS7m_18boundline_adapters12orchestrator6engineINtB4_12OrchestratorNtNtB4_5tests11TestPlannerNtB1n_14TestTraceStoreE25apply_governance_responsesr_0B8_
FN:815,_RNCNvMNtNtCsblqRvDQyS7m_18boundline_adapters12orchestrator6engineINtB4_12OrchestratorNtNtB4_5tests11TestPlannerNtB1n_14TestTraceStoreE25apply_governance_responsess_0B8_
FN:816,_RNCNvMNtNtCsblqRvDQyS7m_18boundline_adapters12orchestrator6engineINtB4_12OrchestratorNtNtB4_5tests11TestPlannerNtB1n_14TestTraceStoreE25apply_governance_responsest_0B8_
FN:817,_RNCNvMNtNtCsblqRvDQyS7m_18boundline_adapters12orchestrator6engineINtB4_12OrchestratorNtNtB4_5tests11TestPlannerNtB1n_14TestTraceStoreE25apply_governance_responsesu_0B8_
FN:818,_RNCNvMNtNtCsblqRvDQyS7m_18boundline_adapters12orchestrator6engineINtB4_12OrchestratorNtNtB4_5tests11TestPlannerNtB1n_14TestTraceStoreE25apply_governance_responsesv_0B8_
FN:819,_RNCNvMNtNtCsblqRvDQyS7m_18boundline_adapters12orchestrator6engineINtB4_12OrchestratorNtNtB4_5tests11TestPlannerNtB1n_14TestTraceStoreE25apply_governance_responsesw_0B8_
FN:820,_RNCNvMNtNtCsblqRvDQyS7m_18boundline_adapters12orchestrator6engineINtB4_12OrchestratorNtNtB4_5tests11TestPlannerNtB1n_14TestTraceStoreE25apply_governance_responsesx_0B8_
FN:821,_RNCNvMNtNtCsblqRvDQyS7m_18boundline_adapters12orchestrator6engineINtB4_12OrchestratorNtNtB4_5tests11TestPlannerNtB1n_14TestTraceStoreE25apply_governance_responsesy_0B8_
FN:822,_RNCNvMNtNtCsblqRvDQyS7m_18boundline_adapters12orchestrator6engineINtB4_12OrchestratorNtNtB4_5tests11TestPlannerNtB1n_14TestTraceStoreE25apply_governance_responsesz_0B8_
FN:348,_RNCNvMNtNtCsblqRvDQyS7m_18boundline_adapters12orchestrator6engineINtB4_12OrchestratorNtNtB4_5tests11TestPlannerNtB1n_14TestTraceStoreE3run0B8_
FN:955,_RNvMNtNtCsblqRvDQyS7m_18boundline_adapters12orchestrator6engineINtB2_12OrchestratorNtNtB2_5tests11TestPlannerNtB1l_14TestTraceStoreE12execute_stepB6_
FN:991,_RNvMNtNtCsblqRvDQyS7m_18boundline_adapters12orchestrator6engineINtB2_12OrchestratorNtNtB2_5tests11TestPlannerNtB1l_14TestTraceStoreE12execute_toolB6_
FN:963,_RNvMNtNtCsblqRvDQyS7m_18boundline_adapters12orchestrator6engineINtB2_12OrchestratorNtNtB2_5tests11TestPlannerNtB1l_14TestTraceStoreE13execute_agentB6_
FN:1065,_RNvMNtNtCsblqRvDQyS7m_18boundline_adapters12orchestrator6engineINtB2_12OrchestratorNtNtB2_5tests11TestPlannerNtB1l_14TestTraceStoreE13finalize_taskB6_
FN:1086,_RNvMNtNtCsblqRvDQyS7m_18boundline_adapters12orchestrator6engineINtB2_12OrchestratorNtNtB2_5tests11TestPlannerNtB1l_14TestTraceStoreE13persist_traceB6_
FN:57,_RNvMNtNtCsblqRvDQyS7m_18boundline_adapters12orchestrator6engineINtB2_12OrchestratorNtNtB2_5tests11TestPlannerNtB1l_14TestTraceStoreE15with_governanceB6_
FN:1016,_RNvMNtNtCsblqRvDQyS7m_18boundline_adapters12orchestrator6engineINtB2_12OrchestratorNtNtB2_5tests11TestPlannerNtB1l_14TestTraceStoreE16execute_decisionB6_
FN:1051,_RNvMNtNtCsblqRvDQyS7m_18boundline_adapters12orchestrator6engineINtB2_12OrchestratorNtNtB2_5tests11TestPlannerNtB1l_14TestTraceStoreE16normalize_resultB6_
FN:364,_RNvMNtNtCsblqRvDQyS7m_18boundline_adapters12orchestrator6engineINtB2_12OrchestratorNtNtB2_5tests11TestPlannerNtB1l_14TestTraceStoreE23ensure_stage_governanceB6_
FN:882,_RNvMNtNtCsblqRvDQyS7m_18boundline_adapters12orchestrator6engineINtB2_12OrchestratorNtNtB2_5tests11TestPlannerNtB1l_14TestTraceStoreE23handle_governance_blockB6_
FN:682,_RNvMNtNtCsblqRvDQyS7m_18boundline_adapters12orchestrator6engineINtB2_12OrchestratorNtNtB2_5tests11TestPlannerNtB1l_14TestTraceStoreE25apply_governance_responseB6_
FN:657,_RNvMNtNtCsblqRvDQyS7m_18boundline_adapters12orchestrator6engineINtB2_12OrchestratorNtNtB2_5tests11TestPlannerNtB1l_14TestTraceStoreE32record_governance_decision_eventB6_
FN:53,_RNvMNtNtCsblqRvDQyS7m_18boundline_adapters12orchestrator6engineINtB2_12OrchestratorNtNtB2_5tests11TestPlannerNtB1l_14TestTraceStoreE3newB6_
FN:67,_RNvMNtNtCsblqRvDQyS7m_18boundline_adapters12orchestrator6engineINtB2_12OrchestratorNtNtB2_5tests11TestPlannerNtB1l_14TestTraceStoreE3runB6_
FNDA:0,_RNCNCNvMNtNtCsgV4MOW29Zwc_18boundline_adapters12orchestrator6engineINtB6_12OrchestratorINtNtCs1OjIl8oxbrv_5alloc4sync3ArcDNtNtB8_7planner7PlannerEL_ENtNtNtBa_8adapters11trace_store14FileTraceStoreE25apply_governance_responses0_00Cs9UpcZiueOLV_13boundline_cli
FNDA:0,_RNCNCNvMNtNtCsgV4MOW29Zwc_18boundline_adapters12orchestrator6engineINtB6_12OrchestratorINtNtCs1OjIl8oxbrv_5alloc4sync3ArcDNtNtB8_7planner7PlannerEL_ENtNtNtBa_8adapters11trace_store14FileTraceStoreE25apply_governance_responses0_0s_0Cs9UpcZiueOLV_13boundline_cli
FNDA:0,_RNCNvMNtNtCsgV4MOW29Zwc_18boundline_adapters12orchestrator6engineINtB4_12OrchestratorINtNtCs1OjIl8oxbrv_5alloc4sync3ArcDNtNtB6_7planner7PlannerEL_ENtNtNtB8_8adapters11trace_store14FileTraceStoreE16execute_decision0Cs9UpcZiueOLV_13boundline_cli
FNDA:0,_RNCNvMNtNtCsgV4MOW29Zwc_18boundline_adapters12orchestrator6engineINtB4_12OrchestratorINtNtCs1OjIl8oxbrv_5alloc4sync3ArcDNtNtB6_7planner7PlannerEL_ENtNtNtB8_8adapters11trace_store14FileTraceStoreE23ensure_stage_governance0Cs9UpcZiueOLV_13boundline_cli
FNDA:0,_RNCNvMNtNtCsgV4MOW29Zwc_18boundline_adapters12orchestrator6engineINtB4_12OrchestratorINtNtCs1OjIl8oxbrv_5alloc4sync3ArcDNtNtB6_7planner7PlannerEL_ENtNtNtB8_8adapters11trace_store14FileTraceStoreE23ensure_stage_governances0_0Cs9UpcZiueOLV_13boundline_cli
FNDA:0,_RNCNvMNtNtCsgV4MOW29Zwc_18boundline_adapters12orchestrator6engineINtB4_12OrchestratorINtNtCs1OjIl8oxbrv_5alloc4sync3ArcDNtNtB6_7planner7PlannerEL_ENtNtNtB8_8adapters11trace_store14FileTraceStoreE23ensure_stage_governances1_0Cs9UpcZiueOLV_13boundline_cli
FNDA:0,_RNCNvMNtNtCsgV4MOW29Zwc_18boundline_adapters12orchestrator6engineINtB4_12OrchestratorINtNtCs1OjIl8oxbrv_5alloc4sync3ArcDNtNtB6_7planner7PlannerEL_ENtNtNtB8_8adapters11trace_store14FileTraceStoreE23ensure_stage_governances2_0Cs9UpcZiueOLV_13boundline_cli
FNDA:0,_RNCNvMNtNtCsgV4MOW29Zwc_18boundline_adapters12orchestrator6engineINtB4_12OrchestratorINtNtCs1OjIl8oxbrv_5alloc4sync3ArcDNtNtB6_7planner7PlannerEL_ENtNtNtB8_8adapters11trace_store14FileTraceStoreE23ensure_stage_governances3_0Cs9UpcZiueOLV_13boundline_cli
FNDA:0,_RNCNvMNtNtCsgV4MOW29Zwc_18boundline_adapters12orchestrator6engineINtB4_12OrchestratorINtNtCs1OjIl8oxbrv_5alloc4sync3ArcDNtNtB6_7planner7PlannerEL_ENtNtNtB8_8adapters11trace_store14FileTraceStoreE23ensure_stage_governances6_0Cs9UpcZiueOLV_13boundline_cli
FNDA:0,_RNCNvMNtNtCsgV4MOW29Zwc_18boundline_adapters12orchestrator6engineINtB4_12OrchestratorINtNtCs1OjIl8oxbrv_5alloc4sync3ArcDNtNtB6_7planner7PlannerEL_ENtNtNtB8_8adapters11trace_store14FileTraceStoreE23ensure_stage_governances8_0Cs9UpcZiueOLV_13boundline_cli
FNDA:0,_RNCNvMNtNtCsgV4MOW29Zwc_18boundline_adapters12orchestrator6engineINtB4_12OrchestratorINtNtCs1OjIl8oxbrv_5alloc4sync3ArcDNtNtB6_7planner7PlannerEL_ENtNtNtB8_8adapters11trace_store14FileTraceStoreE23ensure_stage_governances9_0Cs9UpcZiueOLV_13boundline_cli
FNDA:0,_RNCNvMNtNtCsgV4MOW29Zwc_18boundline_adapters12orchestrator6engineINtB4_12OrchestratorINtNtCs1OjIl8oxbrv_5alloc4sync3ArcDNtNtB6_7planner7PlannerEL_ENtNtNtB8_8adapters11trace_store14FileTraceStoreE23ensure_stage_governances_0Cs9UpcZiueOLV_13boundline_cli
FNDA:0,_RNCNvMNtNtCsgV4MOW29Zwc_18boundline_adapters12orchestrator6engineINtB4_12OrchestratorINtNtCs1OjIl8oxbrv_5alloc4sync3ArcDNtNtB6_7planner7PlannerEL_ENtNtNtB8_8adapters11trace_store14FileTraceStoreE23ensure_stage_governancesa_0Cs9UpcZiueOLV_13boundline_cli
FNDA:0,_RNCNvMNtNtCsgV4MOW29Zwc_18boundline_adapters12orchestrator6engineINtB4_12OrchestratorINtNtCs1OjIl8oxbrv_5alloc4sync3ArcDNtNtB6_7planner7PlannerEL_ENtNtNtB8_8adapters11trace_store14FileTraceStoreE23ensure_stage_governancesb_0Cs9UpcZiueOLV_13boundline_cli
FNDA:0,_RNCNvMNtNtCsgV4MOW29Zwc_18boundline_adapters12orchestrator6engineINtB4_12OrchestratorINtNtCs1OjIl8oxbrv_5alloc4sync3ArcDNtNtB6_7planner7PlannerEL_ENtNtNtB8_8adapters11trace_store14FileTraceStoreE23ensure_stage_governancesc_0Cs9UpcZiueOLV_13boundline_cli
FNDA:0,_RNCNvMNtNtCsgV4MOW29Zwc_18boundline_adapters12orchestrator6engineINtB4_12OrchestratorINtNtCs1OjIl8oxbrv_5alloc4sync3ArcDNtNtB6_7planner7PlannerEL_ENtNtNtB8_8adapters11trace_store14FileTraceStoreE23ensure_stage_governancese_0Cs9UpcZiueOLV_13boundline_cli
FNDA:0,_RNCNvMNtNtCsgV4MOW29Zwc_18boundline_adapters12orchestrator6engineINtB4_12OrchestratorINtNtCs1OjIl8oxbrv_5alloc4sync3ArcDNtNtB6_7planner7PlannerEL_ENtNtNtB8_8adapters11trace_store14FileTraceStoreE23ensure_stage_governancesf_0Cs9UpcZiueOLV_13boundline_cli
FNDA:0,_RNCNvMNtNtCsgV4MOW29Zwc_18boundline_adapters12orchestrator6engineINtB4_12OrchestratorINtNtCs1OjIl8oxbrv_5alloc4sync3ArcDNtNtB6_7planner7PlannerEL_ENtNtNtB8_8adapters11trace_store14FileTraceStoreE23ensure_stage_governancesh_0Cs9UpcZiueOLV_13boundline_cli
FNDA:0,_RNCNvMNtNtCsgV4MOW29Zwc_18boundline_adapters12orchestrator6engineINtB4_12OrchestratorINtNtCs1OjIl8oxbrv_5alloc4sync3ArcDNtNtB6_7planner7PlannerEL_ENtNtNtB8_8adapters11trace_store14FileTraceStoreE23ensure_stage_governancesi_0Cs9UpcZiueOLV_13boundline_cli
FNDA:0,_RNCNvMNtNtCsgV4MOW29Zwc_18boundline_adapters12orchestrator6engineINtB4_12OrchestratorINtNtCs1OjIl8oxbrv_5alloc4sync3ArcDNtNtB6_7planner7PlannerEL_ENtNtNtB8_8adapters11trace_store14FileTraceStoreE23ensure_stage_governancesj_0Cs9UpcZiueOLV_13boundline_cli
FNDA:0,_RNCNvMNtNtCsgV4MOW29Zwc_18boundline_adapters12orchestrator6engineINtB4_12OrchestratorINtNtCs1OjIl8oxbrv_5alloc4sync3ArcDNtNtB6_7planner7PlannerEL_ENtNtNtB8_8adapters11trace_store14FileTraceStoreE23ensure_stage_governancesk_0Cs9UpcZiueOLV_13boundline_cli
FNDA:0,_RNCNvMNtNtCsgV4MOW29Zwc_18boundline_adapters12orchestrator6engineINtB4_12OrchestratorINtNtCs1OjIl8oxbrv_5alloc4sync3ArcDNtNtB6_7planner7PlannerEL_ENtNtNtB8_8adapters11trace_store14FileTraceStoreE23handle_governance_block0Cs9UpcZiueOLV_13boundline_cli
FNDA:0,_RNCNvMNtNtCsgV4MOW29Zwc_18boundline_adapters12orchestrator6engineINtB4_12OrchestratorINtNtCs1OjIl8oxbrv_5alloc4sync3ArcDNtNtB6_7planner7PlannerEL_ENtNtNtB8_8adapters11trace_store14FileTraceStoreE23handle_governance_blocks0_0Cs9UpcZiueOLV_13boundline_cli
FNDA:0,_RNCNvMNtNtCsgV4MOW29Zwc_18boundline_adapters12orchestrator6engineINtB4_12OrchestratorINtNtCs1OjIl8oxbrv_5alloc4sync3ArcDNtNtB6_7planner7PlannerEL_ENtNtNtB8_8adapters11trace_store14FileTraceStoreE23handle_governance_blocks1_0Cs9UpcZiueOLV_13boundline_cli
FNDA:0,_RNCNvMNtNtCsgV4MOW29Zwc_18boundline_adapters12orchestrator6engineINtB4_12OrchestratorINtNtCs1OjIl8oxbrv_5alloc4sync3ArcDNtNtB6_7planner7PlannerEL_ENtNtNtB8_8adapters11trace_store14FileTraceStoreE23handle_governance_blocks2_0Cs9UpcZiueOLV_13boundline_cli
FNDA:0,_RNCNvMNtNtCsgV4MOW29Zwc_18boundline_adapters12orchestrator6engineINtB4_12OrchestratorINtNtCs1OjIl8oxbrv_5alloc4sync3ArcDNtNtB6_7planner7PlannerEL_ENtNtNtB8_8adapters11trace_store14FileTraceStoreE23handle_governance_blocks3_0Cs9UpcZiueOLV_13boundline_cli
FNDA:0,_RNCNvMNtNtCsgV4MOW29Zwc_18boundline_adapters12orchestrator6engineINtB4_12OrchestratorINtNtCs1OjIl8oxbrv_5alloc4sync3ArcDNtNtB6_7planner7PlannerEL_ENtNtNtB8_8adapters11trace_store14FileTraceStoreE23handle_governance_blocks4_0Cs9UpcZiueOLV_13boundline_cli
FNDA:0,_RNCNvMNtNtCsgV4MOW29Zwc_18boundline_adapters12orchestrator6engineINtB4_12OrchestratorINtNtCs1OjIl8oxbrv_5alloc4sync3ArcDNtNtB6_7planner7PlannerEL_ENtNtNtB8_8adapters11trace_store14FileTraceStoreE23handle_governance_blocks5_0Cs9UpcZiueOLV_13boundline_cli
FNDA:0,_RNCNvMNtNtCsgV4MOW29Zwc_18boundline_adapters12orchestrator6engineINtB4_12OrchestratorINtNtCs1OjIl8oxbrv_5alloc4sync3ArcDNtNtB6_7planner7PlannerEL_ENtNtNtB8_8adapters11trace_store14FileTraceStoreE23handle_governance_blocks6_0Cs9UpcZiueOLV_13boundline_cli
FNDA:0,_RNCNvMNtNtCsgV4MOW29Zwc_18boundline_adapters12orchestrator6engineINtB4_12OrchestratorINtNtCs1OjIl8oxbrv_5alloc4sync3ArcDNtNtB6_7planner7PlannerEL_ENtNtNtB8_8adapters11trace_store14FileTraceStoreE23handle_governance_blocks7_0Cs9UpcZiueOLV_13boundline_cli
FNDA:0,_RNCNvMNtNtCsgV4MOW29Zwc_18boundline_adapters12orchestrator6engineINtB4_12OrchestratorINtNtCs1OjIl8oxbrv_5alloc4sync3ArcDNtNtB6_7planner7PlannerEL_ENtNtNtB8_8adapters11trace_store14FileTraceStoreE23handle_governance_blocks_0Cs9UpcZiueOLV_13boundline_cli
FNDA:0,_RNCNvMNtNtCsgV4MOW29Zwc_18boundline_adapters12orchestrator6engineINtB4_12OrchestratorINtNtCs1OjIl8oxbrv_5alloc4sync3ArcDNtNtB6_7planner7PlannerEL_ENtNtNtB8_8adapters11trace_store14FileTraceStoreE25apply_governance_response0Cs9UpcZiueOLV_13boundline_cli
FNDA:0,_RNCNvMNtNtCsgV4MOW29Zwc_18boundline_adapters12orchestrator6engineINtB4_12OrchestratorINtNtCs1OjIl8oxbrv_5alloc4sync3ArcDNtNtB6_7planner7PlannerEL_ENtNtNtB8_8adapters11trace_store14FileTraceStoreE25apply_governance_responses0_0Cs9UpcZiueOLV_13boundline_cli
FNDA:0,_RNCNvMNtNtCsgV4MOW29Zwc_18boundline_adapters12orchestrator6engineINtB4_12OrchestratorINtNtCs1OjIl8oxbrv_5alloc4sync3ArcDNtNtB6_7planner7PlannerEL_ENtNtNtB8_8adapters11trace_store14FileTraceStoreE25apply_governance_responses1_0Cs9UpcZiueOLV_13boundline_cli
FNDA:0,_RNCNvMNtNtCsgV4MOW29Zwc_18boundline_adapters12orchestrator6engineINtB4_12OrchestratorINtNtCs1OjIl8oxbrv_5alloc4sync3ArcDNtNtB6_7planner7PlannerEL_ENtNtNtB8_8adapters11trace_store14FileTraceStoreE25apply_governance_responses2_0Cs9UpcZiueOLV_13boundline_cli
FNDA:0,_RNCNvMNtNtCsgV4MOW29Zwc_18boundline_adapters12orchestrator6engineINtB4_12OrchestratorINtNtCs1OjIl8oxbrv_5alloc4sync3ArcDNtNtB6_7planner7PlannerEL_ENtNtNtB8_8adapters11trace_store14FileTraceStoreE25apply_governance_responses3_0Cs9UpcZiueOLV_13boundline_cli
FNDA:0,_RNCNvMNtNtCsgV4MOW29Zwc_18boundline_adapters12orchestrator6engineINtB4_12OrchestratorINtNtCs1OjIl8oxbrv_5alloc4sync3ArcDNtNtB6_7planner7PlannerEL_ENtNtNtB8_8adapters11trace_store14FileTraceStoreE25apply_governance_responses4_0Cs9UpcZiueOLV_13boundline_cli
FNDA:0,_RNCNvMNtNtCsgV4MOW29Zwc_18boundline_adapters12orchestrator6engineINtB4_12OrchestratorINtNtCs1OjIl8oxbrv_5alloc4sync3ArcDNtNtB6_7planner7PlannerEL_ENtNtNtB8_8adapters11trace_store14FileTraceStoreE25apply_governance_responses5_0Cs9UpcZiueOLV_13boundline_cli
FNDA:0,_RNCNvMNtNtCsgV4MOW29Zwc_18boundline_adapters12orchestrator6engineINtB4_12OrchestratorINtNtCs1OjIl8oxbrv_5alloc4sync3ArcDNtNtB6_7planner7PlannerEL_ENtNtNtB8_8adapters11trace_store14FileTraceStoreE25apply_governance_responses6_0Cs9UpcZiueOLV_13boundline_cli
FNDA:0,_RNCNvMNtNtCsgV4MOW29Zwc_18boundline_adapters12orchestrator6engineINtB4_12OrchestratorINtNtCs1OjIl8oxbrv_5alloc4sync3ArcDNtNtB6_7planner7PlannerEL_ENtNtNtB8_8adapters11trace_store14FileTraceStoreE25apply_governance_responses7_0Cs9UpcZiueOLV_13boundline_cli
FNDA:0,_RNCNvMNtNtCsgV4MOW29Zwc_18boundline_adapters12orchestrator6engineINtB4_12OrchestratorINtNtCs1OjIl8oxbrv_5alloc4sync3ArcDNtNtB6_7planner7PlannerEL_ENtNtNtB8_8adapters11trace_store14FileTraceStoreE25apply_governance_responses8_0Cs9UpcZiueOLV_13boundline_cli
FNDA:0,_RNCNvMNtNtCsgV4MOW29Zwc_18boundline_adapters12orchestrator6engineINtB4_12OrchestratorINtNtCs1OjIl8oxbrv_5alloc4sync3ArcDNtNtB6_7planner7PlannerEL_ENtNtNtB8_8adapters11trace_store14FileTraceStoreE25apply_governance_responses9_0Cs9UpcZiueOLV_13boundline_cli
FNDA:0,_RNCNvMNtNtCsgV4MOW29Zwc_18boundline_adapters12orchestrator6engineINtB4_12OrchestratorINtNtCs1OjIl8oxbrv_5alloc4sync3ArcDNtNtB6_7planner7PlannerEL_ENtNtNtB8_8adapters11trace_store14FileTraceStoreE25apply_governance_responsesA_0Cs9UpcZiueOLV_13boundline_cli
FNDA:0,_RNCNvMNtNtCsgV4MOW29Zwc_18boundline_adapters12orchestrator6engineINtB4_12OrchestratorINtNtCs1OjIl8oxbrv_5alloc4sync3ArcDNtNtB6_7planner7PlannerEL_ENtNtNtB8_8adapters11trace_store14FileTraceStoreE25apply_governance_responsesB_0Cs9UpcZiueOLV_13boundline_cli
FNDA:0,_RNCNvMNtNtCsgV4MOW29Zwc_18boundline_adapters12orchestrator6engineINtB4_12OrchestratorINtNtCs1OjIl8oxbrv_5alloc4sync3ArcDNtNtB6_7planner7PlannerEL_ENtNtNtB8_8adapters11trace_store14FileTraceStoreE25apply_governance_responsesC_0Cs9UpcZiueOLV_13boundline_cli
FNDA:0,_RNCNvMNtNtCsgV4MOW29Zwc_18boundline_adapters12orchestrator6engineINtB4_12OrchestratorINtNtCs1OjIl8oxbrv_5alloc4sync3ArcDNtNtB6_7planner7PlannerEL_ENtNtNtB8_8adapters11trace_store14FileTraceStoreE25apply_governance_responsesD_0Cs9UpcZiueOLV_13boundline_cli
FNDA:0,_RNCNvMNtNtCsgV4MOW29Zwc_18boundline_adapters12orchestrator6engineINtB4_12OrchestratorINtNtCs1OjIl8oxbrv_5alloc4sync3ArcDNtNtB6_7planner7PlannerEL_ENtNtNtB8_8adapters11trace_store14FileTraceStoreE25apply_governance_responsesE_0Cs9UpcZiueOLV_13boundline_cli
FNDA:0,_RNCNvMNtNtCsgV4MOW29Zwc_18boundline_adapters12orchestrator6engineINtB4_12OrchestratorINtNtCs1OjIl8oxbrv_5alloc4sync3ArcDNtNtB6_7planner7PlannerEL_ENtNtNtB8_8adapters11trace_store14FileTraceStoreE25apply_governance_responsesF_0Cs9UpcZiueOLV_13boundline_cli
FNDA:0,_RNCNvMNtNtCsgV4MOW29Zwc_18boundline_adapters12orchestrator6engineINtB4_12OrchestratorINtNtCs1OjIl8oxbrv_5alloc4sync3ArcDNtNtB6_7planner7PlannerEL_ENtNtNtB8_8adapters11trace_store14FileTraceStoreE25apply_governance_responsesG_0Cs9UpcZiueOLV_13boundline_cli
FNDA:0,_RNCNvMNtNtCsgV4MOW29Zwc_18boundline_adapters12orchestrator6engineINtB4_12OrchestratorINtNtCs1OjIl8oxbrv_5alloc4sync3ArcDNtNtB6_7planner7PlannerEL_ENtNtNtB8_8adapters11trace_store14FileTraceStoreE25apply_governance_responsesH_0Cs9UpcZiueOLV_13boundline_cli
FNDA:0,_RNCNvMNtNtCsgV4MOW29Zwc_18boundline_adapters12orchestrator6engineINtB4_12OrchestratorINtNtCs1OjIl8oxbrv_5alloc4sync3ArcDNtNtB6_7planner7PlannerEL_ENtNtNtB8_8adapters11trace_store14FileTraceStoreE25apply_governance_responsesI_0Cs9UpcZiueOLV_13boundline_cli
FNDA:0,_RNCNvMNtNtCsgV4MOW29Zwc_18boundline_adapters12orchestrator6engineINtB4_12OrchestratorINtNtCs1OjIl8oxbrv_5alloc4sync3ArcDNtNtB6_7planner7PlannerEL_ENtNtNtB8_8adapters11trace_store14FileTraceStoreE25apply_governance_responsesJ_0Cs9UpcZiueOLV_13boundline_cli
FNDA:0,_RNCNvMNtNtCsgV4MOW29Zwc_18boundline_adapters12orchestrator6engineINtB4_12OrchestratorINtNtCs1OjIl8oxbrv_5alloc4sync3ArcDNtNtB6_7planner7PlannerEL_ENtNtNtB8_8adapters11trace_store14FileTraceStoreE25apply_governance_responsesK_0Cs9UpcZiueOLV_13boundline_cli
FNDA:0,_RNCNvMNtNtCsgV4MOW29Zwc_18boundline_adapters12orchestrator6engineINtB4_12OrchestratorINtNtCs1OjIl8oxbrv_5alloc4sync3ArcDNtNtB6_7planner7PlannerEL_ENtNtNtB8_8adapters11trace_store14FileTraceStoreE25apply_governance_responsesL_0Cs9UpcZiueOLV_13boundline_cli
FNDA:0,_RNCNvMNtNtCsgV4MOW29Zwc_18boundline_adapters12orchestrator6engineINtB4_12OrchestratorINtNtCs1OjIl8oxbrv_5alloc4sync3ArcDNtNtB6_7planner7PlannerEL_ENtNtNtB8_8adapters11trace_store14FileTraceStoreE25apply_governance_responsesM_0Cs9UpcZiueOLV_13boundline_cli
FNDA:0,_RNCNvMNtNtCsgV4MOW29Zwc_18boundline_adapters12orchestrator6engineINtB4_12OrchestratorINtNtCs1OjIl8oxbrv_5alloc4sync3ArcDNtNtB6_7planner7PlannerEL_ENtNtNtB8_8adapters11trace_store14FileTraceStoreE25apply_governance_responses_0Cs9UpcZiueOLV_13boundline_cli
FNDA:0,_RNCNvMNtNtCsgV4MOW29Zwc_18boundline_adapters12orchestrator6engineINtB4_12OrchestratorINtNtCs1OjIl8oxbrv_5alloc4sync3ArcDNtNtB6_7planner7PlannerEL_ENtNtNtB8_8adapters11trace_store14FileTraceStoreE25apply_governance_responsesa_0Cs9UpcZiueOLV_13boundline_cli
FNDA:0,_RNCNvMNtNtCsgV4MOW29Zwc_18boundline_adapters12orchestrator6engineINtB4_12OrchestratorINtNtCs1OjIl8oxbrv_5alloc4sync3ArcDNtNtB6_7planner7PlannerEL_ENtNtNtB8_8adapters11trace_store14FileTraceStoreE25apply_governance_responsesb_0Cs9UpcZiueOLV_13boundline_cli
FNDA:0,_RNCNvMNtNtCsgV4MOW29Zwc_18boundline_adapters12orchestrator6engineINtB4_12OrchestratorINtNtCs1OjIl8oxbrv_5alloc4sync3ArcDNtNtB6_7planner7PlannerEL_ENtNtNtB8_8adapters11trace_store14FileTraceStoreE25apply_governance_responsesc_0Cs9UpcZiueOLV_13boundline_cli
FNDA:0,_RNCNvMNtNtCsgV4MOW29Zwc_18boundline_adapters12orchestrator6engineINtB4_12OrchestratorINtNtCs1OjIl8oxbrv_5alloc4sync3ArcDNtNtB6_7planner7PlannerEL_ENtNtNtB8_8adapters11trace_store14FileTraceStoreE25apply_governance_responsesd_0Cs9UpcZiueOLV_13boundline_cli
FNDA:0,_RNCNvMNtNtCsgV4MOW29Zwc_18boundline_adapters12orchestrator6engineINtB4_12OrchestratorINtNtCs1OjIl8oxbrv_5alloc4sync3ArcDNtNtB6_7planner7PlannerEL_ENtNtNtB8_8adapters11trace_store14FileTraceStoreE25apply_governance_responsesf_0Cs9UpcZiueOLV_13boundline_cli
FNDA:0,_RNCNvMNtNtCsgV4MOW29Zwc_18boundline_adapters12orchestrator6engineINtB4_12OrchestratorINtNtCs1OjIl8oxbrv_5alloc4sync3ArcDNtNtB6_7planner7PlannerEL_ENtNtNtB8_8adapters11trace_store14FileTraceStoreE25apply_governance_responsesg_0Cs9UpcZiueOLV_13boundline_cli
FNDA:0,_RNCNvMNtNtCsgV4MOW29Zwc_18boundline_adapters12orchestrator6engineINtB4_12OrchestratorINtNtCs1OjIl8oxbrv_5alloc4sync3ArcDNtNtB6_7planner7PlannerEL_ENtNtNtB8_8adapters11trace_store14FileTraceStoreE25apply_governance_responsesh_0Cs9UpcZiueOLV_13boundline_cli
FNDA:0,_RNCNvMNtNtCsgV4MOW29Zwc_18boundline_adapters12orchestrator6engineINtB4_12OrchestratorINtNtCs1OjIl8oxbrv_5alloc4sync3ArcDNtNtB6_7planner7PlannerEL_ENtNtNtB8_8adapters11trace_store14FileTraceStoreE25apply_governance_responsesi_0Cs9UpcZiueOLV_13boundline_cli
FNDA:0,_RNCNvMNtNtCsgV4MOW29Zwc_18boundline_adapters12orchestrator6engineINtB4_12OrchestratorINtNtCs1OjIl8oxbrv_5alloc4sync3ArcDNtNtB6_7planner7PlannerEL_ENtNtNtB8_8adapters11trace_store14FileTraceStoreE25apply_governance_responsesj_0Cs9UpcZiueOLV_13boundline_cli
FNDA:0,_RNCNvMNtNtCsgV4MOW29Zwc_18boundline_adapters12orchestrator6engineINtB4_12OrchestratorINtNtCs1OjIl8oxbrv_5alloc4sync3ArcDNtNtB6_7planner7PlannerEL_ENtNtNtB8_8adapters11trace_store14FileTraceStoreE25apply_governance_responsesk_0Cs9UpcZiueOLV_13boundline_cli
FNDA:0,_RNCNvMNtNtCsgV4MOW29Zwc_18boundline_adapters12orchestrator6engineINtB4_12OrchestratorINtNtCs1OjIl8oxbrv_5alloc4sync3ArcDNtNtB6_7planner7PlannerEL_ENtNtNtB8_8adapters11trace_store14FileTraceStoreE25apply_governance_responsesl_0Cs9UpcZiueOLV_13boundline_cli
FNDA:0,_RNCNvMNtNtCsgV4MOW29Zwc_18boundline_adapters12orchestrator6engineINtB4_12OrchestratorINtNtCs1OjIl8oxbrv_5alloc4sync3ArcDNtNtB6_7planner7PlannerEL_ENtNtNtB8_8adapters11trace_store14FileTraceStoreE25apply_governance_responsesm_0Cs9UpcZiueOLV_13boundline_cli
FNDA:0,_RNCNvMNtNtCsgV4MOW29Zwc_18boundline_adapters12orchestrator6engineINtB4_12OrchestratorINtNtCs1OjIl8oxbrv_5alloc4sync3ArcDNtNtB6_7planner7PlannerEL_ENtNtNtB8_8adapters11trace_store14FileTraceStoreE25apply_governance_responsesn_0Cs9UpcZiueOLV_13boundline_cli
FNDA:0,_RNCNvMNtNtCsgV4MOW29Zwc_18boundline_adapters12orchestrator6engineINtB4_12OrchestratorINtNtCs1OjIl8oxbrv_5alloc4sync3ArcDNtNtB6_7planner7PlannerEL_ENtNtNtB8_8adapters11trace_store14FileTraceStoreE25apply_governance_responseso_0Cs9UpcZiueOLV_13boundline_cli
FNDA:0,_RNCNvMNtNtCsgV4MOW29Zwc_18boundline_adapters12orchestrator6engineINtB4_12OrchestratorINtNtCs1OjIl8oxbrv_5alloc4sync3ArcDNtNtB6_7planner7PlannerEL_ENtNtNtB8_8adapters11trace_store14FileTraceStoreE25apply_governance_responsesp_0Cs9UpcZiueOLV_13boundline_cli
FNDA:0,_RNCNvMNtNtCsgV4MOW29Zwc_18boundline_adapters12orchestrator6engineINtB4_12OrchestratorINtNtCs1OjIl8oxbrv_5alloc4sync3ArcDNtNtB6_7planner7PlannerEL_ENtNtNtB8_8adapters11trace_store14FileTraceStoreE25apply_governance_responsesq_0Cs9UpcZiueOLV_13boundline_cli
FNDA:0,_RNCNvMNtNtCsgV4MOW29Zwc_18boundline_adapters12orchestrator6engineINtB4_12OrchestratorINtNtCs1OjIl8oxbrv_5alloc4sync3ArcDNtNtB6_7planner7PlannerEL_ENtNtNtB8_8adapters11trace_store14FileTraceStoreE25apply_governance_responsesr_0Cs9UpcZiueOLV_13boundline_cli
FNDA:0,_RNCNvMNtNtCsgV4MOW29Zwc_18boundline_adapters12orchestrator6engineINtB4_12OrchestratorINtNtCs1OjIl8oxbrv_5alloc4sync3ArcDNtNtB6_7planner7PlannerEL_ENtNtNtB8_8adapters11trace_store14FileTraceStoreE25apply_governance_responsess_0Cs9UpcZiueOLV_13boundline_cli
FNDA:0,_RNCNvMNtNtCsgV4MOW29Zwc_18boundline_adapters12orchestrator6engineINtB4_12OrchestratorINtNtCs1OjIl8oxbrv_5alloc4sync3ArcDNtNtB6_7planner7PlannerEL_ENtNtNtB8_8adapters11trace_store14FileTraceStoreE25apply_governance_responsest_0Cs9UpcZiueOLV_13boundline_cli
FNDA:0,_RNCNvMNtNtCsgV4MOW29Zwc_18boundline_adapters12orchestrator6engineINtB4_12OrchestratorINtNtCs1OjIl8oxbrv_5alloc4sync3ArcDNtNtB6_7planner7PlannerEL_ENtNtNtB8_8adapters11trace_store14FileTraceStoreE25apply_governance_responsesu_0Cs9UpcZiueOLV_13boundline_cli
FNDA:0,_RNCNvMNtNtCsgV4MOW29Zwc_18boundline_adapters12orchestrator6engineINtB4_12OrchestratorINtNtCs1OjIl8oxbrv_5alloc4sync3ArcDNtNtB6_7planner7PlannerEL_ENtNtNtB8_8adapters11trace_store14FileTraceStoreE25apply_governance_responsesv_0Cs9UpcZiueOLV_13boundline_cli
FNDA:0,_RNCNvMNtNtCsgV4MOW29Zwc_18boundline_adapters12orchestrator6engineINtB4_12OrchestratorINtNtCs1OjIl8oxbrv_5alloc4sync3ArcDNtNtB6_7planner7PlannerEL_ENtNtNtB8_8adapters11trace_store14FileTraceStoreE25apply_governance_responsesw_0Cs9UpcZiueOLV_13boundline_cli
FNDA:0,_RNCNvMNtNtCsgV4MOW29Zwc_18boundline_adapters12orchestrator6engineINtB4_12OrchestratorINtNtCs1OjIl8oxbrv_5alloc4sync3ArcDNtNtB6_7planner7PlannerEL_ENtNtNtB8_8adapters11trace_store14FileTraceStoreE25apply_governance_responsesx_0Cs9UpcZiueOLV_13boundline_cli
FNDA:0,_RNCNvMNtNtCsgV4MOW29Zwc_18boundline_adapters12orchestrator6engineINtB4_12OrchestratorINtNtCs1OjIl8oxbrv_5alloc4sync3ArcDNtNtB6_7planner7PlannerEL_ENtNtNtB8_8adapters11trace_store14FileTraceStoreE25apply_governance_responsesy_0Cs9UpcZiueOLV_13boundline_cli
FNDA:0,_RNCNvMNtNtCsgV4MOW29Zwc_18boundline_adapters12orchestrator6engineINtB4_12OrchestratorINtNtCs1OjIl8oxbrv_5alloc4sync3ArcDNtNtB6_7planner7PlannerEL_ENtNtNtB8_8adapters11trace_store14FileTraceStoreE25apply_governance_responsesz_0Cs9UpcZiueOLV_13boundline_cli
FNDA:0,_RNCNvMNtNtCsgV4MOW29Zwc_18boundline_adapters12orchestrator6engineINtB4_12OrchestratorINtNtCs1OjIl8oxbrv_5alloc4sync3ArcDNtNtB6_7planner7PlannerEL_ENtNtNtB8_8adapters11trace_store14FileTraceStoreE3run0Cs9UpcZiueOLV_13boundline_cli
FNDA:0,_RNvMNtNtCsgV4MOW29Zwc_18boundline_adapters12orchestrator6engineINtB2_12OrchestratorINtNtCs1OjIl8oxbrv_5alloc4sync3ArcDNtNtB4_7planner7PlannerEL_ENtNtNtB6_8adapters11trace_store14FileTraceStoreE12execute_stepCs9UpcZiueOLV_13boundline_cli
FNDA:0,_RNvMNtNtCsgV4MOW29Zwc_18boundline_adapters12orchestrator6engineINtB2_12OrchestratorINtNtCs1OjIl8oxbrv_5alloc4sync3ArcDNtNtB4_7planner7PlannerEL_ENtNtNtB6_8adapters11trace_store14FileTraceStoreE12execute_toolCs9UpcZiueOLV_13boundline_cli
FNDA:0,_RNvMNtNtCsgV4MOW29Zwc_18boundline_adapters12orchestrator6engineINtB2_12OrchestratorINtNtCs1OjIl8oxbrv_5alloc4sync3ArcDNtNtB4_7planner7PlannerEL_ENtNtNtB6_8adapters11trace_store14FileTraceStoreE13execute_agentCs9UpcZiueOLV_13boundline_cli
FNDA:0,_RNvMNtNtCsgV4MOW29Zwc_18boundline_adapters12orchestrator6engineINtB2_12OrchestratorINtNtCs1OjIl8oxbrv_5alloc4sync3ArcDNtNtB4_7planner7PlannerEL_ENtNtNtB6_8adapters11trace_store14FileTraceStoreE13finalize_taskCs9UpcZiueOLV_13boundline_cli
FNDA:0,_RNvMNtNtCsgV4MOW29Zwc_18boundline_adapters12orchestrator6engineINtB2_12OrchestratorINtNtCs1OjIl8oxbrv_5alloc4sync3ArcDNtNtB4_7planner7PlannerEL_ENtNtNtB6_8adapters11trace_store14FileTraceStoreE13persist_traceCs9UpcZiueOLV_13boundline_cli
FNDA:0,_RNvMNtNtCsgV4MOW29Zwc_18boundline_adapters12orchestrator6engineINtB2_12OrchestratorINtNtCs1OjIl8oxbrv_5alloc4sync3ArcDNtNtB4_7planner7PlannerEL_ENtNtNtB6_8adapters11trace_store14FileTraceStoreE15with_governanceCs9UpcZiueOLV_13boundline_cli
FNDA:0,_RNvMNtNtCsgV4MOW29Zwc_18boundline_adapters12orchestrator6engineINtB2_12OrchestratorINtNtCs1OjIl8oxbrv_5alloc4sync3ArcDNtNtB4_7planner7PlannerEL_ENtNtNtB6_8adapters11trace_store14FileTraceStoreE16execute_decisionCs9UpcZiueOLV_13boundline_cli
FNDA:0,_RNvMNtNtCsgV4MOW29Zwc_18boundline_adapters12orchestrator6engineINtB2_12OrchestratorINtNtCs1OjIl8oxbrv_5alloc4sync3ArcDNtNtB4_7planner7PlannerEL_ENtNtNtB6_8adapters11trace_store14FileTraceStoreE16normalize_resultCs9UpcZiueOLV_13boundline_cli
FNDA:0,_RNvMNtNtCsgV4MOW29Zwc_18boundline_adapters12orchestrator6engineINtB2_12OrchestratorINtNtCs1OjIl8oxbrv_5alloc4sync3ArcDNtNtB4_7planner7PlannerEL_ENtNtNtB6_8adapters11trace_store14FileTraceStoreE23ensure_stage_governanceCs9UpcZiueOLV_13boundline_cli
FNDA:0,_RNvMNtNtCsgV4MOW29Zwc_18boundline_adapters12orchestrator6engineINtB2_12OrchestratorINtNtCs1OjIl8oxbrv_5alloc4sync3ArcDNtNtB4_7planner7PlannerEL_ENtNtNtB6_8adapters11trace_store14FileTraceStoreE23handle_governance_blockCs9UpcZiueOLV_13boundline_cli
FNDA:0,_RNvMNtNtCsgV4MOW29Zwc_18boundline_adapters12orchestrator6engineINtB2_12OrchestratorINtNtCs1OjIl8oxbrv_5alloc4sync3ArcDNtNtB4_7planner7PlannerEL_ENtNtNtB6_8adapters11trace_store14FileTraceStoreE25apply_governance_responseCs9UpcZiueOLV_13boundline_cli
FNDA:0,_RNvMNtNtCsgV4MOW29Zwc_18boundline_adapters12orchestrator6engineINtB2_12OrchestratorINtNtCs1OjIl8oxbrv_5alloc4sync3ArcDNtNtB4_7planner7PlannerEL_ENtNtNtB6_8adapters11trace_store14FileTraceStoreE32record_governance_decision_eventCs9UpcZiueOLV_13boundline_cli
FNDA:0,_RNvMNtNtCsgV4MOW29Zwc_18boundline_adapters12orchestrator6engineINtB2_12OrchestratorINtNtCs1OjIl8oxbrv_5alloc4sync3ArcDNtNtB4_7planner7PlannerEL_ENtNtNtB6_8adapters11trace_store14FileTraceStoreE3newCs9UpcZiueOLV_13boundline_cli
FNDA:0,_RNvMNtNtCsgV4MOW29Zwc_18boundline_adapters12orchestrator6engineINtB2_12OrchestratorINtNtCs1OjIl8oxbrv_5alloc4sync3ArcDNtNtB4_7planner7PlannerEL_ENtNtNtB6_8adapters11trace_store14FileTraceStoreE3runCs9UpcZiueOLV_13boundline_cli
FNDA:2,_RNvMNtNtNtCsblqRvDQyS7m_18boundline_adapters12orchestrator6engine5testsNtB2_11TestPlanner18with_replan_result
FNDA:1,_RNvMNtNtNtCsblqRvDQyS7m_18boundline_adapters12orchestrator6engine5testsNtB2_11TestPlanner20failing_initial_plan
FNDA:20,_RNvMNtNtNtCsblqRvDQyS7m_18boundline_adapters12orchestrator6engine5testsNtB2_11TestPlanner9from_plan
FNDA:22,_RNvMs0_NtNtNtCsblqRvDQyS7m_18boundline_adapters12orchestrator6engine5testsNtB5_14TestTraceStore10succeeding
FNDA:2,_RNvMs0_NtNtNtCsblqRvDQyS7m_18boundline_adapters12orchestrator6engine5testsNtB5_14TestTraceStore7fail_on
FNDA:2,_RNvNtNtNtCsblqRvDQyS7m_18boundline_adapters12orchestrator6engine5tests13build_context
FNDA:8,_RNvNtNtNtCsblqRvDQyS7m_18boundline_adapters12orchestrator6engine5tests13build_request
FNDA:3,_RNvNtNtNtCsblqRvDQyS7m_18boundline_adapters12orchestrator6engine5tests14temp_workspace
FNDA:20,_RNvNtNtNtCsblqRvDQyS7m_18boundline_adapters12orchestrator6engine5tests18build_orchestrator
FNDA:2,_RNvNtNtNtCsblqRvDQyS7m_18boundline_adapters12orchestrator6engine5tests18write_shell_script
FNDA:1,_RNvNtNtNtCsblqRvDQyS7m_18boundline_adapters12orchestrator6engine5tests19build_governed_plan
FNDA:7,_RNvNtNtNtCsblqRvDQyS7m_18boundline_adapters12orchestrator6engine5tests19build_governed_task
FNDA:3,_RNvNtNtNtCsblqRvDQyS7m_18boundline_adapters12orchestrator6engine5tests24build_governance_profile
FNDA:9,_RNvNtNtNtCsblqRvDQyS7m_18boundline_adapters12orchestrator6engine5tests27build_governed_orchestrator
FNDA:17,_RNvNtNtNtCsblqRvDQyS7m_18boundline_adapters12orchestrator6engine5tests27build_request_for_workspace
FNDA:22,_RNvNtNtNtCsblqRvDQyS7m_18boundline_adapters12orchestrator6engine5tests29build_governed_plan_for_stage
FNDA:9,_RNvNtNtNtCsblqRvDQyS7m_18boundline_adapters12orchestrator6engine5tests29build_governed_task_for_stage
FNDA:15,_RNvNtNtNtCsblqRvDQyS7m_18boundline_adapters12orchestrator6engine5tests34build_governance_profile_for_stage
FNDA:12,_RNvNtNtNtCsblqRvDQyS7m_18boundline_adapters12orchestrator6engine5tests37build_governed_orchestrator_for_stage
FNDA:1,_RNvNtNtNtCsblqRvDQyS7m_18boundline_adapters12orchestrator6engine5testss_49run_stops_with_step_limit_exceeded_after_retrying
FNDA:1,_RNvNtNtNtCsblqRvDQyS7m_18boundline_adapters12orchestrator6engine5testss_52handle_governance_block_terminalizes_required_stages
FNDA:1,_RNvNtNtNtCsblqRvDQyS7m_18boundline_adapters12orchestrator6engine5testss_53handle_governance_block_continues_for_optional_stages
FNDA:1,_RNvNtNtNtCsblqRvDQyS7m_18boundline_adapters12orchestrator6engine5testss_54run_marks_task_not_credible_when_planner_cannot_replan
FNDA:1,_RNvNtNtNtCsblqRvDQyS7m_18boundline_adapters12orchestrator6engine5testss_54run_returns_planning_errors_from_initial_plan_creation
FNDA:1,_RNvNtNtNtCsblqRvDQyS7m_18boundline_adapters12orchestrator6engine5testss_55run_stops_when_current_plan_has_no_executable_next_step
FNDA:1,_RNvNtNtNtCsblqRvDQyS7m_18boundline_adapters12orchestrator6engine5testss_56ensure_stage_governance_executes_available_canon_runtime
FNDA:1,_RNvNtNtNtCsblqRvDQyS7m_18boundline_adapters12orchestrator6engine5testss_56execute_agent_and_tool_cover_missing_and_unknown_targets
FNDA:1,_RNvNtNtNtCsblqRvDQyS7m_18boundline_adapters12orchestrator6engine5testss_57run_blocks_required_canon_governance_for_flow_aware_steps
FNDA:1,_RNvNtNtNtCsblqRvDQyS7m_18boundline_adapters12orchestrator6engine5testss_59execute_step_dispatches_registered_agent_and_tool_endpoints
FNDA:1,_RNvNtNtNtCsblqRvDQyS7m_18boundline_adapters12orchestrator6engine5testss_59run_executes_optional_local_governance_for_flow_aware_steps
FNDA:1,_RNvNtNtNtCsblqRvDQyS7m_18boundline_adapters12orchestrator6engine5testss_62record_governance_decision_event_records_full_decision_payload
FNDA:1,_RNvNtNtNtCsblqRvDQyS7m_18boundline_adapters12orchestrator6engine5testss_63apply_governance_response_terminalizes_when_approval_is_pending
FNDA:1,_RNvNtNtNtCsblqRvDQyS7m_18boundline_adapters12orchestrator6engine5testss_63execute_decision_covers_success_retry_replan_and_terminal_paths
FNDA:1,_RNvNtNtNtCsblqRvDQyS7m_18boundline_adapters12orchestrator6engine5testss_64persist_trace_surfaces_store_failures_on_first_and_second_writes
FNDA:1,_RNvNtNtNtCsblqRvDQyS7m_18boundline_adapters12orchestrator6engine5testss_64run_normalizes_invalid_agent_results_into_unrecoverable_failures
FNDA:1,_RNvNtNtNtCsblqRvDQyS7m_18boundline_adapters12orchestrator6engine5testss_65normalize_result_converts_invalid_payloads_into_terminal_failures
FNDA:1,_RNvNtNtNtCsblqRvDQyS7m_18boundline_adapters12orchestrator6engine5testss_66ensure_stage_governance_blocks_when_required_canon_mode_is_missing
FNDA:1,_RNvNtNtNtCsblqRvDQyS7m_18boundline_adapters12orchestrator6engine5testss_66run_marks_task_not_credible_when_replacement_plan_has_no_next_step
FNDA:1,_RNvNtNtNtCsblqRvDQyS7m_18boundline_adapters12orchestrator6engine5testss_68ensure_stage_governance_blocks_when_required_canon_config_is_missing
FNDA:1,_RNvNtNtNtCsblqRvDQyS7m_18boundline_adapters12orchestrator6engine5testss_68ensure_stage_governance_skips_when_current_stage_is_already_recorded
FNDA:1,_RNvNtNtNtCsblqRvDQyS7m_18boundline_adapters12orchestrator6engine5testss_73apply_governance_response_continues_after_optional_local_packet_rejection
FNDA:1,_RNvNtNtNtCsblqRvDQyS7m_18boundline_adapters12orchestrator6engine5testss_74apply_governance_response_surfaces_canon_memory_for_rejected_canon_packets
FNDA:61,_RNvXs1_NtNtNtCsblqRvDQyS7m_18boundline_adapters12orchestrator6engine5testsNtB5_14TestTraceStoreNtNtNtBb_8adapters11trace_store10TraceStore7persist
FNDA:8,_RNvXs_NtNtNtCsblqRvDQyS7m_18boundline_adapters12orchestrator6engine5testsNtB4_11TestPlannerNtNtB8_7planner7Planner19create_initial_plan
FNDA:2,_RNvXs_NtNtNtCsblqRvDQyS7m_18boundline_adapters12orchestrator6engine5testsNtB4_11TestPlannerNtNtB8_7planner7Planner6replan
FNDA:26,_RNCNvNtNtNtCsblqRvDQyS7m_18boundline_adapters12orchestrator6engine5tests29build_governed_plan_for_stage0B9_
FNDA:14,_RNCNvNtNtNtCsblqRvDQyS7m_18boundline_adapters12orchestrator6engine5tests34build_governance_profile_for_stage0B9_
FNDA:1,_RNCNvNtNtNtCsblqRvDQyS7m_18boundline_adapters12orchestrator6engine5testss_52handle_governance_block_terminalizes_required_stages0B9_
FNDA:1,_RNCNvNtNtNtCsblqRvDQyS7m_18boundline_adapters12orchestrator6engine5testss_53handle_governance_block_continues_for_optional_stages0B9_
FNDA:3,_RNCNvNtNtNtCsblqRvDQyS7m_18boundline_adapters12orchestrator6engine5testss_56ensure_stage_governance_executes_available_canon_runtime0B9_
FNDA:3,_RNCNvNtNtNtCsblqRvDQyS7m_18boundline_adapters12orchestrator6engine5testss_56ensure_stage_governance_executes_available_canon_runtimes0_0B9_
FNDA:2,_RNCNvNtNtNtCsblqRvDQyS7m_18boundline_adapters12orchestrator6engine5testss_56ensure_stage_governance_executes_available_canon_runtimes_0B9_
FNDA:1,_RNCNvNtNtNtCsblqRvDQyS7m_18boundline_adapters12orchestrator6engine5testss_59execute_step_dispatches_registered_agent_and_tool_endpoints0B9_
FNDA:1,_RNCNvNtNtNtCsblqRvDQyS7m_18boundline_adapters12orchestrator6engine5testss_59execute_step_dispatches_registered_agent_and_tool_endpointss_0B9_
FNDA:1,_RNCNvNtNtNtCsblqRvDQyS7m_18boundline_adapters12orchestrator6engine5testss_63apply_governance_response_terminalizes_when_approval_is_pending0B9_
FNDA:1,_RNCNvNtNtNtCsblqRvDQyS7m_18boundline_adapters12orchestrator6engine5testss_63apply_governance_response_terminalizes_when_approval_is_pendings_0B9_
FNDA:1,_RNCNvNtNtNtCsblqRvDQyS7m_18boundline_adapters12orchestrator6engine5testss_64run_normalizes_invalid_agent_results_into_unrecoverable_failures0B9_
FNDA:1,_RNCNvNtNtNtCsblqRvDQyS7m_18boundline_adapters12orchestrator6engine5testss_73apply_governance_response_continues_after_optional_local_packet_rejection0B9_
FNDA:2,_RNCNvNtNtNtCsblqRvDQyS7m_18boundline_adapters12orchestrator6engine5testss_73apply_governance_response_continues_after_optional_local_packet_rejections_0B9_
FNDA:1,_RNCNvNtNtNtCsblqRvDQyS7m_18boundline_adapters12orchestrator6engine5testss_74apply_governance_response_surfaces_canon_memory_for_rejected_canon_packets0B9_
FNDA:2,_RNCNvNtNtNtCsblqRvDQyS7m_18boundline_adapters12orchestrator6engine5testss_74apply_governance_response_surfaces_canon_memory_for_rejected_canon_packetss_0B9_
FNDA:0,_RNvXs1_NtNtNtCsblqRvDQyS7m_18boundline_adapters12orchestrator6engine5testsNtB5_14TestTraceStoreNtNtNtBb_8adapters11trace_store10TraceStore4load
FNDA:0,_RNvXs1_NtNtNtCsblqRvDQyS7m_18boundline_adapters12orchestrator6engine5testsNtB5_14TestTraceStoreNtNtNtBb_8adapters11trace_store10TraceStore6latest
FNDA:0,_RNCNCNvMNtNtCsblqRvDQyS7m_18boundline_adapters12orchestrator6engineINtB6_12OrchestratorNtNtB6_5tests11TestPlannerNtB1p_14TestTraceStoreE25apply_governance_responses0_00Ba_
FNDA:0,_RNCNCNvMNtNtCsblqRvDQyS7m_18boundline_adapters12orchestrator6engineINtB6_12OrchestratorNtNtB6_5tests11TestPlannerNtB1p_14TestTraceStoreE25apply_governance_responses0_0s_0Ba_
FNDA:0,_RNCNvMNtNtCsblqRvDQyS7m_18boundline_adapters12orchestrator6engineINtB4_12OrchestratorNtNtB4_5tests11TestPlannerNtB1n_14TestTraceStoreE16execute_decision0B8_
FNDA:0,_RNCNvMNtNtCsblqRvDQyS7m_18boundline_adapters12orchestrator6engineINtB4_12OrchestratorNtNtB4_5tests11TestPlannerNtB1n_14TestTraceStoreE23ensure_stage_governance0B8_
FNDA:0,_RNCNvMNtNtCsblqRvDQyS7m_18boundline_adapters12orchestrator6engineINtB4_12OrchestratorNtNtB4_5tests11TestPlannerNtB1n_14TestTraceStoreE23ensure_stage_governances0_0B8_
FNDA:0,_RNCNvMNtNtCsblqRvDQyS7m_18boundline_adapters12orchestrator6engineINtB4_12OrchestratorNtNtB4_5tests11TestPlannerNtB1n_14TestTraceStoreE23ensure_stage_governances1_0B8_
FNDA:0,_RNCNvMNtNtCsblqRvDQyS7m_18boundline_adapters12orchestrator6engineINtB4_12OrchestratorNtNtB4_5tests11TestPlannerNtB1n_14TestTraceStoreE23ensure_stage_governances2_0B8_
FNDA:4,_RNCNvMNtNtCsblqRvDQyS7m_18boundline_adapters12orchestrator6engineINtB4_12OrchestratorNtNtB4_5tests11TestPlannerNtB1n_14TestTraceStoreE23ensure_stage_governances3_0B8_
FNDA:5,_RNCNvMNtNtCsblqRvDQyS7m_18boundline_adapters12orchestrator6engineINtB4_12OrchestratorNtNtB4_5tests11TestPlannerNtB1n_14TestTraceStoreE23ensure_stage_governances6_0B8_
FNDA:0,_RNCNvMNtNtCsblqRvDQyS7m_18boundline_adapters12orchestrator6engineINtB4_12OrchestratorNtNtB4_5tests11TestPlannerNtB1n_14TestTraceStoreE23ensure_stage_governances8_0B8_
FNDA:0,_RNCNvMNtNtCsblqRvDQyS7m_18boundline_adapters12orchestrator6engineINtB4_12OrchestratorNtNtB4_5tests11TestPlannerNtB1n_14TestTraceStoreE23ensure_stage_governances9_0B8_
FNDA:0,_RNCNvMNtNtCsblqRvDQyS7m_18boundline_adapters12orchestrator6engineINtB4_12OrchestratorNtNtB4_5tests11TestPlannerNtB1n_14TestTraceStoreE23ensure_stage_governances_0B8_
FNDA:0,_RNCNvMNtNtCsblqRvDQyS7m_18boundline_adapters12orchestrator6engineINtB4_12OrchestratorNtNtB4_5tests11TestPlannerNtB1n_14TestTraceStoreE23ensure_stage_governancesa_0B8_
FNDA:0,_RNCNvMNtNtCsblqRvDQyS7m_18boundline_adapters12orchestrator6engineINtB4_12OrchestratorNtNtB4_5tests11TestPlannerNtB1n_14TestTraceStoreE23ensure_stage_governancesb_0B8_
FNDA:0,_RNCNvMNtNtCsblqRvDQyS7m_18boundline_adapters12orchestrator6engineINtB4_12OrchestratorNtNtB4_5tests11TestPlannerNtB1n_14TestTraceStoreE23ensure_stage_governancesc_0B8_
FNDA:0,_RNCNvMNtNtCsblqRvDQyS7m_18boundline_adapters12orchestrator6engineINtB4_12OrchestratorNtNtB4_5tests11TestPlannerNtB1n_14TestTraceStoreE23ensure_stage_governancese_0B8_
FNDA:0,_RNCNvMNtNtCsblqRvDQyS7m_18boundline_adapters12orchestrator6engineINtB4_12OrchestratorNtNtB4_5tests11TestPlannerNtB1n_14TestTraceStoreE23ensure_stage_governancesf_0B8_
FNDA:0,_RNCNvMNtNtCsblqRvDQyS7m_18boundline_adapters12orchestrator6engineINtB4_12OrchestratorNtNtB4_5tests11TestPlannerNtB1n_14TestTraceStoreE23ensure_stage_governancesh_0B8_
FNDA:0,_RNCNvMNtNtCsblqRvDQyS7m_18boundline_adapters12orchestrator6engineINtB4_12OrchestratorNtNtB4_5tests11TestPlannerNtB1n_14TestTraceStoreE23ensure_stage_governancesi_0B8_
FNDA:0,_RNCNvMNtNtCsblqRvDQyS7m_18boundline_adapters12orchestrator6engineINtB4_12OrchestratorNtNtB4_5tests11TestPlannerNtB1n_14TestTraceStoreE23ensure_stage_governancesj_0B8_
FNDA:0,_RNCNvMNtNtCsblqRvDQyS7m_18boundline_adapters12orchestrator6engineINtB4_12OrchestratorNtNtB4_5tests11TestPlannerNtB1n_14TestTraceStoreE23ensure_stage_governancesk_0B8_
FNDA:1,_RNCNvMNtNtCsblqRvDQyS7m_18boundline_adapters12orchestrator6engineINtB4_12OrchestratorNtNtB4_5tests11TestPlannerNtB1n_14TestTraceStoreE23handle_governance_block0B8_
FNDA:5,_RNCNvMNtNtCsblqRvDQyS7m_18boundline_adapters12orchestrator6engineINtB4_12OrchestratorNtNtB4_5tests11TestPlannerNtB1n_14TestTraceStoreE23handle_governance_blocks0_0B8_
FNDA:5,_RNCNvMNtNtCsblqRvDQyS7m_18boundline_adapters12orchestrator6engineINtB4_12OrchestratorNtNtB4_5tests11TestPlannerNtB1n_14TestTraceStoreE23handle_governance_blocks1_0B8_
FNDA:5,_RNCNvMNtNtCsblqRvDQyS7m_18boundline_adapters12orchestrator6engineINtB4_12OrchestratorNtNtB4_5tests11TestPlannerNtB1n_14TestTraceStoreE23handle_governance_blocks2_0B8_
FNDA:5,_RNCNvMNtNtCsblqRvDQyS7m_18boundline_adapters12orchestrator6engineINtB4_12OrchestratorNtNtB4_5tests11TestPlannerNtB1n_14TestTraceStoreE23handle_governance_blocks3_0B8_
FNDA:5,_RNCNvMNtNtCsblqRvDQyS7m_18boundline_adapters12orchestrator6engineINtB4_12OrchestratorNtNtB4_5tests11TestPlannerNtB1n_14TestTraceStoreE23handle_governance_blocks4_0B8_
FNDA:5,_RNCNvMNtNtCsblqRvDQyS7m_18boundline_adapters12orchestrator6engineINtB4_12OrchestratorNtNtB4_5tests11TestPlannerNtB1n_14TestTraceStoreE23handle_governance_blocks5_0B8_
FNDA:5,_RNCNvMNtNtCsblqRvDQyS7m_18boundline_adapters12orchestrator6engineINtB4_12OrchestratorNtNtB4_5tests11TestPlannerNtB1n_14TestTraceStoreE23handle_governance_blocks6_0B8_
FNDA:5,_RNCNvMNtNtCsblqRvDQyS7m_18boundline_adapters12orchestrator6engineINtB4_12OrchestratorNtNtB4_5tests11TestPlannerNtB1n_14TestTraceStoreE23handle_governance_blocks7_0B8_
FNDA:0,_RNCNvMNtNtCsblqRvDQyS7m_18boundline_adapters12orchestrator6engineINtB4_12OrchestratorNtNtB4_5tests11TestPlannerNtB1n_14TestTraceStoreE23handle_governance_blocks_0B8_
FNDA:4,_RNCNvMNtNtCsblqRvDQyS7m_18boundline_adapters12orchestrator6engineINtB4_12OrchestratorNtNtB4_5tests11TestPlannerNtB1n_14TestTraceStoreE25apply_governance_response0B8_
FNDA:0,_RNCNvMNtNtCsblqRvDQyS7m_18boundline_adapters12orchestrator6engineINtB4_12OrchestratorNtNtB4_5tests11TestPlannerNtB1n_14TestTraceStoreE25apply_governance_responses0_0B8_
FNDA:0,_RNCNvMNtNtCsblqRvDQyS7m_18boundline_adapters12orchestrator6engineINtB4_12OrchestratorNtNtB4_5tests11TestPlannerNtB1n_14TestTraceStoreE25apply_governance_responses1_0B8_
FNDA:4,_RNCNvMNtNtCsblqRvDQyS7m_18boundline_adapters12orchestrator6engineINtB4_12OrchestratorNtNtB4_5tests11TestPlannerNtB1n_14TestTraceStoreE25apply_governance_responses2_0B8_
FNDA:2,_RNCNvMNtNtCsblqRvDQyS7m_18boundline_adapters12orchestrator6engineINtB4_12OrchestratorNtNtB4_5tests11TestPlannerNtB1n_14TestTraceStoreE25apply_governance_responses3_0B8_
FNDA:0,_RNCNvMNtNtCsblqRvDQyS7m_18boundline_adapters12orchestrator6engineINtB4_12OrchestratorNtNtB4_5tests11TestPlannerNtB1n_14TestTraceStoreE25apply_governance_responses4_0B8_
FNDA:0,_RNCNvMNtNtCsblqRvDQyS7m_18boundline_adapters12orchestrator6engineINtB4_12OrchestratorNtNtB4_5tests11TestPlannerNtB1n_14TestTraceStoreE25apply_governance_responses5_0B8_
FNDA:0,_RNCNvMNtNtCsblqRvDQyS7m_18boundline_adapters12orchestrator6engineINtB4_12OrchestratorNtNtB4_5tests11TestPlannerNtB1n_14TestTraceStoreE25apply_governance_responses6_0B8_
FNDA:1,_RNCNvMNtNtCsblqRvDQyS7m_18boundline_adapters12orchestrator6engineINtB4_12OrchestratorNtNtB4_5tests11TestPlannerNtB1n_14TestTraceStoreE25apply_governance_responses7_0B8_
FNDA:1,_RNCNvMNtNtCsblqRvDQyS7m_18boundline_adapters12orchestrator6engineINtB4_12OrchestratorNtNtB4_5tests11TestPlannerNtB1n_14TestTraceStoreE25apply_governance_responses8_0B8_
FNDA:1,_RNCNvMNtNtCsblqRvDQyS7m_18boundline_adapters12orchestrator6engineINtB4_12OrchestratorNtNtB4_5tests11TestPlannerNtB1n_14TestTraceStoreE25apply_governance_responses9_0B8_
FNDA:1,_RNCNvMNtNtCsblqRvDQyS7m_18boundline_adapters12orchestrator6engineINtB4_12OrchestratorNtNtB4_5tests11TestPlannerNtB1n_14TestTraceStoreE25apply_governance_responsesA_0B8_
FNDA:1,_RNCNvMNtNtCsblqRvDQyS7m_18boundline_adapters12orchestrator6engineINtB4_12OrchestratorNtNtB4_5tests11TestPlannerNtB1n_14TestTraceStoreE25apply_governance_responsesB_0B8_
FNDA:2,_RNCNvMNtNtCsblqRvDQyS7m_18boundline_adapters12orchestrator6engineINtB4_12OrchestratorNtNtB4_5tests11TestPlannerNtB1n_14TestTraceStoreE25apply_governance_responsesC_0B8_
FNDA:0,_RNCNvMNtNtCsblqRvDQyS7m_18boundline_adapters12orchestrator6engineINtB4_12OrchestratorNtNtB4_5tests11TestPlannerNtB1n_14TestTraceStoreE25apply_governance_responsesD_0B8_
FNDA:0,_RNCNvMNtNtCsblqRvDQyS7m_18boundline_adapters12orchestrator6engineINtB4_12OrchestratorNtNtB4_5tests11TestPlannerNtB1n_14TestTraceStoreE25apply_governance_responsesE_0B8_
FNDA:1,_RNCNvMNtNtCsblqRvDQyS7m_18boundline_adapters12orchestrator6engineINtB4_12OrchestratorNtNtB4_5tests11TestPlannerNtB1n_14TestTraceStoreE25apply_governance_responsesF_0B8_
FNDA:1,_RNCNvMNtNtCsblqRvDQyS7m_18boundline_adapters12orchestrator6engineINtB4_12OrchestratorNtNtB4_5tests11TestPlannerNtB1n_14TestTraceStoreE25apply_governance_responsesG_0B8_
FNDA:1,_RNCNvMNtNtCsblqRvDQyS7m_18boundline_adapters12orchestrator6engineINtB4_12OrchestratorNtNtB4_5tests11TestPlannerNtB1n_14TestTraceStoreE25apply_governance_responsesH_0B8_
FNDA:1,_RNCNvMNtNtCsblqRvDQyS7m_18boundline_adapters12orchestrator6engineINtB4_12OrchestratorNtNtB4_5tests11TestPlannerNtB1n_14TestTraceStoreE25apply_governance_responsesI_0B8_
FNDA:1,_RNCNvMNtNtCsblqRvDQyS7m_18boundline_adapters12orchestrator6engineINtB4_12OrchestratorNtNtB4_5tests11TestPlannerNtB1n_14TestTraceStoreE25apply_governance_responsesJ_0B8_
FNDA:1,_RNCNvMNtNtCsblqRvDQyS7m_18boundline_adapters12orchestrator6engineINtB4_12OrchestratorNtNtB4_5tests11TestPlannerNtB1n_14TestTraceStoreE25apply_governance_responsesK_0B8_
FNDA:1,_RNCNvMNtNtCsblqRvDQyS7m_18boundline_adapters12orchestrator6engineINtB4_12OrchestratorNtNtB4_5tests11TestPlannerNtB1n_14TestTraceStoreE25apply_governance_responsesL_0B8_
FNDA:1,_RNCNvMNtNtCsblqRvDQyS7m_18boundline_adapters12orchestrator6engineINtB4_12OrchestratorNtNtB4_5tests11TestPlannerNtB1n_14TestTraceStoreE25apply_governance_responsesM_0B8_
FNDA:2,_RNCNvMNtNtCsblqRvDQyS7m_18boundline_adapters12orchestrator6engineINtB4_12OrchestratorNtNtB4_5tests11TestPlannerNtB1n_14TestTraceStoreE25apply_governance_responses_0B8_
FNDA:1,_RNCNvMNtNtCsblqRvDQyS7m_18boundline_adapters12orchestrator6engineINtB4_12OrchestratorNtNtB4_5tests11TestPlannerNtB1n_14TestTraceStoreE25apply_governance_responsesa_0B8_
FNDA:1,_RNCNvMNtNtCsblqRvDQyS7m_18boundline_adapters12orchestrator6engineINtB4_12OrchestratorNtNtB4_5tests11TestPlannerNtB1n_14TestTraceStoreE25apply_governance_responsesb_0B8_
FNDA:1,_RNCNvMNtNtCsblqRvDQyS7m_18boundline_adapters12orchestrator6engineINtB4_12OrchestratorNtNtB4_5tests11TestPlannerNtB1n_14TestTraceStoreE25apply_governance_responsesc_0B8_
FNDA:2,_RNCNvMNtNtCsblqRvDQyS7m_18boundline_adapters12orchestrator6engineINtB4_12OrchestratorNtNtB4_5tests11TestPlannerNtB1n_14TestTraceStoreE25apply_governance_responsesd_0B8_
FNDA:2,_RNCNvMNtNtCsblqRvDQyS7m_18boundline_adapters12orchestrator6engineINtB4_12OrchestratorNtNtB4_5tests11TestPlannerNtB1n_14TestTraceStoreE25apply_governance_responsesf_0B8_
FNDA:2,_RNCNvMNtNtCsblqRvDQyS7m_18boundline_adapters12orchestrator6engineINtB4_12OrchestratorNtNtB4_5tests11TestPlannerNtB1n_14TestTraceStoreE25apply_governance_responsesg_0B8_
FNDA:0,_RNCNvMNtNtCsblqRvDQyS7m_18boundline_adapters12orchestrator6engineINtB4_12OrchestratorNtNtB4_5tests11TestPlannerNtB1n_14TestTraceStoreE25apply_governance_responsesh_0B8_
FNDA:0,_RNCNvMNtNtCsblqRvDQyS7m_18boundline_adapters12orchestrator6engineINtB4_12OrchestratorNtNtB4_5tests11TestPlannerNtB1n_14TestTraceStoreE25apply_governance_responsesi_0B8_
FNDA:0,_RNCNvMNtNtCsblqRvDQyS7m_18boundline_adapters12orchestrator6engineINtB4_12OrchestratorNtNtB4_5tests11TestPlannerNtB1n_14TestTraceStoreE25apply_governance_responsesj_0B8_
FNDA:1,_RNCNvMNtNtCsblqRvDQyS7m_18boundline_adapters12orchestrator6engineINtB4_12OrchestratorNtNtB4_5tests11TestPlannerNtB1n_14TestTraceStoreE25apply_governance_responsesk_0B8_
FNDA:1,_RNCNvMNtNtCsblqRvDQyS7m_18boundline_adapters12orchestrator6engineINtB4_12OrchestratorNtNtB4_5tests11TestPlannerNtB1n_14TestTraceStoreE25apply_governance_responsesl_0B8_
FNDA:1,_RNCNvMNtNtCsblqRvDQyS7m_18boundline_adapters12orchestrator6engineINtB4_12OrchestratorNtNtB4_5tests11TestPlannerNtB1n_14TestTraceStoreE25apply_governance_responsesm_0B8_
FNDA:1,_RNCNvMNtNtCsblqRvDQyS7m_18boundline_adapters12orchestrator6engineINtB4_12OrchestratorNtNtB4_5tests11TestPlannerNtB1n_14TestTraceStoreE25apply_governance_responsesn_0B8_
FNDA:1,_RNCNvMNtNtCsblqRvDQyS7m_18boundline_adapters12orchestrator6engineINtB4_12OrchestratorNtNtB4_5tests11TestPlannerNtB1n_14TestTraceStoreE25apply_governance_responseso_0B8_
FNDA:1,_RNCNvMNtNtCsblqRvDQyS7m_18boundline_adapters12orchestrator6engineINtB4_12OrchestratorNtNtB4_5tests11TestPlannerNtB1n_14TestTraceStoreE25apply_governance_responsesp_0B8_
FNDA:1,_RNCNvMNtNtCsblqRvDQyS7m_18boundline_adapters12orchestrator6engineINtB4_12OrchestratorNtNtB4_5tests11TestPlannerNtB1n_14TestTraceStoreE25apply_governance_responsesq_0B8_
FNDA:1,_RNCNvMNtNtCsblqRvDQyS7m_18boundline_adapters12orchestrator6engineINtB4_12OrchestratorNtNtB4_5tests11TestPlannerNtB1n_14TestTraceStoreE25apply_governance_responsesr_0B8_
FNDA:0,_RNCNvMNtNtCsblqRvDQyS7m_18boundline_adapters12orchestrator6engineINtB4_12OrchestratorNtNtB4_5tests11TestPlannerNtB1n_14TestTraceStoreE25apply_governance_responsess_0B8_
FNDA:0,_RNCNvMNtNtCsblqRvDQyS7m_18boundline_adapters12orchestrator6engineINtB4_12OrchestratorNtNtB4_5tests11TestPlannerNtB1n_14TestTraceStoreE25apply_governance_responsest_0B8_
FNDA:1,_RNCNvMNtNtCsblqRvDQyS7m_18boundline_adapters12orchestrator6engineINtB4_12OrchestratorNtNtB4_5tests11TestPlannerNtB1n_14TestTraceStoreE25apply_governance_responsesu_0B8_
FNDA:1,_RNCNvMNtNtCsblqRvDQyS7m_18boundline_adapters12orchestrator6engineINtB4_12OrchestratorNtNtB4_5tests11TestPlannerNtB1n_14TestTraceStoreE25apply_governance_responsesv_0B8_
FNDA:1,_RNCNvMNtNtCsblqRvDQyS7m_18boundline_adapters12orchestrator6engineINtB4_12OrchestratorNtNtB4_5tests11TestPlannerNtB1n_14TestTraceStoreE25apply_governance_responsesw_0B8_
FNDA:1,_RNCNvMNtNtCsblqRvDQyS7m_18boundline_adapters12orchestrator6engineINtB4_12OrchestratorNtNtB4_5tests11TestPlannerNtB1n_14TestTraceStoreE25apply_governance_responsesx_0B8_
FNDA:1,_RNCNvMNtNtCsblqRvDQyS7m_18boundline_adapters12orchestrator6engineINtB4_12OrchestratorNtNtB4_5tests11TestPlannerNtB1n_14TestTraceStoreE25apply_governance_responsesy_0B8_
FNDA:1,_RNCNvMNtNtCsblqRvDQyS7m_18boundline_adapters12orchestrator6engineINtB4_12OrchestratorNtNtB4_5tests11TestPlannerNtB1n_14TestTraceStoreE25apply_governance_responsesz_0B8_
FNDA:0,_RNCNvMNtNtCsblqRvDQyS7m_18boundline_adapters12orchestrator6engineINtB4_12OrchestratorNtNtB4_5tests11TestPlannerNtB1n_14TestTraceStoreE3run0B8_
FNDA:7,_RNvMNtNtCsblqRvDQyS7m_18boundline_adapters12orchestrator6engineINtB2_12OrchestratorNtNtB2_5tests11TestPlannerNtB1l_14TestTraceStoreE12execute_stepB6_
FNDA:3,_RNvMNtNtCsblqRvDQyS7m_18boundline_adapters12orchestrator6engineINtB2_12OrchestratorNtNtB2_5tests11TestPlannerNtB1l_14TestTraceStoreE12execute_toolB6_
FNDA:4,_RNvMNtNtCsblqRvDQyS7m_18boundline_adapters12orchestrator6engineINtB2_12OrchestratorNtNtB2_5tests11TestPlannerNtB1l_14TestTraceStoreE13execute_agentB6_
FNDA:12,_RNvMNtNtCsblqRvDQyS7m_18boundline_adapters12orchestrator6engineINtB2_12OrchestratorNtNtB2_5tests11TestPlannerNtB1l_14TestTraceStoreE13finalize_taskB6_
FNDA:31,_RNvMNtNtCsblqRvDQyS7m_18boundline_adapters12orchestrator6engineINtB2_12OrchestratorNtNtB2_5tests11TestPlannerNtB1l_14TestTraceStoreE13persist_traceB6_
FNDA:12,_RNvMNtNtCsblqRvDQyS7m_18boundline_adapters12orchestrator6engineINtB2_12OrchestratorNtNtB2_5tests11TestPlannerNtB1l_14TestTraceStoreE15with_governanceB6_
FNDA:9,_RNvMNtNtCsblqRvDQyS7m_18boundline_adapters12orchestrator6engineINtB2_12OrchestratorNtNtB2_5tests11TestPlannerNtB1l_14TestTraceStoreE16execute_decisionB6_
FNDA:6,_RNvMNtNtCsblqRvDQyS7m_18boundline_adapters12orchestrator6engineINtB2_12OrchestratorNtNtB2_5tests11TestPlannerNtB1l_14TestTraceStoreE16normalize_resultB6_
FNDA:10,_RNvMNtNtCsblqRvDQyS7m_18boundline_adapters12orchestrator6engineINtB2_12OrchestratorNtNtB2_5tests11TestPlannerNtB1l_14TestTraceStoreE23ensure_stage_governanceB6_
FNDA:5,_RNvMNtNtCsblqRvDQyS7m_18boundline_adapters12orchestrator6engineINtB2_12OrchestratorNtNtB2_5tests11TestPlannerNtB1l_14TestTraceStoreE23handle_governance_blockB6_
FNDA:5,_RNvMNtNtCsblqRvDQyS7m_18boundline_adapters12orchestrator6engineINtB2_12OrchestratorNtNtB2_5tests11TestPlannerNtB1l_14TestTraceStoreE25apply_governance_responseB6_
FNDA:1,_RNvMNtNtCsblqRvDQyS7m_18boundline_adapters12orchestrator6engineINtB2_12OrchestratorNtNtB2_5tests11TestPlannerNtB1l_14TestTraceStoreE32record_governance_decision_eventB6_
FNDA:24,_RNvMNtNtCsblqRvDQyS7m_18boundline_adapters12orchestrator6engineINtB2_12OrchestratorNtNtB2_5tests11TestPlannerNtB1l_14TestTraceStoreE3newB6_
FNDA:8,_RNvMNtNtCsblqRvDQyS7m_18boundline_adapters12orchestrator6engineINtB2_12OrchestratorNtNtB2_5tests11TestPlannerNtB1l_14TestTraceStoreE3runB6_
FNF:159
FNH:124
DA:53,24
DA:54,24
DA:55,24
DA:57,12
DA:58,12
DA:59,12
DA:60,12
DA:61,12
DA:62,12
DA:63,12
DA:64,12
DA:65,12
DA:67,8
DA:68,8
DA:70,8
DA:71,8
DA:72,8
DA:73,8
DA:74,8
DA:77,8
DA:78,8
DA:79,8
DA:80,8
DA:82,7
DA:83,7
DA:84,7
DA:85,7
DA:87,7
DA:88,7
DA:89,7
DA:90,7
DA:92,7
DA:93,7
DA:94,7
DA:95,7
DA:96,7
DA:97,7
DA:98,7
DA:99,7
DA:102,7
DA:104,7
DA:105,8
DA:106,1
DA:107,1
DA:109,1
DA:110,1
DA:111,1
DA:112,1
DA:114,1
DA:115,7
DA:117,7
DA:118,1
DA:119,1
DA:121,1
DA:122,1
DA:123,1
DA:125,1
DA:126,6
DA:128,6
DA:129,5
DA:131,0
DA:132,0
DA:133,0
DA:135,1
DA:138,5
DA:139,5
DA:140,5
DA:141,0
DA:142,0
DA:143,0
DA:145,5
DA:146,5
DA:148,5
DA:150,5
DA:151,5
DA:152,5
DA:153,5
DA:154,5
DA:155,5
DA:156,5
DA:157,5
DA:158,5
DA:159,5
DA:160,5
DA:163,5
DA:164,5
DA:165,5
DA:166,5
DA:167,5
DA:168,5
DA:170,5
DA:172,5
DA:173,5
DA:174,5
DA:175,5
DA:177,5
DA:179,1
DA:180,0
DA:181,0
DA:182,0
DA:183,0
DA:185,1
DA:186,1
DA:187,1
DA:188,1
DA:189,1
DA:191,1
DA:192,1
DA:194,1
DA:195,1
DA:196,1
DA:197,1
DA:198,1
DA:199,1
DA:200,1
DA:201,1
DA:202,1
DA:205,1
DA:206,1
DA:207,1
DA:208,1
DA:209,1
DA:210,1
DA:211,1
DA:214,1
DA:215,1
DA:216,1
DA:217,1
DA:218,1
DA:219,1
DA:220,0
DA:222,1
DA:223,1
DA:224,1
DA:225,1
DA:226,1
DA:227,1
DA:228,1
DA:229,1
DA:231,1
DA:232,0
DA:234,0
DA:235,0
DA:238,4
DA:239,0
DA:240,0
DA:241,0
DA:242,0
DA:244,4
DA:245,4
DA:246,4
DA:247,0
DA:248,4
DA:249,4
DA:250,4
DA:252,4
DA:253,4
DA:254,4
DA:255,4
DA:256,4
DA:257,4
DA:258,4
DA:259,4
DA:260,4
DA:261,4
DA:264,4
DA:265,4
DA:266,4
DA:267,4
DA:268,4
DA:269,4
DA:270,4
DA:273,4
DA:275,0
DA:277,1
DA:278,1
DA:279,1
DA:280,1
DA:281,1
DA:282,1
DA:283,1
DA:284,1
DA:285,1
DA:286,1
DA:287,1
DA:290,1
DA:292,2
DA:293,2
DA:294,2
DA:295,2
DA:296,2
DA:297,2
DA:298,1
DA:299,1
DA:300,1
DA:301,0
DA:302,0
DA:303,0
DA:304,0
DA:305,1
DA:306,1
DA:307,1
DA:308,1
DA:312,1
DA:313,1
DA:314,0
DA:315,1
DA:316,1
DA:317,1
DA:319,1
DA:321,1
DA:325,0
DA:326,0
DA:327,0
DA:328,0
DA:329,0
DA:330,0
DA:331,0
DA:332,0
DA:333,0
DA:334,0
DA:335,0
DA:338,0
DA:340,1
DA:341,1
DA:348,7
DA:349,0
DA:350,0
DA:351,0
DA:352,0
DA:354,7
DA:355,7
DA:356,7
DA:357,7
DA:358,7
DA:359,7
DA:360,7
DA:361,7
DA:362,8
DA:364,10
DA:365,10
DA:366,10
DA:367,10
DA:368,10
DA:369,10
DA:370,0
DA:372,10
DA:373,10
DA:375,4
DA:377,6
DA:378,0
DA:380,6
DA:381,6
DA:383,0
DA:385,6
DA:386,6
DA:387,6
DA:388,0
DA:389,6
DA:391,6
DA:392,6
DA:393,6
DA:394,6
DA:395,6
DA:396,1
DA:398,1
DA:399,5
DA:401,5
DA:402,5
DA:403,5
DA:404,5
DA:405,5
DA:406,5
DA:407,5
DA:408,5
DA:409,5
DA:410,5
DA:411,5
DA:412,5
DA:413,5
DA:414,5
DA:415,5
DA:417,5
DA:418,5
DA:419,5
DA:420,5
DA:421,5
DA:422,5
DA:423,5
DA:424,5
DA:425,5
DA:426,5
DA:427,5
DA:428,5
DA:429,5
DA:430,5
DA:431,5
DA:434,0
DA:436,5
DA:437,5
DA:438,5
DA:439,5
DA:440,5
DA:441,5
DA:442,5
DA:443,5
DA:444,4
DA:445,1
DA:446,1
DA:447,1
DA:448,4
DA:450,5
DA:451,5
DA:452,5
DA:453,5
DA:454,5
DA:455,5
DA:456,5
DA:457,5
DA:458,5
DA:459,5
DA:463,5
DA:464,0
DA:465,5
DA:467,5
DA:468,5
DA:470,4
DA:471,1
DA:472,1
DA:473,1
DA:474,1
DA:475,1
DA:476,1
DA:477,1
DA:478,1
DA:479,1
DA:480,1
DA:481,1
DA:482,1
DA:483,1
DA:484,1
DA:487,3
DA:488,1
DA:489,1
DA:490,1
DA:491,1
DA:492,1
DA:493,1
DA:494,1
DA:495,1
DA:496,1
DA:497,1
DA:498,1
DA:499,1
DA:500,1
DA:501,1
DA:502,1
DA:504,2
DA:505,2
DA:506,1
DA:507,1
DA:508,1
DA:509,1
DA:510,1
DA:511,1
DA:512,1
DA:513,1
DA:514,1
DA:515,1
DA:516,1
DA:517,1
DA:518,1
DA:519,1
DA:523,1
DA:524,1
DA:525,1
DA:526,1
DA:527,1
DA:528,1
DA:529,1
DA:530,1
DA:531,1
DA:532,1
DA:533,1
DA:534,1
DA:535,1
DA:536,1
DA:537,1
DA:538,1
DA:540,1
DA:541,1
DA:542,1
DA:543,1
DA:544,1
DA:545,1
DA:546,1
DA:547,1
DA:548,1
DA:549,1
DA:550,1
DA:551,1
DA:552,1
DA:553,1
DA:556,1
DA:557,1
DA:558,1
DA:559,1
DA:560,0
DA:562,1
DA:563,1
DA:564,1
DA:565,1
DA:566,1
DA:567,1
DA:568,1
DA:569,1
DA:570,1
DA:572,1
DA:573,0
DA:574,1
DA:575,1
DA:578,1
DA:579,1
DA:580,1
DA:581,1
DA:582,1
DA:583,1
DA:584,1
DA:585,1
DA:586,1
DA:587,1
DA:588,1
DA:590,1
DA:592,1
DA:593,1
DA:594,1
DA:595,1
DA:596,1
DA:597,1
DA:598,1
DA:599,1
DA:600,1
DA:601,1
DA:602,1
DA:603,1
DA:604,1
DA:605,1
DA:606,1
DA:607,1
DA:610,1
DA:611,1
DA:612,1
DA:613,1
DA:614,1
DA:615,1
DA:616,1
DA:617,1
DA:618,1
DA:621,1
DA:622,1
DA:623,1
DA:624,1
DA:625,0
DA:627,1
DA:628,1
DA:629,1
DA:630,1
DA:631,1
DA:632,1
DA:633,1
DA:634,1
DA:635,1
DA:637,1
DA:638,0
DA:639,1
DA:640,1
DA:643,1
DA:644,1
DA:645,1
DA:646,1
DA:647,1
DA:648,1
DA:649,1
DA:650,1
DA:651,1
DA:652,1
DA:653,1
DA:655,10
DA:657,1
DA:658,1
DA:659,1
DA:660,1
DA:661,1
DA:662,1
DA:663,1
DA:664,1
DA:665,1
DA:666,1
DA:667,1
DA:668,1
DA:669,1
DA:670,1
DA:671,1
DA:672,1
DA:673,1
DA:674,1
DA:675,1
DA:676,1
DA:679,1
DA:682,5
DA:683,5
DA:684,5
DA:685,5
DA:686,5
DA:687,5
DA:688,5
DA:689,5
DA:690,5
DA:691,5
DA:692,5
DA:693,5
DA:694,5
DA:695,5
DA:696,4
DA:697,4
DA:698,5
DA:699,5
DA:700,5
DA:702,2
DA:703,2
DA:704,2
DA:705,2
DA:706,0
DA:707,0
DA:708,0
DA:709,0
DA:710,0
DA:714,0
DA:715,0
DA:716,0
DA:717,0
DA:718,0
DA:721,3
DA:722,3
DA:725,3
DA:727,5
DA:728,5
DA:729,5
DA:730,5
DA:731,5
DA:732,5
DA:733,5
DA:734,5
DA:735,5
DA:736,5
DA:737,5
DA:738,5
DA:739,5
DA:741,5
DA:742,5
DA:743,5
DA:744,5
DA:745,5
DA:746,5
DA:747,5
DA:748,5
DA:750,5
DA:751,5
DA:753,5
DA:754,4
DA:756,2
DA:757,2
DA:758,2
DA:759,2
DA:760,2
DA:761,2
DA:762,2
DA:763,2
DA:764,2
DA:765,2
DA:766,2
DA:767,2
DA:768,2
DA:769,2
DA:770,2
DA:771,2
DA:772,2
DA:773,2
DA:776,3
DA:778,5
DA:780,2
DA:781,2
DA:782,2
DA:783,2
DA:784,2
DA:785,2
DA:786,2
DA:787,2
DA:788,2
DA:789,2
DA:790,2
DA:791,2
DA:792,2
DA:793,2
DA:794,2
DA:795,2
DA:796,2
DA:797,2
DA:798,2
DA:799,2
DA:802,2
DA:803,2
DA:806,1
DA:807,1
DA:808,1
DA:809,1
DA:810,1
DA:811,1
DA:812,1
DA:813,1
DA:814,1
DA:815,1
DA:816,1
DA:817,1
DA:818,1
DA:819,1
DA:820,1
DA:821,1
DA:822,1
DA:823,1
DA:826,1
DA:827,1
DA:828,1
DA:829,1
DA:830,1
DA:831,1
DA:832,1
DA:833,1
DA:835,1
DA:838,2
DA:839,2
DA:840,2
DA:841,2
DA:842,2
DA:843,2
DA:844,2
DA:845,2
DA:846,2
DA:847,2
DA:848,2
DA:849,2
DA:850,2
DA:851,2
DA:852,2
DA:853,2
DA:854,2
DA:855,2
DA:856,2
DA:857,2
DA:861,2
DA:862,1
DA:863,1
DA:864,1
DA:865,1
DA:866,1
DA:867,1
DA:868,1
DA:869,1
DA:871,1
DA:872,1
DA:874,1
DA:875,1
DA:878,0
DA:880,5
DA:882,5
DA:883,5
DA:884,5
DA:885,5
DA:886,5
DA:887,5
DA:888,5
DA:889,5
DA:890,5
DA:891,5
DA:892,5
DA:893,5
DA:894,5
DA:895,5
DA:896,5
DA:897,5
DA:899,5
DA:902,5
DA:903,5
DA:904,5
DA:905,5
DA:907,5
DA:908,5
DA:909,5
DA:910,5
DA:911,5
DA:912,5
DA:913,5
DA:914,5
DA:916,5
DA:917,5
DA:918,5
DA:919,5
DA:920,5
DA:921,5
DA:922,5
DA:923,5
DA:924,5
DA:925,5
DA:926,5
DA:927,5
DA:928,5
DA:929,5
DA:930,5
DA:931,5
DA:932,5
DA:933,5
DA:937,5
DA:938,4
DA:939,4
DA:940,4
DA:941,4
DA:942,4
DA:943,4
DA:944,4
DA:945,4
DA:947,4
DA:948,4
DA:950,1
DA:951,1
DA:953,5
DA:955,7
DA:956,7
DA:957,2
DA:958,1
DA:959,4
DA:961,7
DA:963,4
DA:964,4
DA:965,1
DA:966,1
DA:967,1
DA:971,3
DA:972,1
DA:973,1
DA:975,1
DA:977,1
DA:981,2
DA:982,2
DA:983,2
DA:984,2
DA:985,2
DA:986,2
DA:987,2
DA:988,2
DA:989,4
DA:991,3
DA:992,3
DA:993,1
DA:994,1
DA:995,1
DA:999,2
DA:1000,1
DA:1001,1
DA:1002,1
DA:1006,1
DA:1007,1
DA:1008,1
DA:1009,1
DA:1010,1
DA:1011,1
DA:1012,1
DA:1013,1
DA:1014,3
DA:1016,9
DA:1017,9
DA:1018,1
DA:1021,8
DA:1022,2
DA:1023,2
DA:1024,2
DA:1026,6
DA:1028,6
DA:1029,3
DA:1030,3
DA:1031,3
DA:1033,3
DA:1035,3
DA:1036,1
DA:1037,1
DA:1038,1
DA:1040,2
DA:1042,2
DA:1043,2
DA:1045,2
DA:1046,2
DA:1047,0
DA:1049,9
DA:1051,6
DA:1052,6
DA:1053,4
DA:1054,2
DA:1055,2
DA:1057,2
DA:1059,2
DA:1060,2
DA:1063,6
DA:1065,12
DA:1066,12
DA:1067,12
DA:1068,12
DA:1069,12
DA:1070,12
DA:1071,12
DA:1072,12
DA:1073,12
DA:1074,12
DA:1075,12
DA:1076,12
DA:1077,12
DA:1078,12
DA:1081,12
DA:1082,12
DA:1083,12
DA:1084,12
DA:1086,31
DA:1087,31
DA:1088,30
DA:1089,30
DA:1090,30
DA:1091,29
DA:1092,31
DA:1153,20
DA:1154,20
DA:1155,20
DA:1157,1
DA:1158,1
DA:1159,1
DA:1161,2
DA:1162,2
DA:1163,2
DA:1167,8
DA:1168,8
DA:1169,8
DA:1170,8
DA:1171,8
DA:1172,8
DA:1173,8
DA:1175,2
DA:1176,2
DA:1177,2
DA:1178,2
DA:1179,2
DA:1180,2
DA:1181,2
DA:1182,2
DA:1191,22
DA:1192,22
DA:1193,22
DA:1195,2
DA:1196,2
DA:1197,2
DA:1201,61
DA:1202,61
DA:1203,61
DA:1205,61
DA:1206,2
DA:1207,59
DA:1209,59
DA:1210,61
DA:1212,0
DA:1213,0
DA:1214,0
DA:1216,0
DA:1217,0
DA:1218,0
DA:1221,8
DA:1222,8
DA:1223,8
DA:1225,17
DA:1226,17
DA:1227,17
DA:1228,17
DA:1229,17
DA:1230,17
DA:1231,17
DA:1232,17
DA:1233,17
DA:1234,17
DA:1236,2
DA:1237,2
DA:1240,2
DA:1241,2
DA:1243,2
DA:1245,20
DA:1246,20
DA:1247,20
DA:1248,20
DA:1249,20
DA:1250,20
DA:1252,20
DA:1256,3
DA:1257,3
DA:1258,3
DA:1259,3
DA:1260,3
DA:1261,3
DA:1263,3
DA:1265,15
DA:1266,15
DA:1267,15
DA:1268,15
DA:1269,15
DA:1270,15
DA:1272,15
DA:1273,15
DA:1274,14
DA:1275,14
DA:1276,14
DA:1277,14
DA:1278,14
DA:1279,14
DA:1280,15
DA:1281,15
DA:1282,15
DA:1283,15
DA:1284,15
DA:1285,15
DA:1286,15
DA:1287,15
DA:1288,15
DA:1289,15
DA:1290,15
DA:1291,15
DA:1292,15
DA:1294,15
DA:1296,1
DA:1297,1
DA:1298,1
DA:1300,22
DA:1301,22
DA:1302,22
DA:1303,22
DA:1304,22
DA:1305,26
DA:1306,22
DA:1307,22
DA:1308,22
DA:1309,22
DA:1310,22
DA:1312,22
DA:1313,22
DA:1315,22
DA:1317,22
DA:1318,22
DA:1320,9
DA:1321,9
DA:1322,9
DA:1323,9
DA:1324,9
DA:1325,9
DA:1327,9
DA:1329,12
DA:1330,12
DA:1331,12
DA:1332,12
DA:1333,12
DA:1334,12
DA:1335,12
DA:1336,12
DA:1337,12
DA:1338,12
DA:1340,12
DA:1342,7
DA:1343,7
DA:1344,7
DA:1346,9
DA:1347,9
DA:1349,9
DA:1350,9
DA:1352,9
DA:1353,9
DA:1355,3
DA:1356,3
DA:1357,3
DA:1358,3
DA:1359,3
DA:1361,2
DA:1362,2
DA:1363,2
DA:1364,2
DA:1365,2
DA:1366,2
DA:1367,2
DA:1368,2
DA:1369,2
DA:1372,1
DA:1373,1
DA:1374,1
DA:1377,1
DA:1378,1
DA:1379,1
DA:1380,1
DA:1382,1
DA:1383,1
DA:1384,1
DA:1388,1
DA:1389,1
DA:1390,1
DA:1394,1
DA:1395,1
DA:1396,1
DA:1400,1
DA:1402,1
DA:1403,1
DA:1404,1
DA:1407,1
DA:1408,1
DA:1409,1
DA:1410,1
DA:1411,1
DA:1414,1
DA:1415,1
DA:1416,1
DA:1418,1
DA:1420,1
DA:1421,1
DA:1422,1
DA:1423,1
DA:1424,1
DA:1425,1
DA:1426,1
DA:1427,1
DA:1428,1
DA:1429,1
DA:1430,1
DA:1431,1
DA:1432,1
DA:1434,1
DA:1435,1
DA:1436,1
DA:1438,1
DA:1439,1
DA:1440,1
DA:1441,1
DA:1442,1
DA:1443,1
DA:1444,1
DA:1445,1
DA:1446,1
DA:1447,1
DA:1448,1
DA:1449,1
DA:1450,1
DA:1452,1
DA:1453,1
DA:1454,1
DA:1455,1
DA:1458,1
DA:1459,1
DA:1460,1
DA:1462,1
DA:1463,1
DA:1464,1
DA:1465,1
DA:1466,1
DA:1467,1
DA:1468,1
DA:1469,1
DA:1470,1
DA:1472,1
DA:1473,1
DA:1474,1
DA:1475,1
DA:1476,1
DA:1479,1
DA:1480,1
DA:1481,1
DA:1484,1
DA:1485,1
DA:1486,1
DA:1488,0
DA:1490,1
DA:1493,1
DA:1494,1
DA:1495,1
DA:1496,1
DA:1497,1
DA:1499,1
DA:1500,1
DA:1501,1
DA:1503,1
DA:1504,1
DA:1505,1
DA:1508,1
DA:1509,1
DA:1510,1
DA:1511,1
DA:1512,1
DA:1513,1
DA:1514,1
DA:1515,1
DA:1517,1
DA:1519,1
DA:1520,1
DA:1523,1
DA:1524,1
DA:1526,1
DA:1527,1
DA:1528,1
DA:1529,1
DA:1530,1
DA:1531,1
DA:1533,1
DA:1534,1
DA:1535,1
DA:1536,1
DA:1537,1
DA:1538,1
DA:1541,1
DA:1542,1
DA:1544,1
DA:1545,1
DA:1546,1
DA:1547,1
DA:1548,1
DA:1549,1
DA:1551,1
DA:1552,1
DA:1553,1
DA:1554,1
DA:1555,1
DA:1556,1
DA:1558,1
DA:1559,1
DA:1560,1
DA:1561,1
DA:1563,1
DA:1566,1
DA:1567,1
DA:1568,1
DA:1569,1
DA:1570,1
DA:1571,1
DA:1572,1
DA:1573,1
DA:1574,1
DA:1575,1
DA:1576,1
DA:1577,1
DA:1578,1
DA:1579,1
DA:1580,1
DA:1582,1
DA:1584,1
DA:1585,1
DA:1586,1
DA:1587,1
DA:1588,1
DA:1589,1
DA:1592,1
DA:1593,1
DA:1594,1
DA:1595,1
DA:1596,1
DA:1597,1
DA:1598,1
DA:1599,1
DA:1600,1
DA:1601,1
DA:1602,1
DA:1603,1
DA:1604,1
DA:1605,1
DA:1606,1
DA:1607,1
DA:1608,1
DA:1609,1
DA:1610,1
DA:1611,1
DA:1612,1
DA:1613,1
DA:1614,1
DA:1615,1
DA:1616,1
DA:1617,1
DA:1618,1
DA:1619,1
DA:1620,1
DA:1621,1
DA:1622,1
DA:1623,1
DA:1624,1
DA:1625,1
DA:1626,1
DA:1628,1
DA:1629,1
DA:1630,1
DA:1631,1
DA:1632,1
DA:1633,1
DA:1634,1
DA:1635,1
DA:1636,1
DA:1637,1
DA:1638,1
DA:1639,1
DA:1641,1
DA:1643,1
DA:1644,1
DA:1647,1
DA:1648,1
DA:1649,1
DA:1650,1
DA:1651,1
DA:1652,1
DA:1653,1
DA:1654,1
DA:1656,1
DA:1657,2
DA:1659,1
DA:1662,1
DA:1663,1
DA:1664,1
DA:1665,1
DA:1666,1
DA:1667,1
DA:1668,1
DA:1669,1
DA:1670,1
DA:1671,1
DA:1672,1
DA:1673,1
DA:1674,1
DA:1675,1
DA:1677,1
DA:1678,1
DA:1679,1
DA:1680,1
DA:1681,1
DA:1682,1
DA:1683,1
DA:1684,1
DA:1685,1
DA:1686,1
DA:1687,1
DA:1688,1
DA:1690,1
DA:1692,1
DA:1693,1
DA:1694,1
DA:1696,0
DA:1698,1
DA:1699,1
DA:1700,1
DA:1703,1
DA:1704,1
DA:1705,1
DA:1706,1
DA:1707,1
DA:1709,1
DA:1710,1
DA:1711,1
DA:1712,1
DA:1713,1
DA:1714,1
DA:1715,1
DA:1716,1
DA:1717,1
DA:1718,1
DA:1721,1
DA:1722,1
DA:1723,1
DA:1724,1
DA:1725,1
DA:1726,1
DA:1727,1
DA:1728,1
DA:1729,1
DA:1730,1
DA:1731,1
DA:1732,1
DA:1733,1
DA:1734,1
DA:1735,1
DA:1736,1
DA:1737,1
DA:1738,1
DA:1739,1
DA:1740,1
DA:1741,1
DA:1742,1
DA:1743,1
DA:1744,1
DA:1745,1
DA:1746,1
DA:1747,1
DA:1748,1
DA:1749,1
DA:1750,1
DA:1751,1
DA:1752,1
DA:1753,1
DA:1754,1
DA:1755,1
DA:1757,1
DA:1758,1
DA:1759,1
DA:1760,1
DA:1761,1
DA:1762,1
DA:1763,1
DA:1764,1
DA:1765,1
DA:1766,1
DA:1767,1
DA:1768,1
DA:1770,1
DA:1772,1
DA:1773,1
DA:1776,1
DA:1777,1
DA:1778,1
DA:1779,1
DA:1780,1
DA:1781,1
DA:1782,1
DA:1783,1
DA:1784,1
DA:1786,1
DA:1787,1
DA:1788,1
DA:1789,1
DA:1792,1
DA:1793,1
DA:1794,1
DA:1795,2
DA:1796,1
DA:1797,1
DA:1798,1
DA:1799,1
DA:1800,1
DA:1801,1
DA:1802,1
DA:1804,1
DA:1807,1
DA:1808,1
DA:1809,1
DA:1810,1
DA:1811,1
DA:1812,1
DA:1813,1
DA:1814,1
DA:1815,1
DA:1816,1
DA:1817,1
DA:1818,1
DA:1819,1
DA:1820,1
DA:1821,1
DA:1823,1
DA:1824,1
DA:1825,1
DA:1826,1
DA:1827,1
DA:1828,1
DA:1829,1
DA:1830,1
DA:1831,1
DA:1832,1
DA:1833,1
DA:1834,1
DA:1835,1
DA:1837,1
DA:1839,1
DA:1840,1
DA:1843,1
DA:1844,1
DA:1845,1
DA:1846,1
DA:1847,1
DA:1849,1
DA:1850,1
DA:1853,1
DA:1854,1
DA:1855,1
DA:1856,1
DA:1858,1
DA:1859,1
DA:1860,1
DA:1861,1
DA:1862,1
DA:1863,1
DA:1864,1
DA:1865,1
DA:1866,1
DA:1867,1
DA:1868,1
DA:1869,1
DA:1870,1
DA:1871,1
DA:1872,1
DA:1873,1
DA:1875,1
DA:1877,1
DA:1878,1
DA:1881,1
DA:1882,1
DA:1885,1
DA:1886,1
DA:1887,1
DA:1889,1
DA:1890,1
DA:1892,1
DA:1893,1
DA:1895,1
DA:1897,1
DA:1898,1
DA:1901,1
DA:1902,1
DA:1905,1
DA:1908,1
DA:1909,1
DA:1910,1
DA:1911,1
DA:1913,1
DA:1914,1
DA:1916,1
DA:1917,1
DA:1919,1
DA:1920,1
DA:1922,1
DA:1924,1
DA:1925,1
DA:1928,1
DA:1929,1
DA:1933,1
DA:1934,1
DA:1937,1
DA:1938,1
DA:1939,1
DA:1940,1
DA:1941,1
DA:1942,1
DA:1943,1
DA:1944,1
DA:1945,1
DA:1947,1
DA:1948,1
DA:1950,1
DA:1951,1
DA:1953,1
DA:1954,1
DA:1955,1
DA:1957,1
DA:1959,1
DA:1960,1
DA:1963,1
DA:1964,1
DA:1965,1
DA:1966,1
DA:1967,1
DA:1968,2
DA:1970,1
DA:1971,1
DA:1972,1
DA:1973,1
DA:1974,3
DA:1976,1
DA:1977,1
DA:1978,1
DA:1979,3
DA:1980,1
DA:1981,1
DA:1982,1
DA:1983,1
DA:1984,1
DA:1985,1
DA:1986,1
DA:1989,1
DA:1990,1
DA:1991,1
DA:1994,1
DA:1995,1
DA:1996,1
DA:1997,1
DA:1999,1
DA:2000,1
DA:2001,1
DA:2002,1
DA:2003,1
DA:2004,1
DA:2005,1
DA:2006,1
DA:2007,1
DA:2008,1
DA:2009,1
DA:2010,1
DA:2011,1
DA:2013,1
DA:2015,1
DA:2016,1
DA:2019,1
DA:2020,1
DA:2021,1
DA:2024,1
DA:2025,1
DA:2026,1
DA:2027,1
DA:2028,1
DA:2029,1
DA:2030,1
DA:2031,1
DA:2032,1
DA:2033,1
DA:2036,1
DA:2037,1
DA:2038,1
DA:2039,1
DA:2040,1
DA:2041,1
DA:2042,1
DA:2045,1
DA:2047,1
DA:2048,1
DA:2049,1
DA:2052,1
DA:2053,1
DA:2054,1
DA:2055,1
DA:2056,1
DA:2057,1
DA:2059,1
DA:2061,1
DA:2062,1
DA:2063,1
DA:2066,1
DA:2067,1
DA:2068,1
DA:2069,1
DA:2070,1
DA:2071,1
DA:2072,1
DA:2074,1
DA:2075,1
DA:2076,1
DA:2077,1
DA:2078,1
DA:2079,1
DA:2080,1
DA:2081,1
DA:2083,1
DA:2084,1
DA:2085,1
DA:2087,1
DA:2089,1
DA:2090,1
DA:2091,1
DA:2092,1
DA:2094,1
DA:2097,1
DA:2098,1
DA:2099,1
DA:2102,1
DA:2103,1
DA:2104,1
DA:2105,1
DA:2106,1
DA:2108,1
DA:2109,1
DA:2110,1
DA:2111,1
DA:2112,1
DA:2115,1
DA:2116,1
DA:2118,1
DA:2119,1
DA:2122,1
DA:2123,1
DA:2126,1
DA:2129,1
DA:2130,1
DA:2131,1
DA:2133,1
DA:2134,1
DA:2135,1
DA:2137,1
DA:2138,1
DA:2139,1
DA:2140,1
DA:2142,1
DA:2144,1
DA:2145,1
DA:2146,1
DA:2147,1
DA:2149,1
DA:2150,1
DA:2151,1
DA:2152,1
DA:2154,1
DA:2156,1
DA:2158,1
DA:2159,1
DA:2160,1
DA:2161,1
DA:2162,1
DA:2163,1
DA:2165,1
DA:2166,1
DA:2168,1
DA:2169,1
DA:2170,1
BRF:0
BRH:0
LF:1713
LH:1608
end_of_record
SF:/Users/rt/workspace/apply-the/boundline/crates/boundline-adapters/src/../../../src/orchestrator/flow_inference.rs
FN:41,_RNvMNtNtCsgV4MOW29Zwc_18boundline_adapters12orchestrator14flow_inferenceNtB2_13FlowCandidate8priority
FN:33,_RNvMNtNtCsgV4MOW29Zwc_18boundline_adapters12orchestrator14flow_inferenceNtB2_13FlowCandidate9flow_name
FN:86,_RNvNtNtCsgV4MOW29Zwc_18boundline_adapters12orchestrator14flow_inference10infer_flow
FN:158,_RNvNtNtCsgV4MOW29Zwc_18boundline_adapters12orchestrator14flow_inference12score_change
FN:298,_RNvNtNtCsgV4MOW29Zwc_18boundline_adapters12orchestrator14flow_inference13is_doc_target
FN:126,_RNvNtNtCsgV4MOW29Zwc_18boundline_adapters12orchestrator14flow_inference13score_bug_fix
FN:289,_RNvNtNtCsgV4MOW29Zwc_18boundline_adapters12orchestrator14flow_inference14is_test_target
FN:191,_RNvNtNtCsgV4MOW29Zwc_18boundline_adapters12orchestrator14flow_inference14score_delivery
FN:243,_RNvNtNtCsgV4MOW29Zwc_18boundline_adapters12orchestrator14flow_inference15has_test_target
FN:261,_RNvNtNtCsgV4MOW29Zwc_18boundline_adapters12orchestrator14flow_inference16doc_target_count
FN:231,_RNvNtNtCsgV4MOW29Zwc_18boundline_adapters12orchestrator14flow_inference16has_recent_trace
FN:284,_RNvNtNtCsgV4MOW29Zwc_18boundline_adapters12orchestrator14flow_inference16is_source_target
FN:221,_RNvNtNtCsgV4MOW29Zwc_18boundline_adapters12orchestrator14flow_inference16matched_keywords
FN:237,_RNvNtNtCsgV4MOW29Zwc_18boundline_adapters12orchestrator14flow_inference17has_source_target
FN:249,_RNvNtNtCsgV4MOW29Zwc_18boundline_adapters12orchestrator14flow_inference17symbol_hint_count
FN:267,_RNvNtNtCsgV4MOW29Zwc_18boundline_adapters12orchestrator14flow_inference22workflow_delivery_hint
FN:50,_RNvNtNtCsgV4MOW29Zwc_18boundline_adapters12orchestrator14flow_inference23infer_flow_from_context
FN:255,_RNvNtNtCsgV4MOW29Zwc_18boundline_adapters12orchestrator14flow_inference23negotiation_input_count
FN:246,_RNCNCNvNtNtCsgV4MOW29Zwc_18boundline_adapters12orchestrator14flow_inference15has_test_target00B9_
FN:263,_RNCNCNvNtNtCsgV4MOW29Zwc_18boundline_adapters12orchestrator14flow_inference16doc_target_count00B9_
FN:233,_RNCNCNvNtNtCsgV4MOW29Zwc_18boundline_adapters12orchestrator14flow_inference16has_recent_trace00B9_
FN:226,_RNCNCNvNtNtCsgV4MOW29Zwc_18boundline_adapters12orchestrator14flow_inference16matched_keywords00B9_
FN:240,_RNCNCNvNtNtCsgV4MOW29Zwc_18boundline_adapters12orchestrator14flow_inference17has_source_target00B9_
FN:251,_RNCNCNvNtNtCsgV4MOW29Zwc_18boundline_adapters12orchestrator14flow_inference17symbol_hint_count00B9_
FN:65,_RNCNCNvNtNtCsgV4MOW29Zwc_18boundline_adapters12orchestrator14flow_inference23infer_flow_from_contexts_00B9_
FN:257,_RNCNCNvNtNtCsgV4MOW29Zwc_18boundline_adapters12orchestrator14flow_inference23negotiation_input_count00B9_
FN:92,_RNCNvNtNtCsgV4MOW29Zwc_18boundline_adapters12orchestrator14flow_inference10infer_flow0B7_
FN:114,_RNCNvNtNtCsgV4MOW29Zwc_18boundline_adapters12orchestrator14flow_inference10infer_flows0_0B7_
FN:103,_RNCNvNtNtCsgV4MOW29Zwc_18boundline_adapters12orchestrator14flow_inference10infer_flows_0B7_
FN:170,_RNCNvNtNtCsgV4MOW29Zwc_18boundline_adapters12orchestrator14flow_inference12score_change0B7_
FN:137,_RNCNvNtNtCsgV4MOW29Zwc_18boundline_adapters12orchestrator14flow_inference13score_bug_fix0B7_
FN:202,_RNCNvNtNtCsgV4MOW29Zwc_18boundline_adapters12orchestrator14flow_inference14score_delivery0B7_
FN:246,_RNCNvNtNtCsgV4MOW29Zwc_18boundline_adapters12orchestrator14flow_inference15has_test_target0B7_
FN:262,_RNCNvNtNtCsgV4MOW29Zwc_18boundline_adapters12orchestrator14flow_inference16doc_target_count0B7_
FN:232,_RNCNvNtNtCsgV4MOW29Zwc_18boundline_adapters12orchestrator14flow_inference16has_recent_trace0B7_
FN:226,_RNCNvNtNtCsgV4MOW29Zwc_18boundline_adapters12orchestrator14flow_inference16matched_keywords0B7_
FN:227,_RNCNvNtNtCsgV4MOW29Zwc_18boundline_adapters12orchestrator14flow_inference16matched_keywordss_0B7_
FN:240,_RNCNvNtNtCsgV4MOW29Zwc_18boundline_adapters12orchestrator14flow_inference17has_source_target0B7_
FN:250,_RNCNvNtNtCsgV4MOW29Zwc_18boundline_adapters12orchestrator14flow_inference17symbol_hint_count0B7_
FN:281,_RNCNvNtNtCsgV4MOW29Zwc_18boundline_adapters12orchestrator14flow_inference22workflow_delivery_hint0B7_
FN:61,_RNCNvNtNtCsgV4MOW29Zwc_18boundline_adapters12orchestrator14flow_inference23infer_flow_from_context0B7_
FN:64,_RNCNvNtNtCsgV4MOW29Zwc_18boundline_adapters12orchestrator14flow_inference23infer_flow_from_contexts_0B7_
FN:256,_RNCNvNtNtCsgV4MOW29Zwc_18boundline_adapters12orchestrator14flow_inference23negotiation_input_count0B7_
FN:246,_RNCNCNvNtNtCsblqRvDQyS7m_18boundline_adapters12orchestrator14flow_inference15has_test_target00B9_
FN:263,_RNCNCNvNtNtCsblqRvDQyS7m_18boundline_adapters12orchestrator14flow_inference16doc_target_count00B9_
FN:233,_RNCNCNvNtNtCsblqRvDQyS7m_18boundline_adapters12orchestrator14flow_inference16has_recent_trace00B9_
FN:226,_RNCNCNvNtNtCsblqRvDQyS7m_18boundline_adapters12orchestrator14flow_inference16matched_keywords00B9_
FN:240,_RNCNCNvNtNtCsblqRvDQyS7m_18boundline_adapters12orchestrator14flow_inference17has_source_target00B9_
FN:251,_RNCNCNvNtNtCsblqRvDQyS7m_18boundline_adapters12orchestrator14flow_inference17symbol_hint_count00B9_
FN:65,_RNCNCNvNtNtCsblqRvDQyS7m_18boundline_adapters12orchestrator14flow_inference23infer_flow_from_contexts_00B9_
FN:257,_RNCNCNvNtNtCsblqRvDQyS7m_18boundline_adapters12orchestrator14flow_inference23negotiation_input_count00B9_
FN:170,_RNCNvNtNtCsblqRvDQyS7m_18boundline_adapters12orchestrator14flow_inference12score_change0B7_
FN:137,_RNCNvNtNtCsblqRvDQyS7m_18boundline_adapters12orchestrator14flow_inference13score_bug_fix0B7_
FN:202,_RNCNvNtNtCsblqRvDQyS7m_18boundline_adapters12orchestrator14flow_inference14score_delivery0B7_
FN:246,_RNCNvNtNtCsblqRvDQyS7m_18boundline_adapters12orchestrator14flow_inference15has_test_target0B7_
FN:262,_RNCNvNtNtCsblqRvDQyS7m_18boundline_adapters12orchestrator14flow_inference16doc_target_count0B7_
FN:232,_RNCNvNtNtCsblqRvDQyS7m_18boundline_adapters12orchestrator14flow_inference16has_recent_trace0B7_
FN:226,_RNCNvNtNtCsblqRvDQyS7m_18boundline_adapters12orchestrator14flow_inference16matched_keywords0B7_
FN:227,_RNCNvNtNtCsblqRvDQyS7m_18boundline_adapters12orchestrator14flow_inference16matched_keywordss_0B7_
FN:240,_RNCNvNtNtCsblqRvDQyS7m_18boundline_adapters12orchestrator14flow_inference17has_source_target0B7_
FN:250,_RNCNvNtNtCsblqRvDQyS7m_18boundline_adapters12orchestrator14flow_inference17symbol_hint_count0B7_
FN:281,_RNCNvNtNtCsblqRvDQyS7m_18boundline_adapters12orchestrator14flow_inference22workflow_delivery_hint0B7_
FN:61,_RNCNvNtNtCsblqRvDQyS7m_18boundline_adapters12orchestrator14flow_inference23infer_flow_from_context0B7_
FN:64,_RNCNvNtNtCsblqRvDQyS7m_18boundline_adapters12orchestrator14flow_inference23infer_flow_from_contexts_0B7_
FN:256,_RNCNvNtNtCsblqRvDQyS7m_18boundline_adapters12orchestrator14flow_inference23negotiation_input_count0B7_
FN:92,_RNCNvNtNtCsblqRvDQyS7m_18boundline_adapters12orchestrator14flow_inference10infer_flow0B7_
FN:114,_RNCNvNtNtCsblqRvDQyS7m_18boundline_adapters12orchestrator14flow_inference10infer_flows0_0B7_
FN:103,_RNCNvNtNtCsblqRvDQyS7m_18boundline_adapters12orchestrator14flow_inference10infer_flows_0B7_
FN:86,_RNvNtNtCsblqRvDQyS7m_18boundline_adapters12orchestrator14flow_inference10infer_flow
FN:41,_RNvMNtNtCsblqRvDQyS7m_18boundline_adapters12orchestrator14flow_inferenceNtB2_13FlowCandidate8priority
FN:33,_RNvMNtNtCsblqRvDQyS7m_18boundline_adapters12orchestrator14flow_inferenceNtB2_13FlowCandidate9flow_name
FN:158,_RNvNtNtCsblqRvDQyS7m_18boundline_adapters12orchestrator14flow_inference12score_change
FN:298,_RNvNtNtCsblqRvDQyS7m_18boundline_adapters12orchestrator14flow_inference13is_doc_target
FN:126,_RNvNtNtCsblqRvDQyS7m_18boundline_adapters12orchestrator14flow_inference13score_bug_fix
FN:289,_RNvNtNtCsblqRvDQyS7m_18boundline_adapters12orchestrator14flow_inference14is_test_target
FN:191,_RNvNtNtCsblqRvDQyS7m_18boundline_adapters12orchestrator14flow_inference14score_delivery
FN:243,_RNvNtNtCsblqRvDQyS7m_18boundline_adapters12orchestrator14flow_inference15has_test_target
FN:261,_RNvNtNtCsblqRvDQyS7m_18boundline_adapters12orchestrator14flow_inference16doc_target_count
FN:231,_RNvNtNtCsblqRvDQyS7m_18boundline_adapters12orchestrator14flow_inference16has_recent_trace
FN:284,_RNvNtNtCsblqRvDQyS7m_18boundline_adapters12orchestrator14flow_inference16is_source_target
FN:221,_RNvNtNtCsblqRvDQyS7m_18boundline_adapters12orchestrator14flow_inference16matched_keywords
FN:237,_RNvNtNtCsblqRvDQyS7m_18boundline_adapters12orchestrator14flow_inference17has_source_target
FN:249,_RNvNtNtCsblqRvDQyS7m_18boundline_adapters12orchestrator14flow_inference17symbol_hint_count
FN:267,_RNvNtNtCsblqRvDQyS7m_18boundline_adapters12orchestrator14flow_inference22workflow_delivery_hint
FN:50,_RNvNtNtCsblqRvDQyS7m_18boundline_adapters12orchestrator14flow_inference23infer_flow_from_context
FN:255,_RNvNtNtCsblqRvDQyS7m_18boundline_adapters12orchestrator14flow_inference23negotiation_input_count
FNDA:0,_RNvMNtNtCsgV4MOW29Zwc_18boundline_adapters12orchestrator14flow_inferenceNtB2_13FlowCandidate8priority
FNDA:24,_RNvMNtNtCsgV4MOW29Zwc_18boundline_adapters12orchestrator14flow_inferenceNtB2_13FlowCandidate9flow_name
FNDA:26,_RNvNtNtCsgV4MOW29Zwc_18boundline_adapters12orchestrator14flow_inference10infer_flow
FNDA:12,_RNvNtNtCsgV4MOW29Zwc_18boundline_adapters12orchestrator14flow_inference12score_change
FNDA:7,_RNvNtNtCsgV4MOW29Zwc_18boundline_adapters12orchestrator14flow_inference13is_doc_target
FNDA:12,_RNvNtNtCsgV4MOW29Zwc_18boundline_adapters12orchestrator14flow_inference13score_bug_fix
FNDA:37,_RNvNtNtCsgV4MOW29Zwc_18boundline_adapters12orchestrator14flow_inference14is_test_target
FNDA:12,_RNvNtNtCsgV4MOW29Zwc_18boundline_adapters12orchestrator14flow_inference14score_delivery
FNDA:17,_RNvNtNtCsgV4MOW29Zwc_18boundline_adapters12orchestrator14flow_inference15has_test_target
FNDA:6,_RNvNtNtCsgV4MOW29Zwc_18boundline_adapters12orchestrator14flow_inference16doc_target_count
FNDA:19,_RNvNtNtCsgV4MOW29Zwc_18boundline_adapters12orchestrator14flow_inference16has_recent_trace
FNDA:18,_RNvNtNtCsgV4MOW29Zwc_18boundline_adapters12orchestrator14flow_inference16is_source_target
FNDA:48,_RNvNtNtCsgV4MOW29Zwc_18boundline_adapters12orchestrator14flow_inference16matched_keywords
FNDA:24,_RNvNtNtCsgV4MOW29Zwc_18boundline_adapters12orchestrator14flow_inference17has_source_target
FNDA:12,_RNvNtNtCsgV4MOW29Zwc_18boundline_adapters12orchestrator14flow_inference17symbol_hint_count
FNDA:12,_RNvNtNtCsgV4MOW29Zwc_18boundline_adapters12orchestrator14flow_inference22workflow_delivery_hint
FNDA:12,_RNvNtNtCsgV4MOW29Zwc_18boundline_adapters12orchestrator14flow_inference23infer_flow_from_context
FNDA:12,_RNvNtNtCsgV4MOW29Zwc_18boundline_adapters12orchestrator14flow_inference23negotiation_input_count
FNDA:21,_RNCNCNvNtNtCsgV4MOW29Zwc_18boundline_adapters12orchestrator14flow_inference15has_test_target00B9_
FNDA:7,_RNCNCNvNtNtCsgV4MOW29Zwc_18boundline_adapters12orchestrator14flow_inference16doc_target_count00B9_
FNDA:70,_RNCNCNvNtNtCsgV4MOW29Zwc_18boundline_adapters12orchestrator14flow_inference16has_recent_trace00B9_
FNDA:1145,_RNCNCNvNtNtCsgV4MOW29Zwc_18boundline_adapters12orchestrator14flow_inference16matched_keywords00B9_
FNDA:18,_RNCNCNvNtNtCsgV4MOW29Zwc_18boundline_adapters12orchestrator14flow_inference17has_source_target00B9_
FNDA:49,_RNCNCNvNtNtCsgV4MOW29Zwc_18boundline_adapters12orchestrator14flow_inference17symbol_hint_count00B9_
FNDA:0,_RNCNCNvNtNtCsgV4MOW29Zwc_18boundline_adapters12orchestrator14flow_inference23infer_flow_from_contexts_00B9_
FNDA:49,_RNCNCNvNtNtCsgV4MOW29Zwc_18boundline_adapters12orchestrator14flow_inference23negotiation_input_count00B9_
FNDA:793,_RNCNvNtNtCsgV4MOW29Zwc_18boundline_adapters12orchestrator14flow_inference10infer_flow0B7_
FNDA:224,_RNCNvNtNtCsgV4MOW29Zwc_18boundline_adapters12orchestrator14flow_inference10infer_flows0_0B7_
FNDA:435,_RNCNvNtNtCsgV4MOW29Zwc_18boundline_adapters12orchestrator14flow_inference10infer_flows_0B7_
FNDA:7,_RNCNvNtNtCsgV4MOW29Zwc_18boundline_adapters12orchestrator14flow_inference12score_change0B7_
FNDA:6,_RNCNvNtNtCsgV4MOW29Zwc_18boundline_adapters12orchestrator14flow_inference13score_bug_fix0B7_
FNDA:0,_RNCNvNtNtCsgV4MOW29Zwc_18boundline_adapters12orchestrator14flow_inference14score_delivery0B7_
FNDA:17,_RNCNvNtNtCsgV4MOW29Zwc_18boundline_adapters12orchestrator14flow_inference15has_test_target0B7_
FNDA:6,_RNCNvNtNtCsgV4MOW29Zwc_18boundline_adapters12orchestrator14flow_inference16doc_target_count0B7_
FNDA:19,_RNCNvNtNtCsgV4MOW29Zwc_18boundline_adapters12orchestrator14flow_inference16has_recent_trace0B7_
FNDA:324,_RNCNvNtNtCsgV4MOW29Zwc_18boundline_adapters12orchestrator14flow_inference16matched_keywords0B7_
FNDA:19,_RNCNvNtNtCsgV4MOW29Zwc_18boundline_adapters12orchestrator14flow_inference16matched_keywordss_0B7_
FNDA:24,_RNCNvNtNtCsgV4MOW29Zwc_18boundline_adapters12orchestrator14flow_inference17has_source_target0B7_
FNDA:12,_RNCNvNtNtCsgV4MOW29Zwc_18boundline_adapters12orchestrator14flow_inference17symbol_hint_count0B7_
FNDA:0,_RNCNvNtNtCsgV4MOW29Zwc_18boundline_adapters12orchestrator14flow_inference22workflow_delivery_hint0B7_
FNDA:36,_RNCNvNtNtCsgV4MOW29Zwc_18boundline_adapters12orchestrator14flow_inference23infer_flow_from_context0B7_
FNDA:6,_RNCNvNtNtCsgV4MOW29Zwc_18boundline_adapters12orchestrator14flow_inference23infer_flow_from_contexts_0B7_
FNDA:12,_RNCNvNtNtCsgV4MOW29Zwc_18boundline_adapters12orchestrator14flow_inference23negotiation_input_count0B7_
FNDA:12,_RNCNCNvNtNtCsblqRvDQyS7m_18boundline_adapters12orchestrator14flow_inference15has_test_target00B9_
FNDA:0,_RNCNCNvNtNtCsblqRvDQyS7m_18boundline_adapters12orchestrator14flow_inference16doc_target_count00B9_
FNDA:50,_RNCNCNvNtNtCsblqRvDQyS7m_18boundline_adapters12orchestrator14flow_inference16has_recent_trace00B9_
FNDA:1100,_RNCNCNvNtNtCsblqRvDQyS7m_18boundline_adapters12orchestrator14flow_inference16matched_keywords00B9_
FNDA:14,_RNCNCNvNtNtCsblqRvDQyS7m_18boundline_adapters12orchestrator14flow_inference17has_source_target00B9_
FNDA:25,_RNCNCNvNtNtCsblqRvDQyS7m_18boundline_adapters12orchestrator14flow_inference17symbol_hint_count00B9_
FNDA:1,_RNCNCNvNtNtCsblqRvDQyS7m_18boundline_adapters12orchestrator14flow_inference23infer_flow_from_contexts_00B9_
FNDA:25,_RNCNCNvNtNtCsblqRvDQyS7m_18boundline_adapters12orchestrator14flow_inference23negotiation_input_count00B9_
FNDA:1,_RNCNvNtNtCsblqRvDQyS7m_18boundline_adapters12orchestrator14flow_inference12score_change0B7_
FNDA:1,_RNCNvNtNtCsblqRvDQyS7m_18boundline_adapters12orchestrator14flow_inference13score_bug_fix0B7_
FNDA:2,_RNCNvNtNtCsblqRvDQyS7m_18boundline_adapters12orchestrator14flow_inference14score_delivery0B7_
FNDA:12,_RNCNvNtNtCsblqRvDQyS7m_18boundline_adapters12orchestrator14flow_inference15has_test_target0B7_
FNDA:1,_RNCNvNtNtCsblqRvDQyS7m_18boundline_adapters12orchestrator14flow_inference16doc_target_count0B7_
FNDA:17,_RNCNvNtNtCsblqRvDQyS7m_18boundline_adapters12orchestrator14flow_inference16has_recent_trace0B7_
FNDA:243,_RNCNvNtNtCsblqRvDQyS7m_18boundline_adapters12orchestrator14flow_inference16matched_keywords0B7_
FNDA:5,_RNCNvNtNtCsblqRvDQyS7m_18boundline_adapters12orchestrator14flow_inference16matched_keywordss_0B7_
FNDA:18,_RNCNvNtNtCsblqRvDQyS7m_18boundline_adapters12orchestrator14flow_inference17has_source_target0B7_
FNDA:9,_RNCNvNtNtCsblqRvDQyS7m_18boundline_adapters12orchestrator14flow_inference17symbol_hint_count0B7_
FNDA:0,_RNCNvNtNtCsblqRvDQyS7m_18boundline_adapters12orchestrator14flow_inference22workflow_delivery_hint0B7_
FNDA:27,_RNCNvNtNtCsblqRvDQyS7m_18boundline_adapters12orchestrator14flow_inference23infer_flow_from_context0B7_
FNDA:3,_RNCNvNtNtCsblqRvDQyS7m_18boundline_adapters12orchestrator14flow_inference23infer_flow_from_contexts_0B7_
FNDA:9,_RNCNvNtNtCsblqRvDQyS7m_18boundline_adapters12orchestrator14flow_inference23negotiation_input_count0B7_
FNDA:0,_RNCNvNtNtCsblqRvDQyS7m_18boundline_adapters12orchestrator14flow_inference10infer_flow0B7_
FNDA:0,_RNCNvNtNtCsblqRvDQyS7m_18boundline_adapters12orchestrator14flow_inference10infer_flows0_0B7_
FNDA:0,_RNCNvNtNtCsblqRvDQyS7m_18boundline_adapters12orchestrator14flow_inference10infer_flows_0B7_
FNDA:0,_RNvNtNtCsblqRvDQyS7m_18boundline_adapters12orchestrator14flow_inference10infer_flow
FNDA:2,_RNvMNtNtCsblqRvDQyS7m_18boundline_adapters12orchestrator14flow_inferenceNtB2_13FlowCandidate8priority
FNDA:18,_RNvMNtNtCsblqRvDQyS7m_18boundline_adapters12orchestrator14flow_inferenceNtB2_13FlowCandidate9flow_name
FNDA:9,_RNvNtNtCsblqRvDQyS7m_18boundline_adapters12orchestrator14flow_inference12score_change
FNDA:0,_RNvNtNtCsblqRvDQyS7m_18boundline_adapters12orchestrator14flow_inference13is_doc_target
FNDA:9,_RNvNtNtCsblqRvDQyS7m_18boundline_adapters12orchestrator14flow_inference13score_bug_fix
FNDA:20,_RNvNtNtCsblqRvDQyS7m_18boundline_adapters12orchestrator14flow_inference14is_test_target
FNDA:9,_RNvNtNtCsblqRvDQyS7m_18boundline_adapters12orchestrator14flow_inference14score_delivery
FNDA:12,_RNvNtNtCsblqRvDQyS7m_18boundline_adapters12orchestrator14flow_inference15has_test_target
FNDA:1,_RNvNtNtCsblqRvDQyS7m_18boundline_adapters12orchestrator14flow_inference16doc_target_count
FNDA:17,_RNvNtNtCsblqRvDQyS7m_18boundline_adapters12orchestrator14flow_inference16has_recent_trace
FNDA:14,_RNvNtNtCsblqRvDQyS7m_18boundline_adapters12orchestrator14flow_inference16is_source_target
FNDA:36,_RNvNtNtCsblqRvDQyS7m_18boundline_adapters12orchestrator14flow_inference16matched_keywords
FNDA:18,_RNvNtNtCsblqRvDQyS7m_18boundline_adapters12orchestrator14flow_inference17has_source_target
FNDA:9,_RNvNtNtCsblqRvDQyS7m_18boundline_adapters12orchestrator14flow_inference17symbol_hint_count
FNDA:9,_RNvNtNtCsblqRvDQyS7m_18boundline_adapters12orchestrator14flow_inference22workflow_delivery_hint
FNDA:9,_RNvNtNtCsblqRvDQyS7m_18boundline_adapters12orchestrator14flow_inference23infer_flow_from_context
FNDA:9,_RNvNtNtCsblqRvDQyS7m_18boundline_adapters12orchestrator14flow_inference23negotiation_input_count
FNF:43
FNH:42
DA:33,42
DA:34,42
DA:35,12
DA:36,26
DA:37,4
DA:39,42
DA:41,2
DA:42,2
DA:43,1
DA:44,0
DA:45,1
DA:47,2
DA:50,21
DA:51,21
DA:52,21
DA:53,21
DA:55,21
DA:56,21
DA:57,21
DA:58,21
DA:60,21
DA:61,63
DA:62,21
DA:64,21
DA:65,9
DA:66,9
DA:68,21
DA:69,21
DA:71,21
DA:72,21
DA:75,21
DA:76,21
DA:77,21
DA:78,21
DA:79,21
DA:80,21
DA:86,26
DA:87,26
DA:88,26
DA:91,149
DA:92,793
DA:93,9
DA:94,9
DA:95,9
DA:96,9
DA:97,9
DA:98,140
DA:102,84
DA:103,435
DA:104,7
DA:105,7
DA:106,7
DA:107,7
DA:108,7
DA:109,77
DA:113,49
DA:114,224
DA:115,7
DA:116,7
DA:117,7
DA:118,7
DA:119,7
DA:120,42
DA:123,3
DA:124,26
DA:126,21
DA:127,21
DA:128,21
DA:130,21
DA:131,21
DA:132,4
DA:133,4
DA:135,4
DA:136,4
DA:137,7
DA:138,4
DA:139,4
DA:141,17
DA:142,21
DA:143,0
DA:144,0
DA:145,21
DA:146,21
DA:147,5
DA:148,5
DA:149,16
DA:150,21
DA:151,6
DA:152,6
DA:153,15
DA:155,21
DA:156,21
DA:158,21
DA:159,21
DA:160,21
DA:161,21
DA:163,21
DA:164,21
DA:165,6
DA:166,6
DA:168,6
DA:169,6
DA:170,8
DA:171,6
DA:172,6
DA:174,15
DA:175,21
DA:176,12
DA:177,12
DA:178,12
DA:179,21
DA:180,7
DA:181,7
DA:182,14
DA:183,21
DA:184,15
DA:185,15
DA:186,15
DA:188,21
DA:189,21
DA:191,21
DA:192,21
DA:193,21
DA:195,21
DA:196,21
DA:197,2
DA:198,2
DA:200,2
DA:201,2
DA:202,2
DA:203,2
DA:204,2
DA:206,19
DA:207,21
DA:208,0
DA:209,0
DA:210,21
DA:211,21
DA:212,0
DA:213,0
DA:214,0
DA:215,0
DA:216,21
DA:218,21
DA:219,21
DA:221,84
DA:222,84
DA:223,84
DA:224,84
DA:225,84
DA:226,2245
DA:227,84
DA:228,84
DA:229,84
DA:231,36
DA:232,36
DA:233,120
DA:234,36
DA:235,36
DA:237,42
DA:238,42
DA:239,42
DA:240,42
DA:241,42
DA:243,29
DA:244,29
DA:245,29
DA:246,33
DA:247,29
DA:249,21
DA:250,21
DA:251,74
DA:252,21
DA:253,21
DA:255,21
DA:256,21
DA:257,74
DA:258,21
DA:259,21
DA:261,7
DA:262,7
DA:263,7
DA:264,7
DA:265,7
DA:267,21
DA:268,21
DA:269,21
DA:272,0
DA:273,0
DA:274,0
DA:275,0
DA:276,0
DA:277,0
DA:278,0
DA:280,0
DA:281,0
DA:282,21
DA:284,32
DA:285,32
DA:286,32
DA:287,32
DA:289,57
DA:290,57
DA:291,57
DA:292,50
DA:293,50
DA:294,50
DA:295,50
DA:296,57
DA:298,7
DA:299,7
DA:300,7
DA:301,7
BRF:0
BRH:0
LF:238
LH:219
end_of_record
SF:/Users/rt/workspace/apply-the/boundline/crates/boundline-adapters/src/../../../src/orchestrator/goal_planner.rs
FN:624,_RINvNtNtCsgV4MOW29Zwc_18boundline_adapters12orchestrator12goal_planner18expert_pack_signalNtNtCs1OjIl8oxbrv_5alloc6string6StringB1q_EB6_
FN:624,_RINvNtNtCsgV4MOW29Zwc_18boundline_adapters12orchestrator12goal_planner18expert_pack_signalNtNtCs1OjIl8oxbrv_5alloc6string6StringReEB6_
FN:624,_RINvNtNtCsgV4MOW29Zwc_18boundline_adapters12orchestrator12goal_planner18expert_pack_signalReNtNtCs1OjIl8oxbrv_5alloc6string6StringEB6_
FN:1287,_RNCNCNCNvNtNtCsgV4MOW29Zwc_18boundline_adapters12orchestrator12goal_planner18build_context_packs5_000Bb_
FN:1292,_RNCNCNCNvNtNtCsgV4MOW29Zwc_18boundline_adapters12orchestrator12goal_planner18build_context_packs6_000Bb_
FN:1287,_RNCNCNvNtNtCsgV4MOW29Zwc_18boundline_adapters12orchestrator12goal_planner18build_context_packs5_00B9_
FN:1292,_RNCNCNvNtNtCsgV4MOW29Zwc_18boundline_adapters12orchestrator12goal_planner18build_context_packs6_00B9_
FN:1390,_RNCNCNvNtNtCsgV4MOW29Zwc_18boundline_adapters12orchestrator12goal_planner20select_source_targets_00B9_
FN:291,_RNCNCNvNtNtCsgV4MOW29Zwc_18boundline_adapters12orchestrator12goal_planner23related_workspace_filess_00B9_
FN:524,_RNCNCNvNtNtCsgV4MOW29Zwc_18boundline_adapters12orchestrator12goal_planner24selected_canon_artifacts00B9_
FN:273,_RNCNCNvNtNtCsgV4MOW29Zwc_18boundline_adapters12orchestrator12goal_planner31extract_explicit_workspace_refs00B9_
FN:439,_RNCNCNvNtNtCsgV4MOW29Zwc_18boundline_adapters12orchestrator12goal_planner32select_relevant_workspace_inputss1_00B9_
FN:441,_RNCNCNvNtNtCsgV4MOW29Zwc_18boundline_adapters12orchestrator12goal_planner32select_relevant_workspace_inputss1_0s0_0B9_
FN:440,_RNCNCNvNtNtCsgV4MOW29Zwc_18boundline_adapters12orchestrator12goal_planner32select_relevant_workspace_inputss1_0s_0B9_
FN:172,_RNCNvNtNtCsgV4MOW29Zwc_18boundline_adapters12orchestrator12goal_planner13goal_keywords0B7_
FN:175,_RNCNvNtNtCsgV4MOW29Zwc_18boundline_adapters12orchestrator12goal_planner13goal_keywordss0_0B7_
FN:174,_RNCNvNtNtCsgV4MOW29Zwc_18boundline_adapters12orchestrator12goal_planner13goal_keywordss_0B7_
FN:213,_RNCNvNtNtCsgV4MOW29Zwc_18boundline_adapters12orchestrator12goal_planner15file_name_lower0B7_
FN:1158,_RNCNvNtNtCsgV4MOW29Zwc_18boundline_adapters12orchestrator12goal_planner18build_context_pack0B7_
FN:1259,_RNCNvNtNtCsgV4MOW29Zwc_18boundline_adapters12orchestrator12goal_planner18build_context_packs0_0B7_
FN:1260,_RNCNvNtNtCsgV4MOW29Zwc_18boundline_adapters12orchestrator12goal_planner18build_context_packs1_0B7_
FN:1261,_RNCNvNtNtCsgV4MOW29Zwc_18boundline_adapters12orchestrator12goal_planner18build_context_packs2_0B7_
FN:1275,_RNCNvNtNtCsgV4MOW29Zwc_18boundline_adapters12orchestrator12goal_planner18build_context_packs3_0B7_
FN:1280,_RNCNvNtNtCsgV4MOW29Zwc_18boundline_adapters12orchestrator12goal_planner18build_context_packs4_0B7_
FN:1282,_RNCNvNtNtCsgV4MOW29Zwc_18boundline_adapters12orchestrator12goal_planner18build_context_packs5_0B7_
FN:1290,_RNCNvNtNtCsgV4MOW29Zwc_18boundline_adapters12orchestrator12goal_planner18build_context_packs6_0B7_
FN:1298,_RNCNvNtNtCsgV4MOW29Zwc_18boundline_adapters12orchestrator12goal_planner18build_context_packs7_0B7_
FN:1304,_RNCNvNtNtCsgV4MOW29Zwc_18boundline_adapters12orchestrator12goal_planner18build_context_packs8_0B7_
FN:1348,_RNCNvNtNtCsgV4MOW29Zwc_18boundline_adapters12orchestrator12goal_planner18build_context_packs9_0B7_
FN:1164,_RNCNvNtNtCsgV4MOW29Zwc_18boundline_adapters12orchestrator12goal_planner18build_context_packs_0B7_
FN:1349,_RNCNvNtNtCsgV4MOW29Zwc_18boundline_adapters12orchestrator12goal_planner18build_context_packsa_0B7_
FN:1353,_RNCNvNtNtCsgV4MOW29Zwc_18boundline_adapters12orchestrator12goal_planner18build_context_packsb_0B7_
FN:1368,_RNCNvNtNtCsgV4MOW29Zwc_18boundline_adapters12orchestrator12goal_planner18build_context_packsc_0B7_
FN:1400,_RNCNvNtNtCsgV4MOW29Zwc_18boundline_adapters12orchestrator12goal_planner18select_test_target0B7_
FN:501,_RNCNvNtNtCsgV4MOW29Zwc_18boundline_adapters12orchestrator12goal_planner20extract_symbol_hints0B7_
FN:208,_RNCNvNtNtCsgV4MOW29Zwc_18boundline_adapters12orchestrator12goal_planner20goal_signal_keywords0B7_
FN:220,_RNCNvNtNtCsgV4MOW29Zwc_18boundline_adapters12orchestrator12goal_planner20normalized_file_stem0B7_
FN:1384,_RNCNvNtNtCsgV4MOW29Zwc_18boundline_adapters12orchestrator12goal_planner20select_source_target0B7_
FN:1393,_RNCNvNtNtCsgV4MOW29Zwc_18boundline_adapters12orchestrator12goal_planner20select_source_targets0_0B7_
FN:1386,_RNCNvNtNtCsgV4MOW29Zwc_18boundline_adapters12orchestrator12goal_planner20select_source_targets_0B7_
FN:227,_RNCNvNtNtCsgV4MOW29Zwc_18boundline_adapters12orchestrator12goal_planner21file_matches_goal_cue0B7_
FN:228,_RNCNvNtNtCsgV4MOW29Zwc_18boundline_adapters12orchestrator12goal_planner21file_matches_goal_cues_0B7_
FN:1582,_RNCNvNtNtCsgV4MOW29Zwc_18boundline_adapters12orchestrator12goal_planner21select_primary_target0B7_
FN:984,_RNCNvNtNtCsgV4MOW29Zwc_18boundline_adapters12orchestrator12goal_planner22resolve_domain_context0B7_
FN:996,_RNCNvNtNtCsgV4MOW29Zwc_18boundline_adapters12orchestrator12goal_planner22resolve_domain_contexts0_0B7_
FN:1089,_RNCNvNtNtCsgV4MOW29Zwc_18boundline_adapters12orchestrator12goal_planner22resolve_domain_contexts1_0B7_
FN:1094,_RNCNvNtNtCsgV4MOW29Zwc_18boundline_adapters12orchestrator12goal_planner22resolve_domain_contexts2_0B7_
FN:988,_RNCNvNtNtCsgV4MOW29Zwc_18boundline_adapters12orchestrator12goal_planner22resolve_domain_contexts_0B7_
FN:947,_RNCNvNtNtCsgV4MOW29Zwc_18boundline_adapters12orchestrator12goal_planner23canon_input_disposition0B7_
FN:285,_RNCNvNtNtCsgV4MOW29Zwc_18boundline_adapters12orchestrator12goal_planner23related_workspace_files0B7_
FN:291,_RNCNvNtNtCsgV4MOW29Zwc_18boundline_adapters12orchestrator12goal_planner23related_workspace_filess_0B7_
FN:1467,_RNCNvNtNtCsgV4MOW29Zwc_18boundline_adapters12orchestrator12goal_planner24build_planning_rationale0B7_
FN:1470,_RNCNvNtNtCsgV4MOW29Zwc_18boundline_adapters12orchestrator12goal_planner24build_planning_rationales_0B7_
FN:257,_RNCNvNtNtCsgV4MOW29Zwc_18boundline_adapters12orchestrator12goal_planner24insert_context_candidate0B7_
FN:519,_RNCNvNtNtCsgV4MOW29Zwc_18boundline_adapters12orchestrator12goal_planner24selected_canon_artifacts0B7_
FN:1695,_RNCNvNtNtCsgV4MOW29Zwc_18boundline_adapters12orchestrator12goal_planner25derive_tasks_from_context0B7_
FN:1699,_RNCNvNtNtCsgV4MOW29Zwc_18boundline_adapters12orchestrator12goal_planner25derive_tasks_from_contexts_0B7_
FN:645,_RNCNvNtNtCsgV4MOW29Zwc_18boundline_adapters12orchestrator12goal_planner27build_expert_pack_selection0B7_
FN:671,_RNCNvNtNtCsgV4MOW29Zwc_18boundline_adapters12orchestrator12goal_planner27build_expert_pack_selections0_0B7_
FN:688,_RNCNvNtNtCsgV4MOW29Zwc_18boundline_adapters12orchestrator12goal_planner27build_expert_pack_selections1_0B7_
FN:774,_RNCNvNtNtCsgV4MOW29Zwc_18boundline_adapters12orchestrator12goal_planner27build_expert_pack_selections2_0B7_
FN:650,_RNCNvNtNtCsgV4MOW29Zwc_18boundline_adapters12orchestrator12goal_planner27build_expert_pack_selections_0B7_
FN:1436,_RNCNvNtNtCsgV4MOW29Zwc_18boundline_adapters12orchestrator12goal_planner27infer_verification_strategy0B7_
FN:1762,_RNCNvNtNtCsgV4MOW29Zwc_18boundline_adapters12orchestrator12goal_planner28build_goal_plan_with_sources0B7_
FN:1835,_RNCNvNtNtCsgV4MOW29Zwc_18boundline_adapters12orchestrator12goal_planner28build_goal_plan_with_sourcess1_0B7_
FN:1766,_RNCNvNtNtCsgV4MOW29Zwc_18boundline_adapters12orchestrator12goal_planner28build_goal_plan_with_sourcess_0B7_
FN:1528,_RNCNvNtNtCsgV4MOW29Zwc_18boundline_adapters12orchestrator12goal_planner28build_routing_policy_summarys_0B7_
FN:236,_RNCNvNtNtCsgV4MOW29Zwc_18boundline_adapters12orchestrator12goal_planner28file_contents_match_goal_cue0B7_
FN:239,_RNCNvNtNtCsgV4MOW29Zwc_18boundline_adapters12orchestrator12goal_planner28file_contents_match_goal_cues0_0B7_
FN:238,_RNCNvNtNtCsgV4MOW29Zwc_18boundline_adapters12orchestrator12goal_planner28file_contents_match_goal_cues_0B7_
FN:621,_RNCNvNtNtCsgV4MOW29Zwc_18boundline_adapters12orchestrator12goal_planner28reviewer_role_matches_family0B7_
FN:542,_RNCNvNtNtCsgV4MOW29Zwc_18boundline_adapters12orchestrator12goal_planner30has_specific_workspace_targets0B7_
FN:802,_RNCNvNtNtCsgV4MOW29Zwc_18boundline_adapters12orchestrator12goal_planner31evaluate_canon_expertise_inputs0B7_
FN:271,_RNCNvNtNtCsgV4MOW29Zwc_18boundline_adapters12orchestrator12goal_planner31extract_explicit_workspace_refs0B7_
FN:364,_RNCNvNtNtCsgV4MOW29Zwc_18boundline_adapters12orchestrator12goal_planner32select_relevant_workspace_inputs0B7_
FN:396,_RNCNvNtNtCsgV4MOW29Zwc_18boundline_adapters12orchestrator12goal_planner32select_relevant_workspace_inputss0_0B7_
FN:435,_RNCNvNtNtCsgV4MOW29Zwc_18boundline_adapters12orchestrator12goal_planner32select_relevant_workspace_inputss1_0B7_
FN:448,_RNCNvNtNtCsgV4MOW29Zwc_18boundline_adapters12orchestrator12goal_planner32select_relevant_workspace_inputss2_0B7_
FN:388,_RNCNvNtNtCsgV4MOW29Zwc_18boundline_adapters12orchestrator12goal_planner32select_relevant_workspace_inputss_0B7_
FN:116,_RNvNtNtCsgV4MOW29Zwc_18boundline_adapters12orchestrator12goal_planner11count_files
FN:1634,_RNvNtNtCsgV4MOW29Zwc_18boundline_adapters12orchestrator12goal_planner12derive_tasks
FN:170,_RNvNtNtCsgV4MOW29Zwc_18boundline_adapters12orchestrator12goal_planner13goal_keywords
FN:1845,_RNvNtNtCsgV4MOW29Zwc_18boundline_adapters12orchestrator12goal_planner15build_goal_plan
FN:212,_RNvNtNtCsgV4MOW29Zwc_18boundline_adapters12orchestrator12goal_planner15file_name_lower
FN:1564,_RNvNtNtCsgV4MOW29Zwc_18boundline_adapters12orchestrator12goal_planner17value_source_text
FN:1150,_RNvNtNtCsgV4MOW29Zwc_18boundline_adapters12orchestrator12goal_planner18build_context_pack
FN:1396,_RNvNtNtCsgV4MOW29Zwc_18boundline_adapters12orchestrator12goal_planner18select_test_target
FN:1130,_RNvNtNtCsgV4MOW29Zwc_18boundline_adapters12orchestrator12goal_planner20domain_binding_input
FN:457,_RNvNtNtCsgV4MOW29Zwc_18boundline_adapters12orchestrator12goal_planner20extract_symbol_hints
FN:1585,_RNvNtNtCsgV4MOW29Zwc_18boundline_adapters12orchestrator12goal_planner20first_workspace_file
FN:205,_RNvNtNtCsgV4MOW29Zwc_18boundline_adapters12orchestrator12goal_planner20goal_signal_keywords
FN:216,_RNvNtNtCsgV4MOW29Zwc_18boundline_adapters12orchestrator12goal_planner20normalized_file_stem
FN:1615,_RNvNtNtCsgV4MOW29Zwc_18boundline_adapters12orchestrator12goal_planner20scan_canon_artifacts
FN:1380,_RNvNtNtCsgV4MOW29Zwc_18boundline_adapters12orchestrator12goal_planner20select_source_target
FN:225,_RNvNtNtCsgV4MOW29Zwc_18boundline_adapters12orchestrator12goal_planner21file_matches_goal_cue
FN:1574,_RNvNtNtCsgV4MOW29Zwc_18boundline_adapters12orchestrator12goal_planner21select_primary_target
FN:972,_RNvNtNtCsgV4MOW29Zwc_18boundline_adapters12orchestrator12goal_planner22resolve_domain_context
FN:832,_RNvNtNtCsgV4MOW29Zwc_18boundline_adapters12orchestrator12goal_planner23canon_input_disposition
FN:141,_RNvNtNtCsgV4MOW29Zwc_18boundline_adapters12orchestrator12goal_planner23collect_workspace_files
FN:279,_RNvNtNtCsgV4MOW29Zwc_18boundline_adapters12orchestrator12goal_planner23related_workspace_files
FN:1453,_RNvNtNtCsgV4MOW29Zwc_18boundline_adapters12orchestrator12goal_planner24build_planning_rationale
FN:246,_RNvNtNtCsgV4MOW29Zwc_18boundline_adapters12orchestrator12goal_planner24insert_context_candidate
FN:514,_RNvNtNtCsgV4MOW29Zwc_18boundline_adapters12orchestrator12goal_planner24selected_canon_artifacts
FN:83,_RNvNtNtCsgV4MOW29Zwc_18boundline_adapters12orchestrator12goal_planner25collect_workspace_signals
FN:1685,_RNvNtNtCsgV4MOW29Zwc_18boundline_adapters12orchestrator12goal_planner25derive_tasks_from_context
FN:597,_RNvNtNtCsgV4MOW29Zwc_18boundline_adapters12orchestrator12goal_planner25expert_pack_id_for_family
FN:640,_RNvNtNtCsgV4MOW29Zwc_18boundline_adapters12orchestrator12goal_planner27build_expert_pack_selection
FN:199,_RNvNtNtCsgV4MOW29Zwc_18boundline_adapters12orchestrator12goal_planner27collect_workspace_file_refs
FN:1409,_RNvNtNtCsgV4MOW29Zwc_18boundline_adapters12orchestrator12goal_planner27infer_verification_strategy
FN:1748,_RNvNtNtCsgV4MOW29Zwc_18boundline_adapters12orchestrator12goal_planner28build_goal_plan_with_sources
FN:1485,_RNvNtNtCsgV4MOW29Zwc_18boundline_adapters12orchestrator12goal_planner28build_routing_policy_summary
FN:231,_RNvNtNtCsgV4MOW29Zwc_18boundline_adapters12orchestrator12goal_planner28file_contents_match_goal_cue
FN:1531,_RNvNtNtCsgV4MOW29Zwc_18boundline_adapters12orchestrator12goal_planner28render_routing_policy_clause
FN:619,_RNvNtNtCsgV4MOW29Zwc_18boundline_adapters12orchestrator12goal_planner28reviewer_role_matches_family
FN:541,_RNvNtNtCsgV4MOW29Zwc_18boundline_adapters12orchestrator12goal_planner30has_specific_workspace_targets
FN:792,_RNvNtNtCsgV4MOW29Zwc_18boundline_adapters12orchestrator12goal_planner31evaluate_canon_expertise_inputs
FN:267,_RNvNtNtCsgV4MOW29Zwc_18boundline_adapters12orchestrator12goal_planner31extract_explicit_workspace_refs
FN:242,_RNvNtNtCsgV4MOW29Zwc_18boundline_adapters12orchestrator12goal_planner31workspace_file_matches_goal_cue
FN:296,_RNvNtNtCsgV4MOW29Zwc_18boundline_adapters12orchestrator12goal_planner32select_relevant_workspace_inputs
FN:601,_RNvNtNtCsgV4MOW29Zwc_18boundline_adapters12orchestrator12goal_planner33reviewer_role_keywords_for_family
FN:577,_RNvNtNtCsgV4MOW29Zwc_18boundline_adapters12orchestrator12goal_planner39resolve_effective_routing_for_workspace
FN:557,_RNvNtNtCsgV4MOW29Zwc_18boundline_adapters12orchestrator12goal_planner48resolve_effective_domain_templates_for_workspace
FN:1988,_RNCNvNtNtNtCsblqRvDQyS7m_18boundline_adapters12orchestrator12goal_planner5tests19canon_input_surface0B9_
FN:3023,_RNCNvNtNtNtCsblqRvDQyS7m_18boundline_adapters12orchestrator12goal_planner5testss_54resolve_domain_context_marks_required_binding_as_stale0B9_
FN:2531,_RNCNvNtNtNtCsblqRvDQyS7m_18boundline_adapters12orchestrator12goal_planner5testss_61build_goal_plan_with_sources_surfaces_selected_domain_context0B9_
FN:2536,_RNCNvNtNtNtCsblqRvDQyS7m_18boundline_adapters12orchestrator12goal_planner5testss_61build_goal_plan_with_sources_surfaces_selected_domain_contexts_0B9_
FN:2757,_RNCNvNtNtNtCsblqRvDQyS7m_18boundline_adapters12orchestrator12goal_planner5testss_66build_context_pack_uses_authored_input_file_refs_as_primary_inputs0B9_
FN:2722,_RNCNvNtNtNtCsblqRvDQyS7m_18boundline_adapters12orchestrator12goal_planner5testss_66build_goal_plan_with_sources_ignores_pending_canon_expertise_input0B9_
FN:2877,_RNCNvNtNtNtCsblqRvDQyS7m_18boundline_adapters12orchestrator12goal_planner5testss_68build_context_pack_uses_recent_changed_files_after_failed_validation0B9_
FN:2790,_RNCNvNtNtNtCsblqRvDQyS7m_18boundline_adapters12orchestrator12goal_planner5testss_73build_context_pack_uses_execution_profile_read_targets_as_explicit_inputs0B9_
FN:2930,_RNCNvNtNtNtCsblqRvDQyS7m_18boundline_adapters12orchestrator12goal_planner5testss_73build_goal_plan_with_sources_blocks_when_required_domain_input_is_missing0B9_
FN:2661,_RNCNvNtNtNtCsblqRvDQyS7m_18boundline_adapters12orchestrator12goal_planner5testss_73build_goal_plan_with_sources_marks_matching_canon_expertise_input_as_used0B9_
FN:2460,_RNCNvNtNtNtCsblqRvDQyS7m_18boundline_adapters12orchestrator12goal_planner5testss_75build_goal_plan_with_sources_records_capabilities_and_mode_summary_guidance0B9_
FN:2472,_RNCNvNtNtNtCsblqRvDQyS7m_18boundline_adapters12orchestrator12goal_planner5testss_75build_goal_plan_with_sources_records_capabilities_and_mode_summary_guidances_0B9_
FN:2597,_RNCNvNtNtNtCsblqRvDQyS7m_18boundline_adapters12orchestrator12goal_planner5testss_81build_goal_plan_with_sources_records_expert_pack_selection_and_runtime_role_hints0B9_
FN:1894,_RNvNtNtNtCsblqRvDQyS7m_18boundline_adapters12orchestrator12goal_planner5tests14temp_workspace
FN:1902,_RNvNtNtNtCsblqRvDQyS7m_18boundline_adapters12orchestrator12goal_planner5tests18save_local_routing
FN:1961,_RNvNtNtNtCsblqRvDQyS7m_18boundline_adapters12orchestrator12goal_planner5tests19canon_input_surface
FN:1930,_RNvNtNtNtCsblqRvDQyS7m_18boundline_adapters12orchestrator12goal_planner5tests29write_canon_expertise_sidecar
FN:2043,_RNvNtNtNtCsblqRvDQyS7m_18boundline_adapters12orchestrator12goal_planner5testss_53canon_input_disposition_covers_ignored_and_used_paths
FN:2977,_RNvNtNtNtCsblqRvDQyS7m_18boundline_adapters12orchestrator12goal_planner5testss_54resolve_domain_context_marks_required_binding_as_stale
FN:2940,_RNvNtNtNtCsblqRvDQyS7m_18boundline_adapters12orchestrator12goal_planner5testss_57resolve_domain_context_reports_no_enabled_matching_family
FN:2479,_RNvNtNtNtCsblqRvDQyS7m_18boundline_adapters12orchestrator12goal_planner5testss_61build_goal_plan_with_sources_surfaces_selected_domain_context
FN:2828,_RNvNtNtNtCsblqRvDQyS7m_18boundline_adapters12orchestrator12goal_planner5testss_62build_goal_plan_with_sources_rejects_weak_keyword_only_context
FN:2302,_RNvNtNtNtCsblqRvDQyS7m_18boundline_adapters12orchestrator12goal_planner5testss_66build_context_pack_marks_insufficient_canon_memory_as_insufficient
FN:2731,_RNvNtNtNtCsblqRvDQyS7m_18boundline_adapters12orchestrator12goal_planner5testss_66build_context_pack_uses_authored_input_file_refs_as_primary_inputs
FN:2799,_RNvNtNtNtCsblqRvDQyS7m_18boundline_adapters12orchestrator12goal_planner5testss_66build_context_pack_uses_unique_source_test_pair_from_file_contents
FN:2670,_RNvNtNtNtCsblqRvDQyS7m_18boundline_adapters12orchestrator12goal_planner5testss_66build_goal_plan_with_sources_ignores_pending_canon_expertise_input
FN:2347,_RNvNtNtNtCsblqRvDQyS7m_18boundline_adapters12orchestrator12goal_planner5testss_67build_goal_plan_with_sources_uses_canon_memory_targets_and_guidance
FN:2857,_RNvNtNtNtCsblqRvDQyS7m_18boundline_adapters12orchestrator12goal_planner5testss_68build_context_pack_uses_recent_changed_files_after_failed_validation
FN:2767,_RNvNtNtNtCsblqRvDQyS7m_18boundline_adapters12orchestrator12goal_planner5testss_73build_context_pack_uses_execution_profile_read_targets_as_explicit_inputs
FN:2885,_RNvNtNtNtCsblqRvDQyS7m_18boundline_adapters12orchestrator12goal_planner5testss_73build_goal_plan_with_sources_blocks_when_required_domain_input_is_missing
FN:2604,_RNvNtNtNtCsblqRvDQyS7m_18boundline_adapters12orchestrator12goal_planner5testss_73build_goal_plan_with_sources_marks_matching_canon_expertise_input_as_used
FN:2402,_RNvNtNtNtCsblqRvDQyS7m_18boundline_adapters12orchestrator12goal_planner5testss_75build_goal_plan_with_sources_records_capabilities_and_mode_summary_guidance
FN:1995,_RNvNtNtNtCsblqRvDQyS7m_18boundline_adapters12orchestrator12goal_planner5testss_78build_context_pack_marks_stale_canon_memory_as_stale_when_other_context_exists
FN:2543,_RNvNtNtNtCsblqRvDQyS7m_18boundline_adapters12orchestrator12goal_planner5testss_81build_goal_plan_with_sources_records_expert_pack_selection_and_runtime_role_hints
FN:116,_RNvNtNtCsblqRvDQyS7m_18boundline_adapters12orchestrator12goal_planner11count_files
FN:170,_RNvNtNtCsblqRvDQyS7m_18boundline_adapters12orchestrator12goal_planner13goal_keywords
FN:212,_RNvNtNtCsblqRvDQyS7m_18boundline_adapters12orchestrator12goal_planner15file_name_lower
FN:1564,_RNvNtNtCsblqRvDQyS7m_18boundline_adapters12orchestrator12goal_planner17value_source_text
FN:1150,_RNvNtNtCsblqRvDQyS7m_18boundline_adapters12orchestrator12goal_planner18build_context_pack
FN:1396,_RNvNtNtCsblqRvDQyS7m_18boundline_adapters12orchestrator12goal_planner18select_test_target
FN:1130,_RNvNtNtCsblqRvDQyS7m_18boundline_adapters12orchestrator12goal_planner20domain_binding_input
FN:457,_RNvNtNtCsblqRvDQyS7m_18boundline_adapters12orchestrator12goal_planner20extract_symbol_hints
FN:1585,_RNvNtNtCsblqRvDQyS7m_18boundline_adapters12orchestrator12goal_planner20first_workspace_file
FN:205,_RNvNtNtCsblqRvDQyS7m_18boundline_adapters12orchestrator12goal_planner20goal_signal_keywords
FN:216,_RNvNtNtCsblqRvDQyS7m_18boundline_adapters12orchestrator12goal_planner20normalized_file_stem
FN:1615,_RNvNtNtCsblqRvDQyS7m_18boundline_adapters12orchestrator12goal_planner20scan_canon_artifacts
FN:1380,_RNvNtNtCsblqRvDQyS7m_18boundline_adapters12orchestrator12goal_planner20select_source_target
FN:225,_RNvNtNtCsblqRvDQyS7m_18boundline_adapters12orchestrator12goal_planner21file_matches_goal_cue
FN:1574,_RNvNtNtCsblqRvDQyS7m_18boundline_adapters12orchestrator12goal_planner21select_primary_target
FN:972,_RNvNtNtCsblqRvDQyS7m_18boundline_adapters12orchestrator12goal_planner22resolve_domain_context
FN:832,_RNvNtNtCsblqRvDQyS7m_18boundline_adapters12orchestrator12goal_planner23canon_input_disposition
FN:141,_RNvNtNtCsblqRvDQyS7m_18boundline_adapters12orchestrator12goal_planner23collect_workspace_files
FN:279,_RNvNtNtCsblqRvDQyS7m_18boundline_adapters12orchestrator12goal_planner23related_workspace_files
FN:1453,_RNvNtNtCsblqRvDQyS7m_18boundline_adapters12orchestrator12goal_planner24build_planning_rationale
FN:246,_RNvNtNtCsblqRvDQyS7m_18boundline_adapters12orchestrator12goal_planner24insert_context_candidate
FN:514,_RNvNtNtCsblqRvDQyS7m_18boundline_adapters12orchestrator12goal_planner24selected_canon_artifacts
FN:83,_RNvNtNtCsblqRvDQyS7m_18boundline_adapters12orchestrator12goal_planner25collect_workspace_signals
FN:1685,_RNvNtNtCsblqRvDQyS7m_18boundline_adapters12orchestrator12goal_planner25derive_tasks_from_context
FN:597,_RNvNtNtCsblqRvDQyS7m_18boundline_adapters12orchestrator12goal_planner25expert_pack_id_for_family
FN:640,_RNvNtNtCsblqRvDQyS7m_18boundline_adapters12orchestrator12goal_planner27build_expert_pack_selection
FN:199,_RNvNtNtCsblqRvDQyS7m_18boundline_adapters12orchestrator12goal_planner27collect_workspace_file_refs
FN:1409,_RNvNtNtCsblqRvDQyS7m_18boundline_adapters12orchestrator12goal_planner27infer_verification_strategy
FN:1748,_RNvNtNtCsblqRvDQyS7m_18boundline_adapters12orchestrator12goal_planner28build_goal_plan_with_sources
FN:1485,_RNvNtNtCsblqRvDQyS7m_18boundline_adapters12orchestrator12goal_planner28build_routing_policy_summary
FN:231,_RNvNtNtCsblqRvDQyS7m_18boundline_adapters12orchestrator12goal_planner28file_contents_match_goal_cue
FN:1531,_RNvNtNtCsblqRvDQyS7m_18boundline_adapters12orchestrator12goal_planner28render_routing_policy_clause
FN:619,_RNvNtNtCsblqRvDQyS7m_18boundline_adapters12orchestrator12goal_planner28reviewer_role_matches_family
FN:541,_RNvNtNtCsblqRvDQyS7m_18boundline_adapters12orchestrator12goal_planner30has_specific_workspace_targets
FN:792,_RNvNtNtCsblqRvDQyS7m_18boundline_adapters12orchestrator12goal_planner31evaluate_canon_expertise_inputs
FN:267,_RNvNtNtCsblqRvDQyS7m_18boundline_adapters12orchestrator12goal_planner31extract_explicit_workspace_refs
FN:242,_RNvNtNtCsblqRvDQyS7m_18boundline_adapters12orchestrator12goal_planner31workspace_file_matches_goal_cue
FN:296,_RNvNtNtCsblqRvDQyS7m_18boundline_adapters12orchestrator12goal_planner32select_relevant_workspace_inputs
FN:601,_RNvNtNtCsblqRvDQyS7m_18boundline_adapters12orchestrator12goal_planner33reviewer_role_keywords_for_family
FN:577,_RNvNtNtCsblqRvDQyS7m_18boundline_adapters12orchestrator12goal_planner39resolve_effective_routing_for_workspace
FN:557,_RNvNtNtCsblqRvDQyS7m_18boundline_adapters12orchestrator12goal_planner48resolve_effective_domain_templates_for_workspace
FN:1634,_RNvNtNtCsblqRvDQyS7m_18boundline_adapters12orchestrator12goal_planner12derive_tasks
FN:1845,_RNvNtNtCsblqRvDQyS7m_18boundline_adapters12orchestrator12goal_planner15build_goal_plan
FN:624,_RINvNtNtCsblqRvDQyS7m_18boundline_adapters12orchestrator12goal_planner18expert_pack_signalNtNtCs1OjIl8oxbrv_5alloc6string6StringB1q_EB6_
FN:624,_RINvNtNtCsblqRvDQyS7m_18boundline_adapters12orchestrator12goal_planner18expert_pack_signalNtNtCs1OjIl8oxbrv_5alloc6string6StringReEB6_
FN:624,_RINvNtNtCsblqRvDQyS7m_18boundline_adapters12orchestrator12goal_planner18expert_pack_signalReNtNtCs1OjIl8oxbrv_5alloc6string6StringEB6_
FN:1287,_RNCNCNCNvNtNtCsblqRvDQyS7m_18boundline_adapters12orchestrator12goal_planner18build_context_packs5_000Bb_
FN:1292,_RNCNCNCNvNtNtCsblqRvDQyS7m_18boundline_adapters12orchestrator12goal_planner18build_context_packs6_000Bb_
FN:1287,_RNCNCNvNtNtCsblqRvDQyS7m_18boundline_adapters12orchestrator12goal_planner18build_context_packs5_00B9_
FN:1292,_RNCNCNvNtNtCsblqRvDQyS7m_18boundline_adapters12orchestrator12goal_planner18build_context_packs6_00B9_
FN:1390,_RNCNCNvNtNtCsblqRvDQyS7m_18boundline_adapters12orchestrator12goal_planner20select_source_targets_00B9_
FN:291,_RNCNCNvNtNtCsblqRvDQyS7m_18boundline_adapters12orchestrator12goal_planner23related_workspace_filess_00B9_
FN:524,_RNCNCNvNtNtCsblqRvDQyS7m_18boundline_adapters12orchestrator12goal_planner24selected_canon_artifacts00B9_
FN:273,_RNCNCNvNtNtCsblqRvDQyS7m_18boundline_adapters12orchestrator12goal_planner31extract_explicit_workspace_refs00B9_
FN:439,_RNCNCNvNtNtCsblqRvDQyS7m_18boundline_adapters12orchestrator12goal_planner32select_relevant_workspace_inputss1_00B9_
FN:441,_RNCNCNvNtNtCsblqRvDQyS7m_18boundline_adapters12orchestrator12goal_planner32select_relevant_workspace_inputss1_0s0_0B9_
FN:440,_RNCNCNvNtNtCsblqRvDQyS7m_18boundline_adapters12orchestrator12goal_planner32select_relevant_workspace_inputss1_0s_0B9_
FN:172,_RNCNvNtNtCsblqRvDQyS7m_18boundline_adapters12orchestrator12goal_planner13goal_keywords0B7_
FN:175,_RNCNvNtNtCsblqRvDQyS7m_18boundline_adapters12orchestrator12goal_planner13goal_keywordss0_0B7_
FN:174,_RNCNvNtNtCsblqRvDQyS7m_18boundline_adapters12orchestrator12goal_planner13goal_keywordss_0B7_
FN:213,_RNCNvNtNtCsblqRvDQyS7m_18boundline_adapters12orchestrator12goal_planner15file_name_lower0B7_
FN:1158,_RNCNvNtNtCsblqRvDQyS7m_18boundline_adapters12orchestrator12goal_planner18build_context_pack0B7_
FN:1259,_RNCNvNtNtCsblqRvDQyS7m_18boundline_adapters12orchestrator12goal_planner18build_context_packs0_0B7_
FN:1260,_RNCNvNtNtCsblqRvDQyS7m_18boundline_adapters12orchestrator12goal_planner18build_context_packs1_0B7_
FN:1261,_RNCNvNtNtCsblqRvDQyS7m_18boundline_adapters12orchestrator12goal_planner18build_context_packs2_0B7_
FN:1275,_RNCNvNtNtCsblqRvDQyS7m_18boundline_adapters12orchestrator12goal_planner18build_context_packs3_0B7_
FN:1280,_RNCNvNtNtCsblqRvDQyS7m_18boundline_adapters12orchestrator12goal_planner18build_context_packs4_0B7_
FN:1282,_RNCNvNtNtCsblqRvDQyS7m_18boundline_adapters12orchestrator12goal_planner18build_context_packs5_0B7_
FN:1290,_RNCNvNtNtCsblqRvDQyS7m_18boundline_adapters12orchestrator12goal_planner18build_context_packs6_0B7_
FN:1298,_RNCNvNtNtCsblqRvDQyS7m_18boundline_adapters12orchestrator12goal_planner18build_context_packs7_0B7_
FN:1304,_RNCNvNtNtCsblqRvDQyS7m_18boundline_adapters12orchestrator12goal_planner18build_context_packs8_0B7_
FN:1348,_RNCNvNtNtCsblqRvDQyS7m_18boundline_adapters12orchestrator12goal_planner18build_context_packs9_0B7_
FN:1164,_RNCNvNtNtCsblqRvDQyS7m_18boundline_adapters12orchestrator12goal_planner18build_context_packs_0B7_
FN:1349,_RNCNvNtNtCsblqRvDQyS7m_18boundline_adapters12orchestrator12goal_planner18build_context_packsa_0B7_
FN:1353,_RNCNvNtNtCsblqRvDQyS7m_18boundline_adapters12orchestrator12goal_planner18build_context_packsb_0B7_
FN:1368,_RNCNvNtNtCsblqRvDQyS7m_18boundline_adapters12orchestrator12goal_planner18build_context_packsc_0B7_
FN:1400,_RNCNvNtNtCsblqRvDQyS7m_18boundline_adapters12orchestrator12goal_planner18select_test_target0B7_
FN:501,_RNCNvNtNtCsblqRvDQyS7m_18boundline_adapters12orchestrator12goal_planner20extract_symbol_hints0B7_
FN:208,_RNCNvNtNtCsblqRvDQyS7m_18boundline_adapters12orchestrator12goal_planner20goal_signal_keywords0B7_
FN:220,_RNCNvNtNtCsblqRvDQyS7m_18boundline_adapters12orchestrator12goal_planner20normalized_file_stem0B7_
FN:1384,_RNCNvNtNtCsblqRvDQyS7m_18boundline_adapters12orchestrator12goal_planner20select_source_target0B7_
FN:1393,_RNCNvNtNtCsblqRvDQyS7m_18boundline_adapters12orchestrator12goal_planner20select_source_targets0_0B7_
FN:1386,_RNCNvNtNtCsblqRvDQyS7m_18boundline_adapters12orchestrator12goal_planner20select_source_targets_0B7_
FN:227,_RNCNvNtNtCsblqRvDQyS7m_18boundline_adapters12orchestrator12goal_planner21file_matches_goal_cue0B7_
FN:228,_RNCNvNtNtCsblqRvDQyS7m_18boundline_adapters12orchestrator12goal_planner21file_matches_goal_cues_0B7_
FN:1582,_RNCNvNtNtCsblqRvDQyS7m_18boundline_adapters12orchestrator12goal_planner21select_primary_target0B7_
FN:984,_RNCNvNtNtCsblqRvDQyS7m_18boundline_adapters12orchestrator12goal_planner22resolve_domain_context0B7_
FN:996,_RNCNvNtNtCsblqRvDQyS7m_18boundline_adapters12orchestrator12goal_planner22resolve_domain_contexts0_0B7_
FN:1089,_RNCNvNtNtCsblqRvDQyS7m_18boundline_adapters12orchestrator12goal_planner22resolve_domain_contexts1_0B7_
FN:1094,_RNCNvNtNtCsblqRvDQyS7m_18boundline_adapters12orchestrator12goal_planner22resolve_domain_contexts2_0B7_
FN:988,_RNCNvNtNtCsblqRvDQyS7m_18boundline_adapters12orchestrator12goal_planner22resolve_domain_contexts_0B7_
FN:947,_RNCNvNtNtCsblqRvDQyS7m_18boundline_adapters12orchestrator12goal_planner23canon_input_disposition0B7_
FN:285,_RNCNvNtNtCsblqRvDQyS7m_18boundline_adapters12orchestrator12goal_planner23related_workspace_files0B7_
FN:291,_RNCNvNtNtCsblqRvDQyS7m_18boundline_adapters12orchestrator12goal_planner23related_workspace_filess_0B7_
FN:1467,_RNCNvNtNtCsblqRvDQyS7m_18boundline_adapters12orchestrator12goal_planner24build_planning_rationale0B7_
FN:1470,_RNCNvNtNtCsblqRvDQyS7m_18boundline_adapters12orchestrator12goal_planner24build_planning_rationales_0B7_
FN:257,_RNCNvNtNtCsblqRvDQyS7m_18boundline_adapters12orchestrator12goal_planner24insert_context_candidate0B7_
FN:519,_RNCNvNtNtCsblqRvDQyS7m_18boundline_adapters12orchestrator12goal_planner24selected_canon_artifacts0B7_
FN:1695,_RNCNvNtNtCsblqRvDQyS7m_18boundline_adapters12orchestrator12goal_planner25derive_tasks_from_context0B7_
FN:1699,_RNCNvNtNtCsblqRvDQyS7m_18boundline_adapters12orchestrator12goal_planner25derive_tasks_from_contexts_0B7_
FN:645,_RNCNvNtNtCsblqRvDQyS7m_18boundline_adapters12orchestrator12goal_planner27build_expert_pack_selection0B7_
FN:671,_RNCNvNtNtCsblqRvDQyS7m_18boundline_adapters12orchestrator12goal_planner27build_expert_pack_selections0_0B7_
FN:688,_RNCNvNtNtCsblqRvDQyS7m_18boundline_adapters12orchestrator12goal_planner27build_expert_pack_selections1_0B7_
FN:774,_RNCNvNtNtCsblqRvDQyS7m_18boundline_adapters12orchestrator12goal_planner27build_expert_pack_selections2_0B7_
FN:650,_RNCNvNtNtCsblqRvDQyS7m_18boundline_adapters12orchestrator12goal_planner27build_expert_pack_selections_0B7_
FN:1436,_RNCNvNtNtCsblqRvDQyS7m_18boundline_adapters12orchestrator12goal_planner27infer_verification_strategy0B7_
FN:1762,_RNCNvNtNtCsblqRvDQyS7m_18boundline_adapters12orchestrator12goal_planner28build_goal_plan_with_sources0B7_
FN:1835,_RNCNvNtNtCsblqRvDQyS7m_18boundline_adapters12orchestrator12goal_planner28build_goal_plan_with_sourcess1_0B7_
FN:1766,_RNCNvNtNtCsblqRvDQyS7m_18boundline_adapters12orchestrator12goal_planner28build_goal_plan_with_sourcess_0B7_
FN:1528,_RNCNvNtNtCsblqRvDQyS7m_18boundline_adapters12orchestrator12goal_planner28build_routing_policy_summarys_0B7_
FN:236,_RNCNvNtNtCsblqRvDQyS7m_18boundline_adapters12orchestrator12goal_planner28file_contents_match_goal_cue0B7_
FN:239,_RNCNvNtNtCsblqRvDQyS7m_18boundline_adapters12orchestrator12goal_planner28file_contents_match_goal_cues0_0B7_
FN:238,_RNCNvNtNtCsblqRvDQyS7m_18boundline_adapters12orchestrator12goal_planner28file_contents_match_goal_cues_0B7_
FN:621,_RNCNvNtNtCsblqRvDQyS7m_18boundline_adapters12orchestrator12goal_planner28reviewer_role_matches_family0B7_
FN:542,_RNCNvNtNtCsblqRvDQyS7m_18boundline_adapters12orchestrator12goal_planner30has_specific_workspace_targets0B7_
FN:802,_RNCNvNtNtCsblqRvDQyS7m_18boundline_adapters12orchestrator12goal_planner31evaluate_canon_expertise_inputs0B7_
FN:271,_RNCNvNtNtCsblqRvDQyS7m_18boundline_adapters12orchestrator12goal_planner31extract_explicit_workspace_refs0B7_
FN:364,_RNCNvNtNtCsblqRvDQyS7m_18boundline_adapters12orchestrator12goal_planner32select_relevant_workspace_inputs0B7_
FN:396,_RNCNvNtNtCsblqRvDQyS7m_18boundline_adapters12orchestrator12goal_planner32select_relevant_workspace_inputss0_0B7_
FN:435,_RNCNvNtNtCsblqRvDQyS7m_18boundline_adapters12orchestrator12goal_planner32select_relevant_workspace_inputss1_0B7_
FN:448,_RNCNvNtNtCsblqRvDQyS7m_18boundline_adapters12orchestrator12goal_planner32select_relevant_workspace_inputss2_0B7_
FN:388,_RNCNvNtNtCsblqRvDQyS7m_18boundline_adapters12orchestrator12goal_planner32select_relevant_workspace_inputss_0B7_
FNDA:0,_RINvNtNtCsgV4MOW29Zwc_18boundline_adapters12orchestrator12goal_planner18expert_pack_signalNtNtCs1OjIl8oxbrv_5alloc6string6StringB1q_EB6_
FNDA:4,_RINvNtNtCsgV4MOW29Zwc_18boundline_adapters12orchestrator12goal_planner18expert_pack_signalNtNtCs1OjIl8oxbrv_5alloc6string6StringReEB6_
FNDA:20,_RINvNtNtCsgV4MOW29Zwc_18boundline_adapters12orchestrator12goal_planner18expert_pack_signalReNtNtCs1OjIl8oxbrv_5alloc6string6StringEB6_
FNDA:0,_RNCNCNCNvNtNtCsgV4MOW29Zwc_18boundline_adapters12orchestrator12goal_planner18build_context_packs5_000Bb_
FNDA:0,_RNCNCNCNvNtNtCsgV4MOW29Zwc_18boundline_adapters12orchestrator12goal_planner18build_context_packs6_000Bb_
FNDA:0,_RNCNCNvNtNtCsgV4MOW29Zwc_18boundline_adapters12orchestrator12goal_planner18build_context_packs5_00B9_
FNDA:0,_RNCNCNvNtNtCsgV4MOW29Zwc_18boundline_adapters12orchestrator12goal_planner18build_context_packs6_00B9_
FNDA:2,_RNCNCNvNtNtCsgV4MOW29Zwc_18boundline_adapters12orchestrator12goal_planner20select_source_targets_00B9_
FNDA:0,_RNCNCNvNtNtCsgV4MOW29Zwc_18boundline_adapters12orchestrator12goal_planner23related_workspace_filess_00B9_
FNDA:2,_RNCNCNvNtNtCsgV4MOW29Zwc_18boundline_adapters12orchestrator12goal_planner24selected_canon_artifacts00B9_
FNDA:50,_RNCNCNvNtNtCsgV4MOW29Zwc_18boundline_adapters12orchestrator12goal_planner31extract_explicit_workspace_refs00B9_
FNDA:7,_RNCNCNvNtNtCsgV4MOW29Zwc_18boundline_adapters12orchestrator12goal_planner32select_relevant_workspace_inputss1_00B9_
FNDA:7,_RNCNCNvNtNtCsgV4MOW29Zwc_18boundline_adapters12orchestrator12goal_planner32select_relevant_workspace_inputss1_0s0_0B9_
FNDA:7,_RNCNCNvNtNtCsgV4MOW29Zwc_18boundline_adapters12orchestrator12goal_planner32select_relevant_workspace_inputss1_0s_0B9_
FNDA:1035,_RNCNvNtNtCsgV4MOW29Zwc_18boundline_adapters12orchestrator12goal_planner13goal_keywords0B7_
FNDA:159,_RNCNvNtNtCsgV4MOW29Zwc_18boundline_adapters12orchestrator12goal_planner13goal_keywordss0_0B7_
FNDA:174,_RNCNvNtNtCsgV4MOW29Zwc_18boundline_adapters12orchestrator12goal_planner13goal_keywordss_0B7_
FNDA:93,_RNCNvNtNtCsgV4MOW29Zwc_18boundline_adapters12orchestrator12goal_planner15file_name_lower0B7_
FNDA:18,_RNCNvNtNtCsgV4MOW29Zwc_18boundline_adapters12orchestrator12goal_planner18build_context_pack0B7_
FNDA:4,_RNCNvNtNtCsgV4MOW29Zwc_18boundline_adapters12orchestrator12goal_planner18build_context_packs0_0B7_
FNDA:4,_RNCNvNtNtCsgV4MOW29Zwc_18boundline_adapters12orchestrator12goal_planner18build_context_packs1_0B7_
FNDA:3,_RNCNvNtNtCsgV4MOW29Zwc_18boundline_adapters12orchestrator12goal_planner18build_context_packs2_0B7_
FNDA:0,_RNCNvNtNtCsgV4MOW29Zwc_18boundline_adapters12orchestrator12goal_planner18build_context_packs3_0B7_
FNDA:0,_RNCNvNtNtCsgV4MOW29Zwc_18boundline_adapters12orchestrator12goal_planner18build_context_packs4_0B7_
FNDA:0,_RNCNvNtNtCsgV4MOW29Zwc_18boundline_adapters12orchestrator12goal_planner18build_context_packs5_0B7_
FNDA:0,_RNCNvNtNtCsgV4MOW29Zwc_18boundline_adapters12orchestrator12goal_planner18build_context_packs6_0B7_
FNDA:0,_RNCNvNtNtCsgV4MOW29Zwc_18boundline_adapters12orchestrator12goal_planner18build_context_packs7_0B7_
FNDA:0,_RNCNvNtNtCsgV4MOW29Zwc_18boundline_adapters12orchestrator12goal_planner18build_context_packs8_0B7_
FNDA:0,_RNCNvNtNtCsgV4MOW29Zwc_18boundline_adapters12orchestrator12goal_planner18build_context_packs9_0B7_
FNDA:0,_RNCNvNtNtCsgV4MOW29Zwc_18boundline_adapters12orchestrator12goal_planner18build_context_packs_0B7_
FNDA:0,_RNCNvNtNtCsgV4MOW29Zwc_18boundline_adapters12orchestrator12goal_planner18build_context_packsa_0B7_
FNDA:0,_RNCNvNtNtCsgV4MOW29Zwc_18boundline_adapters12orchestrator12goal_planner18build_context_packsb_0B7_
FNDA:0,_RNCNvNtNtCsgV4MOW29Zwc_18boundline_adapters12orchestrator12goal_planner18build_context_packsc_0B7_
FNDA:33,_RNCNvNtNtCsgV4MOW29Zwc_18boundline_adapters12orchestrator12goal_planner18select_test_target0B7_
FNDA:31,_RNCNvNtNtCsgV4MOW29Zwc_18boundline_adapters12orchestrator12goal_planner20extract_symbol_hints0B7_
FNDA:53,_RNCNvNtNtCsgV4MOW29Zwc_18boundline_adapters12orchestrator12goal_planner20goal_signal_keywords0B7_
FNDA:36,_RNCNvNtNtCsgV4MOW29Zwc_18boundline_adapters12orchestrator12goal_planner20normalized_file_stem0B7_
FNDA:22,_RNCNvNtNtCsgV4MOW29Zwc_18boundline_adapters12orchestrator12goal_planner20select_source_target0B7_
FNDA:6,_RNCNvNtNtCsgV4MOW29Zwc_18boundline_adapters12orchestrator12goal_planner20select_source_targets0_0B7_
FNDA:8,_RNCNvNtNtCsgV4MOW29Zwc_18boundline_adapters12orchestrator12goal_planner20select_source_targets_0B7_
FNDA:43,_RNCNvNtNtCsgV4MOW29Zwc_18boundline_adapters12orchestrator12goal_planner21file_matches_goal_cue0B7_
FNDA:36,_RNCNvNtNtCsgV4MOW29Zwc_18boundline_adapters12orchestrator12goal_planner21file_matches_goal_cues_0B7_
FNDA:13,_RNCNvNtNtCsgV4MOW29Zwc_18boundline_adapters12orchestrator12goal_planner21select_primary_target0B7_
FNDA:0,_RNCNvNtNtCsgV4MOW29Zwc_18boundline_adapters12orchestrator12goal_planner22resolve_domain_context0B7_
FNDA:0,_RNCNvNtNtCsgV4MOW29Zwc_18boundline_adapters12orchestrator12goal_planner22resolve_domain_contexts0_0B7_
FNDA:0,_RNCNvNtNtCsgV4MOW29Zwc_18boundline_adapters12orchestrator12goal_planner22resolve_domain_contexts1_0B7_
FNDA:0,_RNCNvNtNtCsgV4MOW29Zwc_18boundline_adapters12orchestrator12goal_planner22resolve_domain_contexts2_0B7_
FNDA:0,_RNCNvNtNtCsgV4MOW29Zwc_18boundline_adapters12orchestrator12goal_planner22resolve_domain_contexts_0B7_
FNDA:0,_RNCNvNtNtCsgV4MOW29Zwc_18boundline_adapters12orchestrator12goal_planner23canon_input_disposition0B7_
FNDA:0,_RNCNvNtNtCsgV4MOW29Zwc_18boundline_adapters12orchestrator12goal_planner23related_workspace_files0B7_
FNDA:0,_RNCNvNtNtCsgV4MOW29Zwc_18boundline_adapters12orchestrator12goal_planner23related_workspace_filess_0B7_
FNDA:0,_RNCNvNtNtCsgV4MOW29Zwc_18boundline_adapters12orchestrator12goal_planner24build_planning_rationale0B7_
FNDA:0,_RNCNvNtNtCsgV4MOW29Zwc_18boundline_adapters12orchestrator12goal_planner24build_planning_rationales_0B7_
FNDA:18,_RNCNvNtNtCsgV4MOW29Zwc_18boundline_adapters12orchestrator12goal_planner24insert_context_candidate0B7_
FNDA:1,_RNCNvNtNtCsgV4MOW29Zwc_18boundline_adapters12orchestrator12goal_planner24selected_canon_artifacts0B7_
FNDA:1,_RNCNvNtNtCsgV4MOW29Zwc_18boundline_adapters12orchestrator12goal_planner25derive_tasks_from_context0B7_
FNDA:14,_RNCNvNtNtCsgV4MOW29Zwc_18boundline_adapters12orchestrator12goal_planner25derive_tasks_from_contexts_0B7_
FNDA:3,_RNCNvNtNtCsgV4MOW29Zwc_18boundline_adapters12orchestrator12goal_planner27build_expert_pack_selection0B7_
FNDA:54,_RNCNvNtNtCsgV4MOW29Zwc_18boundline_adapters12orchestrator12goal_planner27build_expert_pack_selections0_0B7_
FNDA:0,_RNCNvNtNtCsgV4MOW29Zwc_18boundline_adapters12orchestrator12goal_planner27build_expert_pack_selections1_0B7_
FNDA:0,_RNCNvNtNtCsgV4MOW29Zwc_18boundline_adapters12orchestrator12goal_planner27build_expert_pack_selections2_0B7_
FNDA:10,_RNCNvNtNtCsgV4MOW29Zwc_18boundline_adapters12orchestrator12goal_planner27build_expert_pack_selections_0B7_
FNDA:1,_RNCNvNtNtCsgV4MOW29Zwc_18boundline_adapters12orchestrator12goal_planner27infer_verification_strategy0B7_
FNDA:2,_RNCNvNtNtCsgV4MOW29Zwc_18boundline_adapters12orchestrator12goal_planner28build_goal_plan_with_sources0B7_
FNDA:0,_RNCNvNtNtCsgV4MOW29Zwc_18boundline_adapters12orchestrator12goal_planner28build_goal_plan_with_sourcess1_0B7_
FNDA:12,_RNCNvNtNtCsgV4MOW29Zwc_18boundline_adapters12orchestrator12goal_planner28build_goal_plan_with_sourcess_0B7_
FNDA:0,_RNCNvNtNtCsgV4MOW29Zwc_18boundline_adapters12orchestrator12goal_planner28build_routing_policy_summarys_0B7_
FNDA:2113,_RNCNvNtNtCsgV4MOW29Zwc_18boundline_adapters12orchestrator12goal_planner28file_contents_match_goal_cue0B7_
FNDA:335,_RNCNvNtNtCsgV4MOW29Zwc_18boundline_adapters12orchestrator12goal_planner28file_contents_match_goal_cues0_0B7_
FNDA:724,_RNCNvNtNtCsgV4MOW29Zwc_18boundline_adapters12orchestrator12goal_planner28file_contents_match_goal_cues_0B7_
FNDA:0,_RNCNvNtNtCsgV4MOW29Zwc_18boundline_adapters12orchestrator12goal_planner28reviewer_role_matches_family0B7_
FNDA:0,_RNCNvNtNtCsgV4MOW29Zwc_18boundline_adapters12orchestrator12goal_planner30has_specific_workspace_targets0B7_
FNDA:0,_RNCNvNtNtCsgV4MOW29Zwc_18boundline_adapters12orchestrator12goal_planner31evaluate_canon_expertise_inputs0B7_
FNDA:57,_RNCNvNtNtCsgV4MOW29Zwc_18boundline_adapters12orchestrator12goal_planner31extract_explicit_workspace_refs0B7_
FNDA:0,_RNCNvNtNtCsgV4MOW29Zwc_18boundline_adapters12orchestrator12goal_planner32select_relevant_workspace_inputs0B7_
FNDA:72,_RNCNvNtNtCsgV4MOW29Zwc_18boundline_adapters12orchestrator12goal_planner32select_relevant_workspace_inputss0_0B7_
FNDA:7,_RNCNvNtNtCsgV4MOW29Zwc_18boundline_adapters12orchestrator12goal_planner32select_relevant_workspace_inputss1_0B7_
FNDA:18,_RNCNvNtNtCsgV4MOW29Zwc_18boundline_adapters12orchestrator12goal_planner32select_relevant_workspace_inputss2_0B7_
FNDA:72,_RNCNvNtNtCsgV4MOW29Zwc_18boundline_adapters12orchestrator12goal_planner32select_relevant_workspace_inputss_0B7_
FNDA:45,_RNvNtNtCsgV4MOW29Zwc_18boundline_adapters12orchestrator12goal_planner11count_files
FNDA:4,_RNvNtNtCsgV4MOW29Zwc_18boundline_adapters12orchestrator12goal_planner12derive_tasks
FNDA:45,_RNvNtNtCsgV4MOW29Zwc_18boundline_adapters12orchestrator12goal_planner13goal_keywords
FNDA:3,_RNvNtNtCsgV4MOW29Zwc_18boundline_adapters12orchestrator12goal_planner15build_goal_plan
FNDA:93,_RNvNtNtCsgV4MOW29Zwc_18boundline_adapters12orchestrator12goal_planner15file_name_lower
FNDA:0,_RNvNtNtCsgV4MOW29Zwc_18boundline_adapters12orchestrator12goal_planner17value_source_text
FNDA:15,_RNvNtNtCsgV4MOW29Zwc_18boundline_adapters12orchestrator12goal_planner18build_context_pack
FNDA:22,_RNvNtNtCsgV4MOW29Zwc_18boundline_adapters12orchestrator12goal_planner18select_test_target
FNDA:0,_RNvNtNtCsgV4MOW29Zwc_18boundline_adapters12orchestrator12goal_planner20domain_binding_input
FNDA:15,_RNvNtNtCsgV4MOW29Zwc_18boundline_adapters12orchestrator12goal_planner20extract_symbol_hints
FNDA:14,_RNvNtNtCsgV4MOW29Zwc_18boundline_adapters12orchestrator12goal_planner20first_workspace_file
FNDA:15,_RNvNtNtCsgV4MOW29Zwc_18boundline_adapters12orchestrator12goal_planner20goal_signal_keywords
FNDA:36,_RNvNtNtCsgV4MOW29Zwc_18boundline_adapters12orchestrator12goal_planner20normalized_file_stem
FNDA:32,_RNvNtNtCsgV4MOW29Zwc_18boundline_adapters12orchestrator12goal_planner20scan_canon_artifacts
FNDA:28,_RNvNtNtCsgV4MOW29Zwc_18boundline_adapters12orchestrator12goal_planner20select_source_target
FNDA:43,_RNvNtNtCsgV4MOW29Zwc_18boundline_adapters12orchestrator12goal_planner21file_matches_goal_cue
FNDA:13,_RNvNtNtCsgV4MOW29Zwc_18boundline_adapters12orchestrator12goal_planner21select_primary_target
FNDA:15,_RNvNtNtCsgV4MOW29Zwc_18boundline_adapters12orchestrator12goal_planner22resolve_domain_context
FNDA:0,_RNvNtNtCsgV4MOW29Zwc_18boundline_adapters12orchestrator12goal_planner23canon_input_disposition
FNDA:34,_RNvNtNtCsgV4MOW29Zwc_18boundline_adapters12orchestrator12goal_planner23collect_workspace_files
FNDA:0,_RNvNtNtCsgV4MOW29Zwc_18boundline_adapters12orchestrator12goal_planner23related_workspace_files
FNDA:14,_RNvNtNtCsgV4MOW29Zwc_18boundline_adapters12orchestrator12goal_planner24build_planning_rationale
FNDA:28,_RNvNtNtCsgV4MOW29Zwc_18boundline_adapters12orchestrator12goal_planner24insert_context_candidate
FNDA:15,_RNvNtNtCsgV4MOW29Zwc_18boundline_adapters12orchestrator12goal_planner24selected_canon_artifacts
FNDA:24,_RNvNtNtCsgV4MOW29Zwc_18boundline_adapters12orchestrator12goal_planner25collect_workspace_signals
FNDA:14,_RNvNtNtCsgV4MOW29Zwc_18boundline_adapters12orchestrator12goal_planner25derive_tasks_from_context
FNDA:10,_RNvNtNtCsgV4MOW29Zwc_18boundline_adapters12orchestrator12goal_planner25expert_pack_id_for_family
FNDA:14,_RNvNtNtCsgV4MOW29Zwc_18boundline_adapters12orchestrator12goal_planner27build_expert_pack_selection
FNDA:15,_RNvNtNtCsgV4MOW29Zwc_18boundline_adapters12orchestrator12goal_planner27collect_workspace_file_refs
FNDA:14,_RNvNtNtCsgV4MOW29Zwc_18boundline_adapters12orchestrator12goal_planner27infer_verification_strategy
FNDA:15,_RNvNtNtCsgV4MOW29Zwc_18boundline_adapters12orchestrator12goal_planner28build_goal_plan_with_sources
FNDA:14,_RNvNtNtCsgV4MOW29Zwc_18boundline_adapters12orchestrator12goal_planner28build_routing_policy_summary
FNDA:36,_RNvNtNtCsgV4MOW29Zwc_18boundline_adapters12orchestrator12goal_planner28file_contents_match_goal_cue
FNDA:0,_RNvNtNtCsgV4MOW29Zwc_18boundline_adapters12orchestrator12goal_planner28render_routing_policy_clause
FNDA:0,_RNvNtNtCsgV4MOW29Zwc_18boundline_adapters12orchestrator12goal_planner28reviewer_role_matches_family
FNDA:0,_RNvNtNtCsgV4MOW29Zwc_18boundline_adapters12orchestrator12goal_planner30has_specific_workspace_targets
FNDA:14,_RNvNtNtCsgV4MOW29Zwc_18boundline_adapters12orchestrator12goal_planner31evaluate_canon_expertise_inputs
FNDA:25,_RNvNtNtCsgV4MOW29Zwc_18boundline_adapters12orchestrator12goal_planner31extract_explicit_workspace_refs
FNDA:43,_RNvNtNtCsgV4MOW29Zwc_18boundline_adapters12orchestrator12goal_planner31workspace_file_matches_goal_cue
FNDA:15,_RNvNtNtCsgV4MOW29Zwc_18boundline_adapters12orchestrator12goal_planner32select_relevant_workspace_inputs
FNDA:0,_RNvNtNtCsgV4MOW29Zwc_18boundline_adapters12orchestrator12goal_planner33reviewer_role_keywords_for_family
FNDA:14,_RNvNtNtCsgV4MOW29Zwc_18boundline_adapters12orchestrator12goal_planner39resolve_effective_routing_for_workspace
FNDA:15,_RNvNtNtCsgV4MOW29Zwc_18boundline_adapters12orchestrator12goal_planner48resolve_effective_domain_templates_for_workspace
FNDA:17,_RNCNvNtNtNtCsblqRvDQyS7m_18boundline_adapters12orchestrator12goal_planner5tests19canon_input_surface0B9_
FNDA:4,_RNCNvNtNtNtCsblqRvDQyS7m_18boundline_adapters12orchestrator12goal_planner5testss_54resolve_domain_context_marks_required_binding_as_stale0B9_
FNDA:5,_RNCNvNtNtNtCsblqRvDQyS7m_18boundline_adapters12orchestrator12goal_planner5testss_61build_goal_plan_with_sources_surfaces_selected_domain_context0B9_
FNDA:8,_RNCNvNtNtNtCsblqRvDQyS7m_18boundline_adapters12orchestrator12goal_planner5testss_61build_goal_plan_with_sources_surfaces_selected_domain_contexts_0B9_
FNDA:1,_RNCNvNtNtNtCsblqRvDQyS7m_18boundline_adapters12orchestrator12goal_planner5testss_66build_context_pack_uses_authored_input_file_refs_as_primary_inputs0B9_
FNDA:8,_RNCNvNtNtNtCsblqRvDQyS7m_18boundline_adapters12orchestrator12goal_planner5testss_66build_goal_plan_with_sources_ignores_pending_canon_expertise_input0B9_
FNDA:1,_RNCNvNtNtNtCsblqRvDQyS7m_18boundline_adapters12orchestrator12goal_planner5testss_68build_context_pack_uses_recent_changed_files_after_failed_validation0B9_
FNDA:1,_RNCNvNtNtNtCsblqRvDQyS7m_18boundline_adapters12orchestrator12goal_planner5testss_73build_context_pack_uses_execution_profile_read_targets_as_explicit_inputs0B9_
FNDA:4,_RNCNvNtNtNtCsblqRvDQyS7m_18boundline_adapters12orchestrator12goal_planner5testss_73build_goal_plan_with_sources_blocks_when_required_domain_input_is_missing0B9_
FNDA:9,_RNCNvNtNtNtCsblqRvDQyS7m_18boundline_adapters12orchestrator12goal_planner5testss_73build_goal_plan_with_sources_marks_matching_canon_expertise_input_as_used0B9_
FNDA:1,_RNCNvNtNtNtCsblqRvDQyS7m_18boundline_adapters12orchestrator12goal_planner5testss_75build_goal_plan_with_sources_records_capabilities_and_mode_summary_guidance0B9_
FNDA:1,_RNCNvNtNtNtCsblqRvDQyS7m_18boundline_adapters12orchestrator12goal_planner5testss_75build_goal_plan_with_sources_records_capabilities_and_mode_summary_guidances_0B9_
FNDA:5,_RNCNvNtNtNtCsblqRvDQyS7m_18boundline_adapters12orchestrator12goal_planner5testss_81build_goal_plan_with_sources_records_expert_pack_selection_and_runtime_role_hints0B9_
FNDA:16,_RNvNtNtNtCsblqRvDQyS7m_18boundline_adapters12orchestrator12goal_planner5tests14temp_workspace
FNDA:5,_RNvNtNtNtCsblqRvDQyS7m_18boundline_adapters12orchestrator12goal_planner5tests18save_local_routing
FNDA:16,_RNvNtNtNtCsblqRvDQyS7m_18boundline_adapters12orchestrator12goal_planner5tests19canon_input_surface
FNDA:2,_RNvNtNtNtCsblqRvDQyS7m_18boundline_adapters12orchestrator12goal_planner5tests29write_canon_expertise_sidecar
FNDA:1,_RNvNtNtNtCsblqRvDQyS7m_18boundline_adapters12orchestrator12goal_planner5testss_53canon_input_disposition_covers_ignored_and_used_paths
FNDA:1,_RNvNtNtNtCsblqRvDQyS7m_18boundline_adapters12orchestrator12goal_planner5testss_54resolve_domain_context_marks_required_binding_as_stale
FNDA:1,_RNvNtNtNtCsblqRvDQyS7m_18boundline_adapters12orchestrator12goal_planner5testss_57resolve_domain_context_reports_no_enabled_matching_family
FNDA:1,_RNvNtNtNtCsblqRvDQyS7m_18boundline_adapters12orchestrator12goal_planner5testss_61build_goal_plan_with_sources_surfaces_selected_domain_context
FNDA:1,_RNvNtNtNtCsblqRvDQyS7m_18boundline_adapters12orchestrator12goal_planner5testss_62build_goal_plan_with_sources_rejects_weak_keyword_only_context
FNDA:1,_RNvNtNtNtCsblqRvDQyS7m_18boundline_adapters12orchestrator12goal_planner5testss_66build_context_pack_marks_insufficient_canon_memory_as_insufficient
FNDA:1,_RNvNtNtNtCsblqRvDQyS7m_18boundline_adapters12orchestrator12goal_planner5testss_66build_context_pack_uses_authored_input_file_refs_as_primary_inputs
FNDA:1,_RNvNtNtNtCsblqRvDQyS7m_18boundline_adapters12orchestrator12goal_planner5testss_66build_context_pack_uses_unique_source_test_pair_from_file_contents
FNDA:1,_RNvNtNtNtCsblqRvDQyS7m_18boundline_adapters12orchestrator12goal_planner5testss_66build_goal_plan_with_sources_ignores_pending_canon_expertise_input
FNDA:1,_RNvNtNtNtCsblqRvDQyS7m_18boundline_adapters12orchestrator12goal_planner5testss_67build_goal_plan_with_sources_uses_canon_memory_targets_and_guidance
FNDA:1,_RNvNtNtNtCsblqRvDQyS7m_18boundline_adapters12orchestrator12goal_planner5testss_68build_context_pack_uses_recent_changed_files_after_failed_validation
FNDA:1,_RNvNtNtNtCsblqRvDQyS7m_18boundline_adapters12orchestrator12goal_planner5testss_73build_context_pack_uses_execution_profile_read_targets_as_explicit_inputs
FNDA:1,_RNvNtNtNtCsblqRvDQyS7m_18boundline_adapters12orchestrator12goal_planner5testss_73build_goal_plan_with_sources_blocks_when_required_domain_input_is_missing
FNDA:1,_RNvNtNtNtCsblqRvDQyS7m_18boundline_adapters12orchestrator12goal_planner5testss_73build_goal_plan_with_sources_marks_matching_canon_expertise_input_as_used
FNDA:1,_RNvNtNtNtCsblqRvDQyS7m_18boundline_adapters12orchestrator12goal_planner5testss_75build_goal_plan_with_sources_records_capabilities_and_mode_summary_guidance
FNDA:1,_RNvNtNtNtCsblqRvDQyS7m_18boundline_adapters12orchestrator12goal_planner5testss_78build_context_pack_marks_stale_canon_memory_as_stale_when_other_context_exists
FNDA:1,_RNvNtNtNtCsblqRvDQyS7m_18boundline_adapters12orchestrator12goal_planner5testss_81build_goal_plan_with_sources_records_expert_pack_selection_and_runtime_role_hints
FNDA:28,_RNvNtNtCsblqRvDQyS7m_18boundline_adapters12orchestrator12goal_planner11count_files
FNDA:54,_RNvNtNtCsblqRvDQyS7m_18boundline_adapters12orchestrator12goal_planner13goal_keywords
FNDA:92,_RNvNtNtCsblqRvDQyS7m_18boundline_adapters12orchestrator12goal_planner15file_name_lower
FNDA:21,_RNvNtNtCsblqRvDQyS7m_18boundline_adapters12orchestrator12goal_planner17value_source_text
FNDA:18,_RNvNtNtCsblqRvDQyS7m_18boundline_adapters12orchestrator12goal_planner18build_context_pack
FNDA:10,_RNvNtNtCsblqRvDQyS7m_18boundline_adapters12orchestrator12goal_planner18select_test_target
FNDA:3,_RNvNtNtCsblqRvDQyS7m_18boundline_adapters12orchestrator12goal_planner20domain_binding_input
FNDA:18,_RNvNtNtCsblqRvDQyS7m_18boundline_adapters12orchestrator12goal_planner20extract_symbol_hints
FNDA:12,_RNvNtNtCsblqRvDQyS7m_18boundline_adapters12orchestrator12goal_planner20first_workspace_file
FNDA:18,_RNvNtNtCsblqRvDQyS7m_18boundline_adapters12orchestrator12goal_planner20goal_signal_keywords
FNDA:37,_RNvNtNtCsblqRvDQyS7m_18boundline_adapters12orchestrator12goal_planner20normalized_file_stem
FNDA:30,_RNvNtNtCsblqRvDQyS7m_18boundline_adapters12orchestrator12goal_planner20scan_canon_artifacts
FNDA:24,_RNvNtNtCsblqRvDQyS7m_18boundline_adapters12orchestrator12goal_planner20select_source_target
FNDA:39,_RNvNtNtCsblqRvDQyS7m_18boundline_adapters12orchestrator12goal_planner21file_matches_goal_cue
FNDA:18,_RNvNtNtCsblqRvDQyS7m_18boundline_adapters12orchestrator12goal_planner21select_primary_target
FNDA:20,_RNvNtNtCsblqRvDQyS7m_18boundline_adapters12orchestrator12goal_planner22resolve_domain_context
FNDA:18,_RNvNtNtCsblqRvDQyS7m_18boundline_adapters12orchestrator12goal_planner23canon_input_disposition
FNDA:44,_RNvNtNtCsblqRvDQyS7m_18boundline_adapters12orchestrator12goal_planner23collect_workspace_files
FNDA:1,_RNvNtNtCsblqRvDQyS7m_18boundline_adapters12orchestrator12goal_planner23related_workspace_files
FNDA:12,_RNvNtNtCsblqRvDQyS7m_18boundline_adapters12orchestrator12goal_planner24build_planning_rationale
FNDA:19,_RNvNtNtCsblqRvDQyS7m_18boundline_adapters12orchestrator12goal_planner24insert_context_candidate
FNDA:18,_RNvNtNtCsblqRvDQyS7m_18boundline_adapters12orchestrator12goal_planner24selected_canon_artifacts
FNDA:12,_RNvNtNtCsblqRvDQyS7m_18boundline_adapters12orchestrator12goal_planner25collect_workspace_signals
FNDA:12,_RNvNtNtCsblqRvDQyS7m_18boundline_adapters12orchestrator12goal_planner25derive_tasks_from_context
FNDA:15,_RNvNtNtCsblqRvDQyS7m_18boundline_adapters12orchestrator12goal_planner25expert_pack_id_for_family
FNDA:12,_RNvNtNtCsblqRvDQyS7m_18boundline_adapters12orchestrator12goal_planner27build_expert_pack_selection
FNDA:18,_RNvNtNtCsblqRvDQyS7m_18boundline_adapters12orchestrator12goal_planner27collect_workspace_file_refs
FNDA:12,_RNvNtNtCsblqRvDQyS7m_18boundline_adapters12orchestrator12goal_planner27infer_verification_strategy
FNDA:12,_RNvNtNtCsblqRvDQyS7m_18boundline_adapters12orchestrator12goal_planner28build_goal_plan_with_sources
FNDA:12,_RNvNtNtCsblqRvDQyS7m_18boundline_adapters12orchestrator12goal_planner28build_routing_policy_summary
FNDA:34,_RNvNtNtCsblqRvDQyS7m_18boundline_adapters12orchestrator12goal_planner28file_contents_match_goal_cue
FNDA:0,_RNvNtNtCsblqRvDQyS7m_18boundline_adapters12orchestrator12goal_planner28render_routing_policy_clause
FNDA:2,_RNvNtNtCsblqRvDQyS7m_18boundline_adapters12orchestrator12goal_planner28reviewer_role_matches_family
FNDA:3,_RNvNtNtCsblqRvDQyS7m_18boundline_adapters12orchestrator12goal_planner30has_specific_workspace_targets
FNDA:12,_RNvNtNtCsblqRvDQyS7m_18boundline_adapters12orchestrator12goal_planner31evaluate_canon_expertise_inputs
FNDA:23,_RNvNtNtCsblqRvDQyS7m_18boundline_adapters12orchestrator12goal_planner31extract_explicit_workspace_refs
FNDA:39,_RNvNtNtCsblqRvDQyS7m_18boundline_adapters12orchestrator12goal_planner31workspace_file_matches_goal_cue
FNDA:18,_RNvNtNtCsblqRvDQyS7m_18boundline_adapters12orchestrator12goal_planner32select_relevant_workspace_inputs
FNDA:2,_RNvNtNtCsblqRvDQyS7m_18boundline_adapters12orchestrator12goal_planner33reviewer_role_keywords_for_family
FNDA:12,_RNvNtNtCsblqRvDQyS7m_18boundline_adapters12orchestrator12goal_planner39resolve_effective_routing_for_workspace
FNDA:20,_RNvNtNtCsblqRvDQyS7m_18boundline_adapters12orchestrator12goal_planner48resolve_effective_domain_templates_for_workspace
FNDA:0,_RNvNtNtCsblqRvDQyS7m_18boundline_adapters12orchestrator12goal_planner12derive_tasks
FNDA:0,_RNvNtNtCsblqRvDQyS7m_18boundline_adapters12orchestrator12goal_planner15build_goal_plan
FNDA:3,_RINvNtNtCsblqRvDQyS7m_18boundline_adapters12orchestrator12goal_planner18expert_pack_signalNtNtCs1OjIl8oxbrv_5alloc6string6StringB1q_EB6_
FNDA:4,_RINvNtNtCsblqRvDQyS7m_18boundline_adapters12orchestrator12goal_planner18expert_pack_signalNtNtCs1OjIl8oxbrv_5alloc6string6StringReEB6_
FNDA:30,_RINvNtNtCsblqRvDQyS7m_18boundline_adapters12orchestrator12goal_planner18expert_pack_signalReNtNtCs1OjIl8oxbrv_5alloc6string6StringEB6_
FNDA:0,_RNCNCNCNvNtNtCsblqRvDQyS7m_18boundline_adapters12orchestrator12goal_planner18build_context_packs5_000Bb_
FNDA:0,_RNCNCNCNvNtNtCsblqRvDQyS7m_18boundline_adapters12orchestrator12goal_planner18build_context_packs6_000Bb_
FNDA:1,_RNCNCNvNtNtCsblqRvDQyS7m_18boundline_adapters12orchestrator12goal_planner18build_context_packs5_00B9_
FNDA:1,_RNCNCNvNtNtCsblqRvDQyS7m_18boundline_adapters12orchestrator12goal_planner18build_context_packs6_00B9_
FNDA:4,_RNCNCNvNtNtCsblqRvDQyS7m_18boundline_adapters12orchestrator12goal_planner20select_source_targets_00B9_
FNDA:2,_RNCNCNvNtNtCsblqRvDQyS7m_18boundline_adapters12orchestrator12goal_planner23related_workspace_filess_00B9_
FNDA:0,_RNCNCNvNtNtCsblqRvDQyS7m_18boundline_adapters12orchestrator12goal_planner24selected_canon_artifacts00B9_
FNDA:53,_RNCNCNvNtNtCsblqRvDQyS7m_18boundline_adapters12orchestrator12goal_planner31extract_explicit_workspace_refs00B9_
FNDA:5,_RNCNCNvNtNtCsblqRvDQyS7m_18boundline_adapters12orchestrator12goal_planner32select_relevant_workspace_inputss1_00B9_
FNDA:4,_RNCNCNvNtNtCsblqRvDQyS7m_18boundline_adapters12orchestrator12goal_planner32select_relevant_workspace_inputss1_0s0_0B9_
FNDA:5,_RNCNCNvNtNtCsblqRvDQyS7m_18boundline_adapters12orchestrator12goal_planner32select_relevant_workspace_inputss1_0s_0B9_
FNDA:1491,_RNCNvNtNtCsblqRvDQyS7m_18boundline_adapters12orchestrator12goal_planner13goal_keywords0B7_
FNDA:237,_RNCNvNtNtCsblqRvDQyS7m_18boundline_adapters12orchestrator12goal_planner13goal_keywordss0_0B7_
FNDA:240,_RNCNvNtNtCsblqRvDQyS7m_18boundline_adapters12orchestrator12goal_planner13goal_keywordss_0B7_
FNDA:92,_RNCNvNtNtCsblqRvDQyS7m_18boundline_adapters12orchestrator12goal_planner15file_name_lower0B7_
FNDA:15,_RNCNvNtNtCsblqRvDQyS7m_18boundline_adapters12orchestrator12goal_planner18build_context_pack0B7_
FNDA:8,_RNCNvNtNtCsblqRvDQyS7m_18boundline_adapters12orchestrator12goal_planner18build_context_packs0_0B7_
FNDA:6,_RNCNvNtNtCsblqRvDQyS7m_18boundline_adapters12orchestrator12goal_planner18build_context_packs1_0B7_
FNDA:6,_RNCNvNtNtCsblqRvDQyS7m_18boundline_adapters12orchestrator12goal_planner18build_context_packs2_0B7_
FNDA:2,_RNCNvNtNtCsblqRvDQyS7m_18boundline_adapters12orchestrator12goal_planner18build_context_packs3_0B7_
FNDA:0,_RNCNvNtNtCsblqRvDQyS7m_18boundline_adapters12orchestrator12goal_planner18build_context_packs4_0B7_
FNDA:4,_RNCNvNtNtCsblqRvDQyS7m_18boundline_adapters12orchestrator12goal_planner18build_context_packs5_0B7_
FNDA:4,_RNCNvNtNtCsblqRvDQyS7m_18boundline_adapters12orchestrator12goal_planner18build_context_packs6_0B7_
FNDA:1,_RNCNvNtNtCsblqRvDQyS7m_18boundline_adapters12orchestrator12goal_planner18build_context_packs7_0B7_
FNDA:1,_RNCNvNtNtCsblqRvDQyS7m_18boundline_adapters12orchestrator12goal_planner18build_context_packs8_0B7_
FNDA:0,_RNCNvNtNtCsblqRvDQyS7m_18boundline_adapters12orchestrator12goal_planner18build_context_packs9_0B7_
FNDA:4,_RNCNvNtNtCsblqRvDQyS7m_18boundline_adapters12orchestrator12goal_planner18build_context_packs_0B7_
FNDA:0,_RNCNvNtNtCsblqRvDQyS7m_18boundline_adapters12orchestrator12goal_planner18build_context_packsa_0B7_
FNDA:1,_RNCNvNtNtCsblqRvDQyS7m_18boundline_adapters12orchestrator12goal_planner18build_context_packsb_0B7_
FNDA:1,_RNCNvNtNtCsblqRvDQyS7m_18boundline_adapters12orchestrator12goal_planner18build_context_packsc_0B7_
FNDA:5,_RNCNvNtNtCsblqRvDQyS7m_18boundline_adapters12orchestrator12goal_planner18select_test_target0B7_
FNDA:23,_RNCNvNtNtCsblqRvDQyS7m_18boundline_adapters12orchestrator12goal_planner20extract_symbol_hints0B7_
FNDA:79,_RNCNvNtNtCsblqRvDQyS7m_18boundline_adapters12orchestrator12goal_planner20goal_signal_keywords0B7_
FNDA:37,_RNCNvNtNtCsblqRvDQyS7m_18boundline_adapters12orchestrator12goal_planner20normalized_file_stem0B7_
FNDA:14,_RNCNvNtNtCsblqRvDQyS7m_18boundline_adapters12orchestrator12goal_planner20select_source_target0B7_
FNDA:12,_RNCNvNtNtCsblqRvDQyS7m_18boundline_adapters12orchestrator12goal_planner20select_source_targets0_0B7_
FNDA:16,_RNCNvNtNtCsblqRvDQyS7m_18boundline_adapters12orchestrator12goal_planner20select_source_targets_0B7_
FNDA:39,_RNCNvNtNtCsblqRvDQyS7m_18boundline_adapters12orchestrator12goal_planner21file_matches_goal_cue0B7_
FNDA:34,_RNCNvNtNtCsblqRvDQyS7m_18boundline_adapters12orchestrator12goal_planner21file_matches_goal_cues_0B7_
FNDA:12,_RNCNvNtNtCsblqRvDQyS7m_18boundline_adapters12orchestrator12goal_planner21select_primary_target0B7_
FNDA:4,_RNCNvNtNtCsblqRvDQyS7m_18boundline_adapters12orchestrator12goal_planner22resolve_domain_context0B7_
FNDA:0,_RNCNvNtNtCsblqRvDQyS7m_18boundline_adapters12orchestrator12goal_planner22resolve_domain_contexts0_0B7_
FNDA:0,_RNCNvNtNtCsblqRvDQyS7m_18boundline_adapters12orchestrator12goal_planner22resolve_domain_contexts1_0B7_
FNDA:3,_RNCNvNtNtCsblqRvDQyS7m_18boundline_adapters12orchestrator12goal_planner22resolve_domain_contexts2_0B7_
FNDA:10,_RNCNvNtNtCsblqRvDQyS7m_18boundline_adapters12orchestrator12goal_planner22resolve_domain_contexts_0B7_
FNDA:5,_RNCNvNtNtCsblqRvDQyS7m_18boundline_adapters12orchestrator12goal_planner23canon_input_disposition0B7_
FNDA:3,_RNCNvNtNtCsblqRvDQyS7m_18boundline_adapters12orchestrator12goal_planner23related_workspace_files0B7_
FNDA:2,_RNCNvNtNtCsblqRvDQyS7m_18boundline_adapters12orchestrator12goal_planner23related_workspace_filess_0B7_
FNDA:0,_RNCNvNtNtCsblqRvDQyS7m_18boundline_adapters12orchestrator12goal_planner24build_planning_rationale0B7_
FNDA:2,_RNCNvNtNtCsblqRvDQyS7m_18boundline_adapters12orchestrator12goal_planner24build_planning_rationales_0B7_
FNDA:15,_RNCNvNtNtCsblqRvDQyS7m_18boundline_adapters12orchestrator12goal_planner24insert_context_candidate0B7_
FNDA:0,_RNCNvNtNtCsblqRvDQyS7m_18boundline_adapters12orchestrator12goal_planner24selected_canon_artifacts0B7_
FNDA:0,_RNCNvNtNtCsblqRvDQyS7m_18boundline_adapters12orchestrator12goal_planner25derive_tasks_from_context0B7_
FNDA:12,_RNCNvNtNtCsblqRvDQyS7m_18boundline_adapters12orchestrator12goal_planner25derive_tasks_from_contexts_0B7_
FNDA:6,_RNCNvNtNtCsblqRvDQyS7m_18boundline_adapters12orchestrator12goal_planner27build_expert_pack_selection0B7_
FNDA:51,_RNCNvNtNtCsblqRvDQyS7m_18boundline_adapters12orchestrator12goal_planner27build_expert_pack_selections0_0B7_
FNDA:2,_RNCNvNtNtCsblqRvDQyS7m_18boundline_adapters12orchestrator12goal_planner27build_expert_pack_selections1_0B7_
FNDA:2,_RNCNvNtNtCsblqRvDQyS7m_18boundline_adapters12orchestrator12goal_planner27build_expert_pack_selections2_0B7_
FNDA:15,_RNCNvNtNtCsblqRvDQyS7m_18boundline_adapters12orchestrator12goal_planner27build_expert_pack_selections_0B7_
FNDA:0,_RNCNvNtNtCsblqRvDQyS7m_18boundline_adapters12orchestrator12goal_planner27infer_verification_strategy0B7_
FNDA:3,_RNCNvNtNtCsblqRvDQyS7m_18boundline_adapters12orchestrator12goal_planner28build_goal_plan_with_sources0B7_
FNDA:0,_RNCNvNtNtCsblqRvDQyS7m_18boundline_adapters12orchestrator12goal_planner28build_goal_plan_with_sourcess1_0B7_
FNDA:9,_RNCNvNtNtCsblqRvDQyS7m_18boundline_adapters12orchestrator12goal_planner28build_goal_plan_with_sourcess_0B7_
FNDA:0,_RNCNvNtNtCsblqRvDQyS7m_18boundline_adapters12orchestrator12goal_planner28build_routing_policy_summarys_0B7_
FNDA:1351,_RNCNvNtNtCsblqRvDQyS7m_18boundline_adapters12orchestrator12goal_planner28file_contents_match_goal_cue0B7_
FNDA:206,_RNCNvNtNtCsblqRvDQyS7m_18boundline_adapters12orchestrator12goal_planner28file_contents_match_goal_cues0_0B7_
FNDA:569,_RNCNvNtNtCsblqRvDQyS7m_18boundline_adapters12orchestrator12goal_planner28file_contents_match_goal_cues_0B7_
FNDA:3,_RNCNvNtNtCsblqRvDQyS7m_18boundline_adapters12orchestrator12goal_planner28reviewer_role_matches_family0B7_
FNDA:1,_RNCNvNtNtCsblqRvDQyS7m_18boundline_adapters12orchestrator12goal_planner30has_specific_workspace_targets0B7_
FNDA:0,_RNCNvNtNtCsblqRvDQyS7m_18boundline_adapters12orchestrator12goal_planner31evaluate_canon_expertise_inputs0B7_
FNDA:60,_RNCNvNtNtCsblqRvDQyS7m_18boundline_adapters12orchestrator12goal_planner31extract_explicit_workspace_refs0B7_
FNDA:2,_RNCNvNtNtCsblqRvDQyS7m_18boundline_adapters12orchestrator12goal_planner32select_relevant_workspace_inputs0B7_
FNDA:110,_RNCNvNtNtCsblqRvDQyS7m_18boundline_adapters12orchestrator12goal_planner32select_relevant_workspace_inputss0_0B7_
FNDA:5,_RNCNvNtNtCsblqRvDQyS7m_18boundline_adapters12orchestrator12goal_planner32select_relevant_workspace_inputss1_0B7_
FNDA:15,_RNCNvNtNtCsblqRvDQyS7m_18boundline_adapters12orchestrator12goal_planner32select_relevant_workspace_inputss2_0B7_
FNDA:110,_RNCNvNtNtCsblqRvDQyS7m_18boundline_adapters12orchestrator12goal_planner32select_relevant_workspace_inputss_0B7_
FNF:154
FNH:142
DA:83,36
DA:84,36
DA:87,36
DA:88,19
DA:89,19
DA:90,1
DA:91,16
DA:92,15
DA:93,1
DA:94,1
DA:95,15
DA:96,1
DA:97,14
DA:100,36
DA:103,36
DA:106,36
DA:109,36
DA:110,26
DA:111,26
DA:113,36
DA:114,36
DA:116,73
DA:117,73
DA:118,0
DA:119,73
DA:120,73
DA:121,0
DA:123,73
DA:124,115
DA:125,115
DA:126,115
DA:128,53
DA:129,53
DA:130,53
DA:131,16
DA:132,37
DA:133,37
DA:134,62
DA:135,62
DA:136,62
DA:138,73
DA:139,73
DA:141,78
DA:142,78
DA:143,78
DA:144,78
DA:145,78
DA:146,78
DA:147,78
DA:148,0
DA:149,78
DA:151,78
DA:152,0
DA:155,128
DA:156,128
DA:157,128
DA:158,57
DA:159,57
DA:160,57
DA:161,12
DA:162,45
DA:163,45
DA:164,71
DA:165,71
DA:166,71
DA:168,78
DA:170,99
DA:171,99
DA:172,2526
DA:173,99
DA:174,414
DA:175,396
DA:176,99
DA:177,99
DA:178,99
DA:179,99
DA:180,99
DA:199,33
DA:200,33
DA:201,33
DA:202,33
DA:203,33
DA:205,33
DA:206,33
DA:207,33
DA:208,132
DA:209,33
DA:210,33
DA:212,185
DA:213,185
DA:214,185
DA:216,73
DA:217,73
DA:218,73
DA:219,73
DA:220,73
DA:221,73
DA:222,73
DA:223,73
DA:225,82
DA:226,82
DA:227,82
DA:228,70
DA:229,82
DA:231,70
DA:232,70
DA:233,0
DA:235,70
DA:236,3464
DA:237,70
DA:238,1293
DA:239,541
DA:240,70
DA:242,82
DA:243,82
DA:244,82
DA:246,47
DA:247,47
DA:248,47
DA:249,47
DA:250,47
DA:251,47
DA:252,47
DA:253,47
DA:254,47
DA:255,47
DA:256,47
DA:257,47
DA:258,47
DA:259,47
DA:260,47
DA:261,47
DA:262,47
DA:263,33
DA:264,33
DA:265,47
DA:267,48
DA:268,48
DA:269,48
DA:270,48
DA:271,117
DA:272,117
DA:273,103
DA:274,117
DA:275,48
DA:276,48
DA:277,48
DA:279,1
DA:280,1
DA:281,0
DA:283,1
DA:284,1
DA:285,3
DA:286,3
DA:287,2
DA:288,2
DA:289,2
DA:290,3
DA:291,2
DA:292,1
DA:293,1
DA:294,1
DA:296,33
DA:297,33
DA:298,33
DA:299,33
DA:300,33
DA:301,33
DA:302,33
DA:304,33
DA:305,0
DA:306,0
DA:307,0
DA:308,0
DA:309,0
DA:310,0
DA:311,0
DA:312,0
DA:313,0
DA:314,0
DA:316,33
DA:317,15
DA:318,15
DA:319,15
DA:320,15
DA:321,15
DA:322,15
DA:323,15
DA:324,15
DA:325,15
DA:326,15
DA:327,15
DA:330,33
DA:331,13
DA:332,10
DA:333,10
DA:334,10
DA:335,10
DA:336,10
DA:337,10
DA:338,10
DA:339,10
DA:340,10
DA:341,10
DA:344,33
DA:345,33
DA:346,3
DA:347,3
DA:348,3
DA:349,3
DA:350,3
DA:351,1
DA:353,2
DA:355,3
DA:357,3
DA:361,3
DA:362,1
DA:363,1
DA:364,2
DA:366,1
DA:367,1
DA:368,1
DA:369,1
DA:370,1
DA:371,1
DA:375,1
DA:376,1
DA:377,1
DA:381,2
DA:382,0
DA:385,91
DA:386,91
DA:387,91
DA:388,182
DA:389,182
DA:390,57
DA:391,182
DA:392,91
DA:393,91
DA:394,91
DA:395,91
DA:396,182
DA:397,182
DA:398,157
DA:399,157
DA:400,25
DA:401,182
DA:402,91
DA:403,91
DA:405,91
DA:406,9
DA:407,9
DA:408,9
DA:409,9
DA:410,9
DA:411,9
DA:412,9
DA:413,9
DA:414,9
DA:415,9
DA:416,9
DA:417,9
DA:418,9
DA:419,9
DA:420,9
DA:421,9
DA:422,9
DA:423,9
DA:424,9
DA:425,9
DA:426,9
DA:427,9
DA:428,9
DA:429,9
DA:430,9
DA:431,82
DA:434,33
DA:435,33
DA:436,12
DA:437,12
DA:438,12
DA:439,12
DA:440,12
DA:441,12
DA:442,12
DA:444,33
DA:445,33
DA:446,33
DA:447,33
DA:448,33
DA:449,33
DA:450,33
DA:451,33
DA:452,33
DA:453,33
DA:454,33
DA:455,33
DA:457,33
DA:458,33
DA:459,33
DA:460,33
DA:461,33
DA:462,33
DA:463,33
DA:465,33
DA:466,33
DA:467,0
DA:468,33
DA:469,33
DA:470,5
DA:471,28
DA:472,28
DA:473,0
DA:475,63
DA:476,63
DA:477,63
DA:478,17
DA:479,46
DA:480,11
DA:481,35
DA:482,4
DA:483,31
DA:484,0
DA:485,31
DA:486,0
DA:487,31
DA:488,0
DA:490,31
DA:493,63
DA:494,31
DA:496,32
DA:497,32
DA:498,0
DA:499,32
DA:500,32
DA:501,54
DA:502,7
DA:503,25
DA:504,25
DA:505,25
DA:506,1
DA:507,24
DA:511,33
DA:512,33
DA:514,33
DA:515,33
DA:516,33
DA:517,33
DA:518,33
DA:519,33
DA:520,1
DA:521,0
DA:522,1
DA:523,1
DA:524,2
DA:525,1
DA:526,33
DA:527,33
DA:528,33
DA:530,33
DA:531,1
DA:532,1
DA:533,1
DA:534,1
DA:535,1
DA:536,32
DA:538,33
DA:539,33
DA:541,3
DA:542,3
DA:543,1
DA:544,0
DA:545,0
DA:546,0
DA:547,1
DA:548,3
DA:557,35
DA:558,35
DA:559,35
DA:561,35
DA:562,35
DA:563,35
DA:564,35
DA:565,35
DA:566,35
DA:567,35
DA:568,35
DA:570,35
DA:571,35
DA:572,35
DA:573,35
DA:575,35
DA:577,26
DA:578,26
DA:579,26
DA:580,26
DA:581,26
DA:582,26
DA:583,26
DA:584,26
DA:585,26
DA:586,26
DA:587,26
DA:589,26
DA:590,26
DA:591,26
DA:592,26
DA:593,26
DA:595,26
DA:597,25
DA:598,25
DA:599,25
DA:601,2
DA:602,2
DA:603,1
DA:604,0
DA:605,0
DA:606,1
DA:607,0
DA:608,0
DA:609,0
DA:610,0
DA:611,0
DA:612,0
DA:613,0
DA:614,0
DA:615,0
DA:617,2
DA:619,2
DA:620,2
DA:621,3
DA:622,2
DA:624,61
DA:625,61
DA:626,61
DA:627,61
DA:628,61
DA:629,61
DA:630,61
DA:631,61
DA:632,61
DA:633,61
DA:634,61
DA:635,61
DA:636,61
DA:637,61
DA:638,61
DA:640,26
DA:641,26
DA:642,26
DA:643,26
DA:644,26
DA:645,26
DA:646,26
DA:647,26
DA:648,26
DA:649,26
DA:650,26
DA:652,26
DA:653,26
DA:654,26
DA:655,26
DA:657,26
DA:658,25
DA:659,25
DA:660,25
DA:661,25
DA:662,25
DA:663,25
DA:664,25
DA:666,25
DA:671,105
DA:672,105
DA:673,105
DA:674,2
DA:675,2
DA:676,2
DA:677,2
DA:678,2
DA:679,2
DA:680,2
DA:681,2
DA:682,2
DA:683,2
DA:684,23
DA:686,25
DA:687,25
DA:688,25
DA:689,25
DA:690,25
DA:692,25
DA:693,23
DA:694,23
DA:695,23
DA:696,23
DA:697,23
DA:698,23
DA:699,23
DA:700,23
DA:701,23
DA:702,23
DA:703,23
DA:704,2
DA:705,2
DA:706,2
DA:707,2
DA:708,2
DA:709,2
DA:710,2
DA:711,2
DA:712,2
DA:713,2
DA:714,2
DA:715,2
DA:716,2
DA:719,25
DA:722,26
DA:723,26
DA:724,26
DA:725,26
DA:728,26
DA:729,8
DA:730,7
DA:732,1
DA:734,8
DA:735,8
DA:736,8
DA:737,8
DA:738,8
DA:739,8
DA:740,8
DA:741,8
DA:742,8
DA:743,8
DA:744,8
DA:745,8
DA:747,18
DA:750,26
DA:751,26
DA:752,18
DA:753,17
DA:755,17
DA:759,1
DA:761,1
DA:763,1
DA:767,8
DA:769,26
DA:770,24
DA:772,2
DA:773,2
DA:774,2
DA:775,2
DA:776,2
DA:777,2
DA:780,26
DA:781,26
DA:782,26
DA:783,26
DA:784,26
DA:785,26
DA:786,26
DA:787,26
DA:788,26
DA:789,26
DA:790,26
DA:792,26
DA:793,26
DA:794,26
DA:795,26
DA:796,26
DA:797,26
DA:799,26
DA:800,2
DA:801,2
DA:802,2
DA:803,2
DA:804,2
DA:806,2
DA:807,1
DA:808,1
DA:809,1
DA:810,1
DA:811,1
DA:812,1
DA:813,1
DA:814,1
DA:816,2
DA:817,2
DA:818,2
DA:819,2
DA:820,2
DA:821,2
DA:822,2
DA:823,2
DA:824,2
DA:825,2
DA:826,2
DA:829,26
DA:830,26
DA:832,18
DA:833,18
DA:834,18
DA:835,18
DA:836,18
DA:837,18
DA:839,1
DA:840,1
DA:841,1
DA:842,1
DA:843,1
DA:844,1
DA:845,1
DA:846,17
DA:848,17
DA:849,17
DA:850,1
DA:851,1
DA:852,1
DA:853,1
DA:854,1
DA:858,16
DA:859,1
DA:860,1
DA:861,1
DA:862,1
DA:863,15
DA:864,15
DA:865,2
DA:866,2
DA:867,2
DA:868,2
DA:869,13
DA:871,13
DA:872,9
DA:874,1
DA:875,1
DA:876,1
DA:877,1
DA:880,1
DA:881,1
DA:882,1
DA:883,1
DA:886,1
DA:887,1
DA:888,1
DA:889,1
DA:892,1
DA:893,1
DA:894,1
DA:895,1
DA:899,9
DA:900,9
DA:901,9
DA:902,5
DA:903,1
DA:904,1
DA:905,1
DA:906,1
DA:908,4
DA:909,1
DA:910,1
DA:911,1
DA:912,1
DA:914,3
DA:915,1
DA:916,1
DA:917,1
DA:918,1
DA:920,2
DA:921,1
DA:922,1
DA:923,1
DA:924,1
DA:926,1
DA:927,1
DA:928,1
DA:929,1
DA:930,1
DA:931,1
DA:932,1
DA:936,4
DA:937,1
DA:938,1
DA:939,1
DA:940,1
DA:941,3
DA:943,3
DA:944,3
DA:945,3
DA:946,3
DA:947,5
DA:948,3
DA:949,3
DA:951,3
DA:952,1
DA:953,1
DA:954,1
DA:955,1
DA:956,1
DA:957,1
DA:958,1
DA:959,1
DA:960,2
DA:962,2
DA:963,2
DA:964,2
DA:965,2
DA:966,2
DA:967,2
DA:968,2
DA:969,2
DA:970,18
DA:972,35
DA:973,35
DA:974,35
DA:975,35
DA:976,35
DA:977,35
DA:978,31
DA:979,4
DA:981,4
DA:982,4
DA:983,4
DA:984,4
DA:985,4
DA:986,4
DA:987,4
DA:988,10
DA:989,4
DA:990,4
DA:992,4
DA:993,1
DA:994,1
DA:996,0
DA:998,1
DA:1001,1
DA:1002,1
DA:1003,1
DA:1004,1
DA:1005,1
DA:1006,1
DA:1007,1
DA:1008,1
DA:1009,1
DA:1010,1
DA:1011,1
DA:1012,1
DA:1013,1
DA:1014,1
DA:1015,3
DA:1017,3
DA:1018,3
DA:1019,3
DA:1020,3
DA:1021,3
DA:1022,3
DA:1023,3
DA:1025,3
DA:1026,3
DA:1027,0
DA:1029,3
DA:1030,3
DA:1031,3
DA:1032,3
DA:1033,3
DA:1034,3
DA:1035,3
DA:1037,3
DA:1038,3
DA:1039,3
DA:1040,3
DA:1041,3
DA:1042,3
DA:1043,3
DA:1045,6
DA:1046,6
DA:1047,6
DA:1048,6
DA:1049,6
DA:1050,6
DA:1051,6
DA:1052,6
DA:1053,6
DA:1054,6
DA:1055,6
DA:1056,6
DA:1058,3
DA:1059,3
DA:1060,3
DA:1061,1
DA:1063,1
DA:1064,1
DA:1065,1
DA:1066,1
DA:1069,1
DA:1070,1
DA:1071,1
DA:1072,1
DA:1074,0
DA:1077,3
DA:1078,3
DA:1079,3
DA:1080,3
DA:1081,3
DA:1086,3
DA:1087,0
DA:1089,0
DA:1092,3
DA:1094,3
DA:1095,3
DA:1099,3
DA:1100,1
DA:1101,1
DA:1102,1
DA:1103,1
DA:1104,1
DA:1105,1
DA:1106,1
DA:1107,1
DA:1108,1
DA:1109,2
DA:1110,2
DA:1111,1
DA:1112,1
DA:1113,1
DA:1114,1
DA:1115,1
DA:1116,1
DA:1117,1
DA:1118,1
DA:1119,1
DA:1120,1
DA:1122,1
DA:1123,1
DA:1124,1
DA:1125,1
DA:1126,1
DA:1127,1
DA:1128,35
DA:1130,3
DA:1131,3
DA:1132,3
DA:1133,3
DA:1134,3
DA:1135,3
DA:1136,3
DA:1137,3
DA:1138,3
DA:1139,3
DA:1140,3
DA:1141,3
DA:1142,3
DA:1143,3
DA:1144,3
DA:1145,3
DA:1146,3
DA:1147,3
DA:1148,3
DA:1150,33
DA:1151,33
DA:1152,33
DA:1153,33
DA:1154,33
DA:1155,33
DA:1156,33
DA:1157,33
DA:1158,33
DA:1159,33
DA:1160,33
DA:1161,33
DA:1162,33
DA:1163,33
DA:1164,33
DA:1165,33
DA:1167,33
DA:1169,33
DA:1171,33
DA:1172,25
DA:1173,25
DA:1174,25
DA:1175,25
DA:1176,25
DA:1177,25
DA:1178,25
DA:1179,25
DA:1180,25
DA:1182,33
DA:1183,13
DA:1184,13
DA:1185,13
DA:1186,13
DA:1187,13
DA:1188,13
DA:1190,20
DA:1192,33
DA:1193,15
DA:1194,15
DA:1195,15
DA:1196,15
DA:1197,15
DA:1198,15
DA:1199,15
DA:1200,15
DA:1201,15
DA:1203,33
DA:1204,13
DA:1205,13
DA:1206,13
DA:1207,13
DA:1208,13
DA:1209,13
DA:1210,13
DA:1211,20
DA:1213,33
DA:1214,1
DA:1215,1
DA:1216,1
DA:1217,1
DA:1218,1
DA:1219,1
DA:1220,1
DA:1221,1
DA:1222,32
DA:1224,33
DA:1225,1
DA:1226,1
DA:1227,1
DA:1228,1
DA:1229,1
DA:1230,1
DA:1231,1
DA:1232,1
DA:1233,32
DA:1235,33
DA:1236,4
DA:1237,4
DA:1238,4
DA:1239,4
DA:1240,4
DA:1241,4
DA:1242,4
DA:1244,29
DA:1246,33
DA:1247,1
DA:1248,1
DA:1249,1
DA:1250,1
DA:1251,1
DA:1252,1
DA:1253,1
DA:1254,1
DA:1256,33
DA:1257,33
DA:1258,33
DA:1259,33
DA:1260,33
DA:1261,33
DA:1262,9
DA:1263,9
DA:1264,9
DA:1265,33
DA:1266,33
DA:1267,33
DA:1268,2
DA:1269,31
DA:1271,33
DA:1272,12
DA:1273,12
DA:1274,12
DA:1275,12
DA:1276,10
DA:1277,9
DA:1278,9
DA:1279,9
DA:1280,9
DA:1281,33
DA:1282,33
DA:1283,3
DA:1284,4
DA:1287,4
DA:1288,4
DA:1289,33
DA:1290,33
DA:1291,4
DA:1292,4
DA:1293,4
DA:1294,33
DA:1295,24
DA:1296,23
DA:1297,23
DA:1298,23
DA:1300,10
DA:1301,23
DA:1302,22
DA:1303,22
DA:1304,22
DA:1306,1
DA:1308,22
DA:1310,33
DA:1311,24
DA:1313,24
DA:1314,24
DA:1317,9
DA:1319,33
DA:1320,2
DA:1321,2
DA:1322,2
DA:1323,1
DA:1324,1
DA:1325,1
DA:1326,1
DA:1327,1
DA:1328,31
DA:1329,33
DA:1330,4
DA:1331,4
DA:1332,4
DA:1333,2
DA:1334,2
DA:1335,2
DA:1336,2
DA:1337,2
DA:1338,2
DA:1339,2
DA:1340,29
DA:1341,33
DA:1342,1
DA:1343,1
DA:1344,1
DA:1345,1
DA:1346,1
DA:1347,1
DA:1348,1
DA:1349,1
DA:1350,0
DA:1351,0
DA:1352,1
DA:1353,1
DA:1355,32
DA:1359,33
DA:1360,33
DA:1361,33
DA:1362,33
DA:1363,33
DA:1364,3
DA:1365,1
DA:1366,1
DA:1367,1
DA:1368,1
DA:1370,2
DA:1371,31
DA:1372,21
DA:1374,10
DA:1376,33
DA:1378,33
DA:1380,52
DA:1381,52
DA:1382,52
DA:1383,52
DA:1384,52
DA:1385,52
DA:1386,52
DA:1387,24
DA:1388,24
DA:1389,24
DA:1390,24
DA:1391,24
DA:1392,24
DA:1393,52
DA:1394,52
DA:1396,32
DA:1397,32
DA:1398,32
DA:1399,32
DA:1400,38
DA:1401,38
DA:1402,24
DA:1403,24
DA:1404,24
DA:1405,38
DA:1406,32
DA:1407,32
DA:1409,26
DA:1410,26
DA:1411,26
DA:1412,26
DA:1413,26
DA:1414,26
DA:1415,26
DA:1416,26
DA:1417,26
DA:1418,2
DA:1420,2
DA:1421,1
DA:1425,1
DA:1426,1
DA:1427,1
DA:1428,0
DA:1429,24
DA:1431,24
DA:1432,7
DA:1433,17
DA:1435,17
DA:1436,1
DA:1437,1
DA:1438,0
DA:1440,1
DA:1441,1
DA:1443,0
DA:1444,0
DA:1446,0
DA:1448,16
DA:1450,16
DA:1451,26
DA:1453,26
DA:1454,26
DA:1455,26
DA:1456,26
DA:1457,26
DA:1458,26
DA:1459,26
DA:1460,26
DA:1461,9
DA:1463,17
DA:1466,26
DA:1467,26
DA:1468,26
DA:1469,26
DA:1470,26
DA:1471,26
DA:1473,26
DA:1474,26
DA:1478,0
DA:1483,26
DA:1485,26
DA:1486,26
DA:1487,26
DA:1488,26
DA:1489,26
DA:1490,26
DA:1491,26
DA:1492,26
DA:1493,26
DA:1495,26
DA:1496,26
DA:1497,26
DA:1498,26
DA:1499,26
DA:1501,26
DA:1502,26
DA:1503,26
DA:1504,26
DA:1506,26
DA:1507,26
DA:1508,26
DA:1509,26
DA:1512,26
DA:1513,104
DA:1514,26
DA:1515,26
DA:1516,26
DA:1517,26
DA:1518,26
DA:1519,104
DA:1520,104
DA:1521,104
DA:1522,104
DA:1523,0
DA:1525,0
DA:1528,26
DA:1529,26
DA:1531,0
DA:1532,0
DA:1533,0
DA:1534,0
DA:1535,0
DA:1536,0
DA:1537,0
DA:1539,0
DA:1540,0
DA:1542,0
DA:1545,0
DA:1546,0
DA:1547,0
DA:1548,0
DA:1549,0
DA:1550,0
DA:1551,0
DA:1553,0
DA:1554,0
DA:1555,0
DA:1556,0
DA:1557,0
DA:1558,0
DA:1559,0
DA:1561,0
DA:1562,0
DA:1564,21
DA:1565,21
DA:1566,0
DA:1567,15
DA:1568,0
DA:1569,0
DA:1570,6
DA:1572,21
DA:1574,31
DA:1575,118
DA:1576,118
DA:1577,6
DA:1578,112
DA:1581,25
DA:1582,25
DA:1583,31
DA:1585,26
DA:1586,26
DA:1587,0
DA:1588,26
DA:1590,26
DA:1591,0
DA:1594,26
DA:1595,13
DA:1596,13
DA:1597,13
DA:1598,13
DA:1599,13
DA:1600,12
DA:1601,1
DA:1603,1
DA:1604,0
DA:1605,1
DA:1606,0
DA:1607,0
DA:1608,0
DA:1611,26
DA:1612,26
DA:1615,62
DA:1616,62
DA:1617,62
DA:1618,58
DA:1619,4
DA:1620,4
DA:1621,4
DA:1622,4
DA:1623,4
DA:1624,4
DA:1625,4
DA:1626,4
DA:1627,4
DA:1629,0
DA:1630,4
DA:1631,62
DA:1634,4
DA:1635,4
DA:1636,4
DA:1637,4
DA:1638,4
DA:1639,4
DA:1640,4
DA:1641,4
DA:1644,4
DA:1645,4
DA:1646,4
DA:1647,4
DA:1648,4
DA:1649,4
DA:1650,4
DA:1653,4
DA:1654,1
DA:1655,1
DA:1656,1
DA:1657,1
DA:1658,1
DA:1659,1
DA:1660,1
DA:1661,3
DA:1662,3
DA:1663,3
DA:1664,3
DA:1665,3
DA:1666,3
DA:1667,3
DA:1668,3
DA:1669,3
DA:1672,4
DA:1673,1
DA:1674,1
DA:1675,1
DA:1676,1
DA:1677,1
DA:1678,1
DA:1679,1
DA:1680,3
DA:1682,4
DA:1683,4
DA:1685,26
DA:1686,26
DA:1687,26
DA:1688,26
DA:1689,26
DA:1690,26
DA:1691,26
DA:1692,26
DA:1693,26
DA:1694,26
DA:1695,8
DA:1697,18
DA:1699,26
DA:1700,26
DA:1701,26
DA:1702,15
DA:1704,26
DA:1705,26
DA:1707,26
DA:1708,26
DA:1709,15
DA:1710,13
DA:1712,26
DA:1713,26
DA:1714,15
DA:1715,13
DA:1718,26
DA:1719,26
DA:1720,26
DA:1721,26
DA:1722,26
DA:1723,26
DA:1724,26
DA:1725,26
DA:1726,26
DA:1727,26
DA:1728,26
DA:1729,26
DA:1730,26
DA:1731,26
DA:1732,26
DA:1733,26
DA:1734,26
DA:1735,26
DA:1736,26
DA:1737,26
DA:1738,26
DA:1739,26
DA:1740,26
DA:1741,26
DA:1742,26
DA:1743,26
DA:1744,26
DA:1746,26
DA:1748,27
DA:1749,27
DA:1750,27
DA:1751,27
DA:1752,27
DA:1753,27
DA:1754,27
DA:1755,1
DA:1756,26
DA:1758,26
DA:1759,26
DA:1760,26
DA:1761,26
DA:1762,5
DA:1763,5
DA:1765,5
DA:1766,26
DA:1767,21
DA:1768,21
DA:1769,21
DA:1770,21
DA:1771,21
DA:1772,21
DA:1773,21
DA:1774,26
DA:1775,26
DA:1776,26
DA:1777,26
DA:1778,26
DA:1779,26
DA:1781,26
DA:1782,26
DA:1783,26
DA:1784,26
DA:1785,26
DA:1786,26
DA:1787,26
DA:1789,26
DA:1790,26
DA:1791,26
DA:1792,26
DA:1793,26
DA:1794,26
DA:1795,26
DA:1796,26
DA:1798,26
DA:1799,26
DA:1800,26
DA:1801,1
DA:1802,1
DA:1803,25
DA:1804,26
DA:1805,2
DA:1806,24
DA:1808,26
DA:1809,26
DA:1810,26
DA:1811,26
DA:1812,26
DA:1813,26
DA:1814,26
DA:1815,26
DA:1817,26
DA:1818,0
DA:1819,26
DA:1821,26
DA:1822,2
DA:1823,24
DA:1825,26
DA:1826,26
DA:1827,26
DA:1828,26
DA:1829,0
DA:1830,26
DA:1832,26
DA:1833,26
DA:1835,9
DA:1836,0
DA:1837,0
DA:1838,9
DA:1839,17
DA:1841,17
DA:1842,27
DA:1845,3
DA:1846,3
DA:1847,3
DA:1848,3
DA:1849,3
DA:1850,3
DA:1894,16
DA:1895,16
DA:1896,16
DA:1897,16
DA:1898,16
DA:1899,16
DA:1900,16
DA:1902,5
DA:1903,5
DA:1904,5
DA:1905,5
DA:1906,5
DA:1930,2
DA:1931,2
DA:1932,2
DA:1933,2
DA:1934,2
DA:1935,2
DA:1936,2
DA:1937,2
DA:1938,2
DA:1939,2
DA:1940,2
DA:1941,2
DA:1942,2
DA:1944,2
DA:1945,2
DA:1946,2
DA:1947,2
DA:1948,2
DA:1949,2
DA:1950,2
DA:1951,2
DA:1952,2
DA:1953,2
DA:1954,2
DA:1957,2
DA:1958,2
DA:1959,2
DA:1961,16
DA:1963,16
DA:1964,16
DA:1965,16
DA:1966,16
DA:1967,16
DA:1968,16
DA:1969,16
DA:1970,16
DA:1971,16
DA:1972,16
DA:1973,16
DA:1974,16
DA:1975,16
DA:1976,16
DA:1977,16
DA:1978,16
DA:1979,16
DA:1980,16
DA:1981,16
DA:1982,16
DA:1984,16
DA:1985,16
DA:1986,16
DA:1987,16
DA:1988,17
DA:1989,16
DA:1992,16
DA:1995,1
DA:1996,1
DA:1997,1
DA:1998,1
DA:1999,1
DA:2002,1
DA:2004,1
DA:2005,1
DA:2006,1
DA:2007,1
DA:2008,1
DA:2009,1
DA:2010,1
DA:2011,1
DA:2012,1
DA:2013,1
DA:2014,1
DA:2015,1
DA:2016,1
DA:2017,1
DA:2018,1
DA:2019,1
DA:2020,1
DA:2021,1
DA:2022,1
DA:2023,1
DA:2024,1
DA:2025,1
DA:2026,1
DA:2027,1
DA:2028,1
DA:2031,1
DA:2035,1
DA:2036,1
DA:2037,1
DA:2039,1
DA:2040,1
DA:2043,1
DA:2044,1
DA:2046,1
DA:2047,1
DA:2048,1
DA:2049,1
DA:2050,1
DA:2051,1
DA:2052,1
DA:2053,1
DA:2054,1
DA:2055,1
DA:2056,1
DA:2057,1
DA:2058,1
DA:2059,1
DA:2060,1
DA:2061,1
DA:2062,1
DA:2063,1
DA:2064,1
DA:2065,1
DA:2066,1
DA:2067,1
DA:2068,1
DA:2069,1
DA:2070,1
DA:2071,1
DA:2072,1
DA:2073,1
DA:2074,1
DA:2075,1
DA:2076,1
DA:2077,1
DA:2078,1
DA:2079,1
DA:2080,1
DA:2081,1
DA:2082,1
DA:2083,1
DA:2084,1
DA:2085,1
DA:2086,1
DA:2087,1
DA:2088,1
DA:2089,1
DA:2090,1
DA:2091,1
DA:2092,1
DA:2093,1
DA:2094,1
DA:2095,1
DA:2096,1
DA:2097,1
DA:2098,1
DA:2099,1
DA:2100,1
DA:2101,1
DA:2102,1
DA:2103,1
DA:2104,1
DA:2105,1
DA:2106,1
DA:2107,1
DA:2108,1
DA:2109,1
DA:2110,1
DA:2111,1
DA:2112,1
DA:2113,1
DA:2114,1
DA:2115,1
DA:2116,1
DA:2117,1
DA:2118,1
DA:2119,1
DA:2120,1
DA:2121,1
DA:2122,1
DA:2123,1
DA:2124,1
DA:2125,1
DA:2126,1
DA:2127,1
DA:2128,1
DA:2129,1
DA:2130,1
DA:2131,1
DA:2132,1
DA:2133,1
DA:2134,1
DA:2135,1
DA:2136,1
DA:2137,1
DA:2138,1
DA:2139,1
DA:2140,1
DA:2141,1
DA:2142,1
DA:2143,1
DA:2144,1
DA:2145,1
DA:2146,1
DA:2147,1
DA:2148,1
DA:2149,1
DA:2150,1
DA:2151,1
DA:2152,1
DA:2153,1
DA:2154,1
DA:2155,1
DA:2156,1
DA:2157,1
DA:2158,1
DA:2159,1
DA:2160,1
DA:2161,1
DA:2162,1
DA:2163,1
DA:2164,1
DA:2165,1
DA:2166,1
DA:2167,1
DA:2168,1
DA:2169,1
DA:2170,1
DA:2171,1
DA:2172,1
DA:2173,1
DA:2174,1
DA:2175,1
DA:2176,1
DA:2177,1
DA:2178,1
DA:2179,1
DA:2180,1
DA:2181,1
DA:2182,1
DA:2183,1
DA:2184,1
DA:2185,1
DA:2186,1
DA:2187,1
DA:2188,1
DA:2189,1
DA:2190,1
DA:2191,1
DA:2192,1
DA:2193,1
DA:2194,1
DA:2195,1
DA:2196,1
DA:2197,1
DA:2198,1
DA:2199,1
DA:2200,1
DA:2201,1
DA:2202,1
DA:2203,1
DA:2204,1
DA:2205,1
DA:2206,1
DA:2207,1
DA:2208,1
DA:2209,1
DA:2210,1
DA:2211,1
DA:2212,1
DA:2213,1
DA:2214,1
DA:2215,1
DA:2216,1
DA:2217,1
DA:2218,1
DA:2219,1
DA:2220,1
DA:2221,1
DA:2222,1
DA:2223,1
DA:2224,1
DA:2225,1
DA:2226,1
DA:2227,1
DA:2228,1
DA:2229,1
DA:2230,1
DA:2231,1
DA:2232,1
DA:2233,1
DA:2234,1
DA:2235,1
DA:2236,1
DA:2237,1
DA:2238,1
DA:2239,1
DA:2240,1
DA:2241,1
DA:2242,1
DA:2243,1
DA:2244,1
DA:2245,1
DA:2246,1
DA:2247,1
DA:2248,1
DA:2249,1
DA:2250,1
DA:2251,1
DA:2252,1
DA:2253,1
DA:2254,1
DA:2255,1
DA:2256,1
DA:2257,1
DA:2258,1
DA:2259,1
DA:2260,1
DA:2261,1
DA:2262,1
DA:2263,1
DA:2264,1
DA:2265,1
DA:2266,1
DA:2267,1
DA:2268,1
DA:2269,1
DA:2270,1
DA:2271,1
DA:2272,1
DA:2273,1
DA:2274,1
DA:2275,1
DA:2276,1
DA:2277,1
DA:2278,1
DA:2279,1
DA:2280,1
DA:2281,1
DA:2282,1
DA:2283,1
DA:2284,1
DA:2285,1
DA:2286,1
DA:2289,16
DA:2290,16
DA:2291,16
DA:2292,16
DA:2293,16
DA:2299,1
DA:2302,1
DA:2303,1
DA:2304,1
DA:2305,1
DA:2306,1
DA:2309,1
DA:2311,1
DA:2312,1
DA:2313,1
DA:2314,1
DA:2315,1
DA:2316,1
DA:2317,1
DA:2318,1
DA:2319,1
DA:2320,1
DA:2321,1
DA:2322,1
DA:2323,1
DA:2324,1
DA:2325,1
DA:2326,1
DA:2327,1
DA:2328,1
DA:2329,1
DA:2330,1
DA:2331,1
DA:2332,1
DA:2333,1
DA:2334,1
DA:2335,1
DA:2338,1
DA:2339,1
DA:2340,1
DA:2341,1
DA:2343,1
DA:2344,1
DA:2347,1
DA:2348,1
DA:2349,1
DA:2350,1
DA:2351,1
DA:2352,1
DA:2353,1
DA:2354,1
DA:2355,1
DA:2356,1
DA:2357,1
DA:2358,1
DA:2359,1
DA:2360,1
DA:2361,1
DA:2362,1
DA:2363,1
DA:2364,1
DA:2365,1
DA:2366,1
DA:2367,1
DA:2368,1
DA:2369,1
DA:2370,1
DA:2371,1
DA:2372,1
DA:2373,1
DA:2374,1
DA:2375,1
DA:2376,1
DA:2377,1
DA:2378,1
DA:2379,1
DA:2380,1
DA:2381,1
DA:2382,1
DA:2383,1
DA:2384,1
DA:2386,1
DA:2388,1
DA:2389,1
DA:2390,1
DA:2391,1
DA:2392,1
DA:2393,1
DA:2394,1
DA:2396,1
DA:2398,1
DA:2399,1
DA:2402,1
DA:2403,1
DA:2404,1
DA:2405,1
DA:2406,1
DA:2407,1
DA:2408,1
DA:2409,1
DA:2410,1
DA:2411,1
DA:2412,1
DA:2413,1
DA:2414,1
DA:2415,1
DA:2416,1
DA:2417,1
DA:2418,1
DA:2419,1
DA:2420,1
DA:2421,1
DA:2422,1
DA:2423,1
DA:2424,1
DA:2425,1
DA:2426,1
DA:2427,1
DA:2428,1
DA:2429,1
DA:2430,1
DA:2431,1
DA:2432,1
DA:2433,1
DA:2434,1
DA:2435,1
DA:2436,1
DA:2437,1
DA:2438,1
DA:2439,1
DA:2440,1
DA:2441,1
DA:2442,1
DA:2443,1
DA:2444,1
DA:2445,1
DA:2446,1
DA:2447,1
DA:2448,1
DA:2449,1
DA:2451,1
DA:2453,1
DA:2454,1
DA:2455,1
DA:2456,1
DA:2457,1
DA:2458,1
DA:2459,1
DA:2460,1
DA:2461,1
DA:2463,1
DA:2464,1
DA:2465,1
DA:2468,1
DA:2469,1
DA:2470,1
DA:2471,1
DA:2472,1
DA:2475,1
DA:2476,1
DA:2479,1
DA:2480,1
DA:2481,1
DA:2482,1
DA:2483,1
DA:2484,1
DA:2485,1
DA:2486,1
DA:2489,1
DA:2490,1
DA:2491,1
DA:2492,1
DA:2493,1
DA:2494,1
DA:2495,1
DA:2496,1
DA:2497,1
DA:2498,1
DA:2499,1
DA:2500,1
DA:2501,1
DA:2502,1
DA:2503,1
DA:2504,1
DA:2505,1
DA:2506,1
DA:2507,1
DA:2508,1
DA:2511,1
DA:2512,1
DA:2513,1
DA:2514,1
DA:2515,1
DA:2516,1
DA:2517,1
DA:2518,1
DA:2519,1
DA:2520,1
DA:2521,1
DA:2522,1
DA:2523,1
DA:2525,1
DA:2527,1
DA:2528,1
DA:2529,1
DA:2530,1
DA:2531,5
DA:2533,1
DA:2534,1
DA:2535,1
DA:2536,8
DA:2539,1
DA:2540,1
DA:2543,1
DA:2544,1
DA:2545,1
DA:2546,1
DA:2547,1
DA:2548,1
DA:2549,1
DA:2552,1
DA:2553,1
DA:2554,1
DA:2555,1
DA:2556,1
DA:2557,1
DA:2558,1
DA:2559,1
DA:2560,1
DA:2561,1
DA:2562,1
DA:2563,1
DA:2564,1
DA:2567,1
DA:2568,1
DA:2569,1
DA:2570,1
DA:2571,1
DA:2572,1
DA:2573,1
DA:2574,1
DA:2575,1
DA:2576,1
DA:2577,1
DA:2578,1
DA:2579,1
DA:2581,1
DA:2583,1
DA:2584,1
DA:2585,1
DA:2586,1
DA:2587,1
DA:2588,1
DA:2590,1
DA:2591,1
DA:2592,1
DA:2593,1
DA:2594,1
DA:2595,1
DA:2596,1
DA:2597,5
DA:2600,1
DA:2601,1
DA:2604,1
DA:2605,1
DA:2606,1
DA:2607,1
DA:2608,1
DA:2609,1
DA:2610,1
DA:2613,1
DA:2614,1
DA:2615,1
DA:2616,1
DA:2617,1
DA:2618,1
DA:2619,1
DA:2620,1
DA:2621,1
DA:2622,1
DA:2623,1
DA:2624,1
DA:2625,1
DA:2628,1
DA:2629,1
DA:2630,1
DA:2631,1
DA:2632,1
DA:2633,1
DA:2634,1
DA:2635,1
DA:2636,1
DA:2637,1
DA:2638,1
DA:2639,1
DA:2640,1
DA:2642,1
DA:2644,1
DA:2645,1
DA:2646,1
DA:2647,1
DA:2648,1
DA:2651,1
DA:2652,1
DA:2653,1
DA:2655,1
DA:2656,1
DA:2657,1
DA:2658,1
DA:2660,1
DA:2661,9
DA:2662,9
DA:2663,1
DA:2664,9
DA:2666,1
DA:2667,1
DA:2670,1
DA:2671,1
DA:2672,1
DA:2673,1
DA:2674,1
DA:2675,1
DA:2676,1
DA:2679,1
DA:2680,1
DA:2681,1
DA:2682,1
DA:2683,1
DA:2684,1
DA:2685,1
DA:2686,1
DA:2687,1
DA:2688,1
DA:2689,1
DA:2690,1
DA:2691,1
DA:2694,1
DA:2695,1
DA:2696,1
DA:2697,1
DA:2698,1
DA:2699,1
DA:2700,1
DA:2701,1
DA:2702,1
DA:2703,1
DA:2704,1
DA:2705,1
DA:2706,1
DA:2708,1
DA:2710,1
DA:2711,1
DA:2712,1
DA:2713,1
DA:2716,1
DA:2717,1
DA:2718,1
DA:2719,1
DA:2721,1
DA:2722,8
DA:2723,8
DA:2724,1
DA:2725,8
DA:2727,1
DA:2728,1
DA:2731,1
DA:2732,1
DA:2733,1
DA:2734,1
DA:2735,1
DA:2736,1
DA:2738,1
DA:2739,1
DA:2740,1
DA:2741,1
DA:2742,1
DA:2743,1
DA:2744,1
DA:2745,1
DA:2746,1
DA:2747,1
DA:2748,1
DA:2749,1
DA:2752,1
DA:2753,1
DA:2755,1
DA:2757,1
DA:2758,1
DA:2759,1
DA:2760,1
DA:2761,1
DA:2763,1
DA:2764,1
DA:2767,1
DA:2768,1
DA:2769,1
DA:2770,1
DA:2771,1
DA:2772,1
DA:2773,1
DA:2775,1
DA:2776,1
DA:2777,1
DA:2778,1
DA:2779,1
DA:2780,1
DA:2781,1
DA:2782,1
DA:2783,1
DA:2784,1
DA:2787,1
DA:2788,1
DA:2789,1
DA:2790,1
DA:2791,1
DA:2792,1
DA:2793,1
DA:2795,1
DA:2796,1
DA:2799,1
DA:2800,1
DA:2801,1
DA:2802,1
DA:2803,1
DA:2804,1
DA:2807,1
DA:2808,1
DA:2809,1
DA:2812,1
DA:2814,1
DA:2815,1
DA:2816,1
DA:2817,1
DA:2820,1
DA:2821,1
DA:2822,1
DA:2824,1
DA:2825,1
DA:2828,1
DA:2829,1
DA:2830,1
DA:2831,1
DA:2833,1
DA:2834,1
DA:2835,1
DA:2836,1
DA:2837,1
DA:2839,1
DA:2841,1
DA:2842,1
DA:2843,1
DA:2844,1
DA:2845,1
DA:2848,1
DA:2850,0
DA:2853,1
DA:2854,1
DA:2857,1
DA:2858,1
DA:2859,1
DA:2860,1
DA:2861,1
DA:2862,1
DA:2864,1
DA:2865,1
DA:2866,1
DA:2867,1
DA:2868,1
DA:2869,1
DA:2870,1
DA:2871,1
DA:2874,1
DA:2875,1
DA:2876,1
DA:2877,1
DA:2878,1
DA:2879,1
DA:2881,1
DA:2882,1
DA:2885,1
DA:2886,1
DA:2887,1
DA:2888,1
DA:2889,1
DA:2890,1
DA:2891,1
DA:2894,1
DA:2895,1
DA:2896,1
DA:2897,1
DA:2898,1
DA:2899,1
DA:2900,1
DA:2901,1
DA:2902,1
DA:2903,1
DA:2904,1
DA:2905,1
DA:2906,1
DA:2907,1
DA:2908,1
DA:2909,1
DA:2910,1
DA:2911,1
DA:2912,1
DA:2915,1
DA:2916,1
DA:2917,1
DA:2918,1
DA:2919,1
DA:2921,1
DA:2923,1
DA:2924,1
DA:2925,1
DA:2926,1
DA:2927,1
DA:2928,1
DA:2929,1
DA:2930,4
DA:2933,0
DA:2936,1
DA:2937,1
DA:2940,1
DA:2941,1
DA:2942,1
DA:2943,1
DA:2944,1
DA:2945,1
DA:2946,1
DA:2949,1
DA:2950,1
DA:2951,1
DA:2952,1
DA:2953,1
DA:2954,1
DA:2955,1
DA:2956,1
DA:2957,1
DA:2958,1
DA:2959,1
DA:2960,1
DA:2961,1
DA:2962,1
DA:2965,1
DA:2967,1
DA:2968,1
DA:2969,1
DA:2970,1
DA:2971,1
DA:2973,1
DA:2974,1
DA:2977,1
DA:2978,1
DA:2979,1
DA:2980,1
DA:2981,1
DA:2982,1
DA:2983,1
DA:2984,1
DA:2985,1
DA:2986,1
DA:2989,1
DA:2991,1
DA:2992,1
DA:2993,1
DA:2994,1
DA:2995,1
DA:2996,1
DA:2997,1
DA:2998,1
DA:2999,1
DA:3000,1
DA:3001,1
DA:3002,1
DA:3003,1
DA:3004,1
DA:3005,1
DA:3006,1
DA:3007,1
DA:3008,1
DA:3011,1
DA:3013,1
DA:3014,1
DA:3015,1
DA:3016,1
DA:3017,1
DA:3018,1
DA:3019,1
DA:3020,1
DA:3021,1
DA:3023,4
DA:3024,4
DA:3025,1
DA:3026,4
DA:3028,1
DA:3029,1
BRF:0
BRH:0
LF:2468
LH:2337
end_of_record
SF:/Users/rt/workspace/apply-the/boundline/crates/boundline-adapters/src/../../../src/orchestrator/governance.rs
FN:770,_RINvNtNtCsgV4MOW29Zwc_18boundline_adapters12orchestrator10governance18serialize_to_valueNtNtNtCs9QB1VIm1ipp_14boundline_core6domain10governance18PacketReuseBindingEB6_
FN:770,_RINvNtNtCsgV4MOW29Zwc_18boundline_adapters12orchestrator10governance18serialize_to_valueNtNtNtCs9QB1VIm1ipp_14boundline_core6domain10governance19GovernedStagePacketEB6_
FN:770,_RINvNtNtCsgV4MOW29Zwc_18boundline_adapters12orchestrator10governance18serialize_to_valueNtNtNtCs9QB1VIm1ipp_14boundline_core6domain10governance19GovernedStageRecordEB6_
FN:770,_RINvNtNtCsgV4MOW29Zwc_18boundline_adapters12orchestrator10governance18serialize_to_valueNtNtNtCs9QB1VIm1ipp_14boundline_core6domain10governance20CompactedCanonMemoryEB6_
FN:770,_RINvNtNtCsgV4MOW29Zwc_18boundline_adapters12orchestrator10governance18serialize_to_valueNtNtNtCs9QB1VIm1ipp_14boundline_core6domain10governance23AutopilotDecisionRecordEB6_
FN:763,_RINvNtNtCsgV4MOW29Zwc_18boundline_adapters12orchestrator10governance25optional_serialized_valueNtNtNtCs9QB1VIm1ipp_14boundline_core6domain10governance18PacketReuseBindingEB6_
FN:763,_RINvNtNtCsgV4MOW29Zwc_18boundline_adapters12orchestrator10governance25optional_serialized_valueNtNtNtCs9QB1VIm1ipp_14boundline_core6domain10governance19GovernedStagePacketEB6_
FN:763,_RINvNtNtCsgV4MOW29Zwc_18boundline_adapters12orchestrator10governance25optional_serialized_valueNtNtNtCs9QB1VIm1ipp_14boundline_core6domain10governance20CompactedCanonMemoryEB6_
FN:763,_RINvNtNtCsgV4MOW29Zwc_18boundline_adapters12orchestrator10governance25optional_serialized_valueNtNtNtCs9QB1VIm1ipp_14boundline_core6domain10governance23AutopilotDecisionRecordEB6_
FN:775,_RNCINvNtNtCsgV4MOW29Zwc_18boundline_adapters12orchestrator10governance18serialize_to_valueNtNtNtCs9QB1VIm1ipp_14boundline_core6domain10governance18PacketReuseBindingE0B8_
FN:775,_RNCINvNtNtCsgV4MOW29Zwc_18boundline_adapters12orchestrator10governance18serialize_to_valueNtNtNtCs9QB1VIm1ipp_14boundline_core6domain10governance19GovernedStagePacketE0B8_
FN:775,_RNCINvNtNtCsgV4MOW29Zwc_18boundline_adapters12orchestrator10governance18serialize_to_valueNtNtNtCs9QB1VIm1ipp_14boundline_core6domain10governance19GovernedStageRecordE0B8_
FN:775,_RNCINvNtNtCsgV4MOW29Zwc_18boundline_adapters12orchestrator10governance18serialize_to_valueNtNtNtCs9QB1VIm1ipp_14boundline_core6domain10governance20CompactedCanonMemoryE0B8_
FN:775,_RNCINvNtNtCsgV4MOW29Zwc_18boundline_adapters12orchestrator10governance18serialize_to_valueNtNtNtCs9QB1VIm1ipp_14boundline_core6domain10governance23AutopilotDecisionRecordE0B8_
FN:767,_RNCINvNtNtCsgV4MOW29Zwc_18boundline_adapters12orchestrator10governance25optional_serialized_valueNtNtNtCs9QB1VIm1ipp_14boundline_core6domain10governance18PacketReuseBindingE0B8_
FN:767,_RNCINvNtNtCsgV4MOW29Zwc_18boundline_adapters12orchestrator10governance25optional_serialized_valueNtNtNtCs9QB1VIm1ipp_14boundline_core6domain10governance19GovernedStagePacketE0B8_
FN:767,_RNCINvNtNtCsgV4MOW29Zwc_18boundline_adapters12orchestrator10governance25optional_serialized_valueNtNtNtCs9QB1VIm1ipp_14boundline_core6domain10governance20CompactedCanonMemoryE0B8_
FN:767,_RNCINvNtNtCsgV4MOW29Zwc_18boundline_adapters12orchestrator10governance25optional_serialized_valueNtNtNtCs9QB1VIm1ipp_14boundline_core6domain10governance23AutopilotDecisionRecordE0B8_
FN:385,_RNCNCNvNtNtCsgV4MOW29Zwc_18boundline_adapters12orchestrator10governance25runtime_command_available00B9_
FN:43,_RNCNCNvNtNtCsgV4MOW29Zwc_18boundline_adapters12orchestrator10governance27requested_governance_intent00B9_
FN:724,_RNCNCNvNtNtCsgV4MOW29Zwc_18boundline_adapters12orchestrator10governance31canon_memory_recommended_actions0_00B9_
FN:715,_RNCNCNvNtNtCsgV4MOW29Zwc_18boundline_adapters12orchestrator10governance31canon_memory_recommended_actions_00B9_
FN:33,_RNCNvNtNtCsgV4MOW29Zwc_18boundline_adapters12orchestrator10governance21selected_stage_policy0B7_
FN:450,_RNCNvNtNtCsgV4MOW29Zwc_18boundline_adapters12orchestrator10governance24build_autopilot_decision0B7_
FN:534,_RNCNvNtNtCsgV4MOW29Zwc_18boundline_adapters12orchestrator10governance24build_autopilot_decisions0_0B7_
FN:529,_RNCNvNtNtCsgV4MOW29Zwc_18boundline_adapters12orchestrator10governance24build_autopilot_decisions_0B7_
FN:384,_RNCNvNtNtCsgV4MOW29Zwc_18boundline_adapters12orchestrator10governance25runtime_command_available0B7_
FN:87,_RNCNvNtNtCsgV4MOW29Zwc_18boundline_adapters12orchestrator10governance26governance_input_documents0B7_
FN:107,_RNCNvNtNtCsgV4MOW29Zwc_18boundline_adapters12orchestrator10governance26governance_input_documentss_0B7_
FN:370,_RNCNvNtNtCsgV4MOW29Zwc_18boundline_adapters12orchestrator10governance26lifecycle_requires_refresh0B7_
FN:371,_RNCNvNtNtCsgV4MOW29Zwc_18boundline_adapters12orchestrator10governance26lifecycle_requires_refreshs_0B7_
FN:40,_RNCNvNtNtCsgV4MOW29Zwc_18boundline_adapters12orchestrator10governance27requested_governance_intent0B7_
FN:46,_RNCNvNtNtCsgV4MOW29Zwc_18boundline_adapters12orchestrator10governance27requested_governance_intents_0B7_
FN:188,_RNCNvNtNtCsgV4MOW29Zwc_18boundline_adapters12orchestrator10governance27select_packet_reuse_binding0B7_
FN:746,_RNCNvNtNtCsgV4MOW29Zwc_18boundline_adapters12orchestrator10governance29canon_memory_possible_actions0B7_
FN:706,_RNCNvNtNtCsgV4MOW29Zwc_18boundline_adapters12orchestrator10governance31canon_memory_recommended_action0B7_
FN:724,_RNCNvNtNtCsgV4MOW29Zwc_18boundline_adapters12orchestrator10governance31canon_memory_recommended_actions0_0B7_
FN:715,_RNCNvNtNtCsgV4MOW29Zwc_18boundline_adapters12orchestrator10governance31canon_memory_recommended_actions_0B7_
FN:643,_RNCNvNtNtCsgV4MOW29Zwc_18boundline_adapters12orchestrator10governance32compacted_canon_memory_for_block0B7_
FN:331,_RNCNvNtNtCsgV4MOW29Zwc_18boundline_adapters12orchestrator10governance34clarification_prompt_from_responses0_0B7_
FN:333,_RNCNvNtNtCsgV4MOW29Zwc_18boundline_adapters12orchestrator10governance34clarification_prompt_from_responses2_0B7_
FN:335,_RNCNvNtNtCsgV4MOW29Zwc_18boundline_adapters12orchestrator10governance34clarification_prompt_from_responses3_0B7_
FN:316,_RNCNvNtNtCsgV4MOW29Zwc_18boundline_adapters12orchestrator10governance34clarification_prompt_from_responses_0B7_
FN:616,_RNCNvNtNtCsgV4MOW29Zwc_18boundline_adapters12orchestrator10governance36compacted_canon_memory_from_responses0_0B7_
FN:617,_RNCNvNtNtCsgV4MOW29Zwc_18boundline_adapters12orchestrator10governance36compacted_canon_memory_from_responses1_0B7_
FN:621,_RNCNvNtNtCsgV4MOW29Zwc_18boundline_adapters12orchestrator10governance36compacted_canon_memory_from_responses2_0B7_
FN:600,_RNCNvNtNtCsgV4MOW29Zwc_18boundline_adapters12orchestrator10governance36compacted_canon_memory_from_responses_0B7_
FN:132,_RNCNvNtNtCsgV4MOW29Zwc_18boundline_adapters12orchestrator10governance37append_project_memory_input_documents0B7_
FN:145,_RNCNvNtNtCsgV4MOW29Zwc_18boundline_adapters12orchestrator10governance37append_project_memory_input_documentss0_0B7_
FN:133,_RNCNvNtNtCsgV4MOW29Zwc_18boundline_adapters12orchestrator10governance37append_project_memory_input_documentss_0B7_
FN:252,_RNCNvNtNtCsgV4MOW29Zwc_18boundline_adapters12orchestrator10governance39enrich_bounded_context_with_accumulated0B7_
FN:793,_RNvMNtNtCsgV4MOW29Zwc_18boundline_adapters12orchestrator10governanceNtB2_29GovernanceStateSelectionError17from_task_context
FN:24,_RNvNtNtCsgV4MOW29Zwc_18boundline_adapters12orchestrator10governance20governance_stage_key
FN:28,_RNvNtNtCsgV4MOW29Zwc_18boundline_adapters12orchestrator10governance21selected_stage_policy
FN:205,_RNvNtNtCsgV4MOW29Zwc_18boundline_adapters12orchestrator10governance22bounded_reused_packets
FN:554,_RNvNtNtCsgV4MOW29Zwc_18boundline_adapters12orchestrator10governance22governance_state_patch
FN:425,_RNvNtNtCsgV4MOW29Zwc_18boundline_adapters12orchestrator10governance24build_autopilot_decision
FN:665,_RNvNtNtCsgV4MOW29Zwc_18boundline_adapters12orchestrator10governance24canon_memory_credibility
FN:389,_RNvNtNtCsgV4MOW29Zwc_18boundline_adapters12orchestrator10governance24narrowed_bounded_context
FN:374,_RNvNtNtCsgV4MOW29Zwc_18boundline_adapters12orchestrator10governance25runtime_command_available
FN:226,_RNvNtNtCsgV4MOW29Zwc_18boundline_adapters12orchestrator10governance26bounded_governance_context
FN:79,_RNvNtNtCsgV4MOW29Zwc_18boundline_adapters12orchestrator10governance26governance_input_documents
FN:366,_RNvNtNtCsgV4MOW29Zwc_18boundline_adapters12orchestrator10governance26lifecycle_requires_refresh
FN:407,_RNvNtNtCsgV4MOW29Zwc_18boundline_adapters12orchestrator10governance27escalation_target_stage_key
FN:36,_RNvNtNtCsgV4MOW29Zwc_18boundline_adapters12orchestrator10governance27requested_governance_intent
FN:153,_RNvNtNtCsgV4MOW29Zwc_18boundline_adapters12orchestrator10governance27select_packet_reuse_binding
FN:826,_RNvNtNtCsgV4MOW29Zwc_18boundline_adapters12orchestrator10governance28evaluate_mode_selection_gate
FN:729,_RNvNtNtCsgV4MOW29Zwc_18boundline_adapters12orchestrator10governance29canon_memory_possible_actions
FN:351,_RNvNtNtCsgV4MOW29Zwc_18boundline_adapters12orchestrator10governance29is_awaiting_approval_response
FN:689,_RNvNtNtCsgV4MOW29Zwc_18boundline_adapters12orchestrator10governance31canon_memory_recommended_action
FN:356,_RNvNtNtCsgV4MOW29Zwc_18boundline_adapters12orchestrator10governance31set_lifecycle_awaiting_approval
FN:637,_RNvNtNtCsgV4MOW29Zwc_18boundline_adapters12orchestrator10governance32compacted_canon_memory_for_block
FN:49,_RNvNtNtCsgV4MOW29Zwc_18boundline_adapters12orchestrator10governance32overlay_stage_policy_with_intent
FN:306,_RNvNtNtCsgV4MOW29Zwc_18boundline_adapters12orchestrator10governance34clarification_prompt_from_response
FN:272,_RNvNtNtCsgV4MOW29Zwc_18boundline_adapters12orchestrator10governance35governed_document_ref_from_response
FN:586,_RNvNtNtCsgV4MOW29Zwc_18boundline_adapters12orchestrator10governance36compacted_canon_memory_from_response
FN:293,_RNvNtNtCsgV4MOW29Zwc_18boundline_adapters12orchestrator10governance37append_governed_document_to_lifecycle
FN:121,_RNvNtNtCsgV4MOW29Zwc_18boundline_adapters12orchestrator10governance37append_project_memory_input_documents
FN:246,_RNvNtNtCsgV4MOW29Zwc_18boundline_adapters12orchestrator10governance39enrich_bounded_context_with_accumulated
FN:770,_RINvNtNtCsblqRvDQyS7m_18boundline_adapters12orchestrator10governance18serialize_to_valueNtNtNtCs9QB1VIm1ipp_14boundline_core6domain10governance18PacketReuseBindingEB6_
FN:770,_RINvNtNtCsblqRvDQyS7m_18boundline_adapters12orchestrator10governance18serialize_to_valueNtNtNtCs9QB1VIm1ipp_14boundline_core6domain10governance19GovernedStagePacketEB6_
FN:770,_RINvNtNtCsblqRvDQyS7m_18boundline_adapters12orchestrator10governance18serialize_to_valueNtNtNtCs9QB1VIm1ipp_14boundline_core6domain10governance19GovernedStageRecordEB6_
FN:770,_RINvNtNtCsblqRvDQyS7m_18boundline_adapters12orchestrator10governance18serialize_to_valueNtNtNtCs9QB1VIm1ipp_14boundline_core6domain10governance20CompactedCanonMemoryEB6_
FN:770,_RINvNtNtCsblqRvDQyS7m_18boundline_adapters12orchestrator10governance18serialize_to_valueNtNtNtCs9QB1VIm1ipp_14boundline_core6domain10governance23AutopilotDecisionRecordEB6_
FN:770,_RINvNtNtCsblqRvDQyS7m_18boundline_adapters12orchestrator10governance18serialize_to_valueNtNvNtB2_5testss_48serialization_helpers_cover_null_and_error_paths12FailingValueEB6_
FN:770,_RINvNtNtCsblqRvDQyS7m_18boundline_adapters12orchestrator10governance18serialize_to_valuedEB6_
FN:763,_RINvNtNtCsblqRvDQyS7m_18boundline_adapters12orchestrator10governance25optional_serialized_valueNtNtNtCs9QB1VIm1ipp_14boundline_core6domain10governance18PacketReuseBindingEB6_
