SF:/Users/rt/workspace/synod/src/adapters/agent.rs
FN:22,_RNvMNtNtCs3oCotP8OZr6_5synod8adapters5agentINtB2_14FnAgentAdapterNCNvMNtNtB6_12orchestrator15session_runtimeNtB16_14SessionRuntime25native_adapter_registries0E3newB6_
FN:22,_RNvMNtNtCs3oCotP8OZr6_5synod8adapters5agentINtB2_14FnAgentAdapterNCNvMNtNtB6_12orchestrator15session_runtimeNtB16_14SessionRuntime25native_adapter_registriess0_0E3newB6_
FN:22,_RNvMNtNtCs3oCotP8OZr6_5synod8adapters5agentINtB2_14FnAgentAdapterNCNvNtB6_7fixture30build_fixture_runtime_for_flows0_0E3newB6_
FN:22,_RNvMNtNtCs3oCotP8OZr6_5synod8adapters5agentINtB2_14FnAgentAdapterNCNvNtB6_7fixture30build_fixture_runtime_for_flows1_0E3newB6_
FN:22,_RNvMNtNtCs3oCotP8OZr6_5synod8adapters5agentINtB2_14FnAgentAdapterNCNvNtB6_7fixture30build_fixture_runtime_for_flows2_0E3newB6_
FN:22,_RNvMNtNtCs3oCotP8OZr6_5synod8adapters5agentINtB2_14FnAgentAdapterNCNvNtNtNtB6_12orchestrator6engine5testss_59execute_step_dispatches_registered_agent_and_tool_endpoints0E3newB6_
FN:22,_RNvMNtNtCs3oCotP8OZr6_5synod8adapters5agentINtB2_14FnAgentAdapterNCNvNtNtNtB6_12orchestrator6engine5testss_64run_normalizes_invalid_agent_results_into_unrecoverable_failures0E3newB6_
FN:31,_RNvXs_NtNtCs3oCotP8OZr6_5synod8adapters5agentINtB4_14FnAgentAdapterNCNvMNtNtB8_12orchestrator15session_runtimeNtB18_14SessionRuntime25native_adapter_registries0ENtB4_12AgentAdapter7executeB8_
FN:31,_RNvXs_NtNtCs3oCotP8OZr6_5synod8adapters5agentINtB4_14FnAgentAdapterNCNvMNtNtB8_12orchestrator15session_runtimeNtB18_14SessionRuntime25native_adapter_registriess0_0ENtB4_12AgentAdapter7executeB8_
FN:31,_RNvXs_NtNtCs3oCotP8OZr6_5synod8adapters5agentINtB4_14FnAgentAdapterNCNvNtB8_7fixture30build_fixture_runtime_for_flows0_0ENtB4_12AgentAdapter7executeB8_
FN:31,_RNvXs_NtNtCs3oCotP8OZr6_5synod8adapters5agentINtB4_14FnAgentAdapterNCNvNtB8_7fixture30build_fixture_runtime_for_flows1_0ENtB4_12AgentAdapter7executeB8_
FN:31,_RNvXs_NtNtCs3oCotP8OZr6_5synod8adapters5agentINtB4_14FnAgentAdapterNCNvNtB8_7fixture30build_fixture_runtime_for_flows2_0ENtB4_12AgentAdapter7executeB8_
FN:31,_RNvXs_NtNtCs3oCotP8OZr6_5synod8adapters5agentINtB4_14FnAgentAdapterNCNvNtNtNtB8_12orchestrator6engine5testss_59execute_step_dispatches_registered_agent_and_tool_endpoints0ENtB4_12AgentAdapter7executeB8_
FN:31,_RNvXs_NtNtCs3oCotP8OZr6_5synod8adapters5agentINtB4_14FnAgentAdapterNCNvNtNtNtB8_12orchestrator6engine5testss_64run_normalizes_invalid_agent_results_into_unrecoverable_failures0ENtB4_12AgentAdapter7executeB8_
FNDA:4,_RNvMNtNtCs3oCotP8OZr6_5synod8adapters5agentINtB2_14FnAgentAdapterNCNvMNtNtB6_12orchestrator15session_runtimeNtB16_14SessionRuntime25native_adapter_registries0E3newB6_
FNDA:4,_RNvMNtNtCs3oCotP8OZr6_5synod8adapters5agentINtB2_14FnAgentAdapterNCNvMNtNtB6_12orchestrator15session_runtimeNtB16_14SessionRuntime25native_adapter_registriess0_0E3newB6_
FNDA:28,_RNvMNtNtCs3oCotP8OZr6_5synod8adapters5agentINtB2_14FnAgentAdapterNCNvNtB6_7fixture30build_fixture_runtime_for_flows0_0E3newB6_
FNDA:28,_RNvMNtNtCs3oCotP8OZr6_5synod8adapters5agentINtB2_14FnAgentAdapterNCNvNtB6_7fixture30build_fixture_runtime_for_flows1_0E3newB6_
FNDA:28,_RNvMNtNtCs3oCotP8OZr6_5synod8adapters5agentINtB2_14FnAgentAdapterNCNvNtB6_7fixture30build_fixture_runtime_for_flows2_0E3newB6_
FNDA:1,_RNvMNtNtCs3oCotP8OZr6_5synod8adapters5agentINtB2_14FnAgentAdapterNCNvNtNtNtB6_12orchestrator6engine5testss_59execute_step_dispatches_registered_agent_and_tool_endpoints0E3newB6_
FNDA:1,_RNvMNtNtCs3oCotP8OZr6_5synod8adapters5agentINtB2_14FnAgentAdapterNCNvNtNtNtB6_12orchestrator6engine5testss_64run_normalizes_invalid_agent_results_into_unrecoverable_failures0E3newB6_
FNDA:4,_RNvXs_NtNtCs3oCotP8OZr6_5synod8adapters5agentINtB4_14FnAgentAdapterNCNvMNtNtB8_12orchestrator15session_runtimeNtB18_14SessionRuntime25native_adapter_registries0ENtB4_12AgentAdapter7executeB8_
FNDA:4,_RNvXs_NtNtCs3oCotP8OZr6_5synod8adapters5agentINtB4_14FnAgentAdapterNCNvMNtNtB8_12orchestrator15session_runtimeNtB18_14SessionRuntime25native_adapter_registriess0_0ENtB4_12AgentAdapter7executeB8_
FNDA:5,_RNvXs_NtNtCs3oCotP8OZr6_5synod8adapters5agentINtB4_14FnAgentAdapterNCNvNtB8_7fixture30build_fixture_runtime_for_flows0_0ENtB4_12AgentAdapter7executeB8_
FNDA:8,_RNvXs_NtNtCs3oCotP8OZr6_5synod8adapters5agentINtB4_14FnAgentAdapterNCNvNtB8_7fixture30build_fixture_runtime_for_flows1_0ENtB4_12AgentAdapter7executeB8_
FNDA:2,_RNvXs_NtNtCs3oCotP8OZr6_5synod8adapters5agentINtB4_14FnAgentAdapterNCNvNtB8_7fixture30build_fixture_runtime_for_flows2_0ENtB4_12AgentAdapter7executeB8_
FNDA:1,_RNvXs_NtNtCs3oCotP8OZr6_5synod8adapters5agentINtB4_14FnAgentAdapterNCNvNtNtNtB8_12orchestrator6engine5testss_59execute_step_dispatches_registered_agent_and_tool_endpoints0ENtB4_12AgentAdapter7executeB8_
FNDA:1,_RNvXs_NtNtCs3oCotP8OZr6_5synod8adapters5agentINtB4_14FnAgentAdapterNCNvNtNtNtB8_12orchestrator6engine5testss_64run_normalizes_invalid_agent_results_into_unrecoverable_failures0ENtB4_12AgentAdapter7executeB8_
FNF:2
FNH:2
DA:22,94
DA:23,94
DA:24,94
DA:31,25
DA:32,25
DA:33,25
BRF:0
BRH:0
LF:6
LH:6
end_of_record
SF:/Users/rt/workspace/synod/src/adapters/cluster_store.rs
FN:16,_RNvMNtNtCs3oCotP8OZr6_5synod8adapters13cluster_storeNtB2_16FileClusterStore13for_workspace
FN:20,_RNvMNtNtCs3oCotP8OZr6_5synod8adapters13cluster_storeNtB2_16FileClusterStore19cluster_config_path
FN:24,_RNvMNtNtCs3oCotP8OZr6_5synod8adapters13cluster_storeNtB2_16FileClusterStore4load
FN:28,_RNvMNtNtCs3oCotP8OZr6_5synod8adapters13cluster_storeNtB2_16FileClusterStore4save
FN:52,_RNvNtNtCs3oCotP8OZr6_5synod8adapters13cluster_store12save_to_path
FN:33,_RNvNtNtCs3oCotP8OZr6_5synod8adapters13cluster_store14load_from_path
FN:54,_RNCNvNtNtCs3oCotP8OZr6_5synod8adapters13cluster_store12save_to_path0B7_
FN:63,_RNCNvNtNtCs3oCotP8OZr6_5synod8adapters13cluster_store12save_to_paths0_0B7_
FN:67,_RNCNvNtNtCs3oCotP8OZr6_5synod8adapters13cluster_store12save_to_paths1_0B7_
FN:59,_RNCNvNtNtCs3oCotP8OZr6_5synod8adapters13cluster_store12save_to_paths_0B7_
FN:39,_RNCNvNtNtCs3oCotP8OZr6_5synod8adapters13cluster_store14load_from_path0B7_
FN:45,_RNCNvNtNtCs3oCotP8OZr6_5synod8adapters13cluster_store14load_from_paths0_0B7_
FN:42,_RNCNvNtNtCs3oCotP8OZr6_5synod8adapters13cluster_store14load_from_paths_0B7_
FN:98,_RNvNtNtNtCs3oCotP8OZr6_5synod8adapters13cluster_store5testss_31cluster_config_round_trip_works
FNDA:45,_RNvMNtNtCs3oCotP8OZr6_5synod8adapters13cluster_storeNtB2_16FileClusterStore13for_workspace
FNDA:47,_RNvMNtNtCs3oCotP8OZr6_5synod8adapters13cluster_storeNtB2_16FileClusterStore19cluster_config_path
FNDA:44,_RNvMNtNtCs3oCotP8OZr6_5synod8adapters13cluster_storeNtB2_16FileClusterStore4load
FNDA:2,_RNvMNtNtCs3oCotP8OZr6_5synod8adapters13cluster_storeNtB2_16FileClusterStore4save
FNDA:2,_RNvNtNtCs3oCotP8OZr6_5synod8adapters13cluster_store12save_to_path
FNDA:44,_RNvNtNtCs3oCotP8OZr6_5synod8adapters13cluster_store14load_from_path
FNDA:0,_RNCNvNtNtCs3oCotP8OZr6_5synod8adapters13cluster_store12save_to_path0B7_
FNDA:0,_RNCNvNtNtCs3oCotP8OZr6_5synod8adapters13cluster_store12save_to_paths0_0B7_
FNDA:0,_RNCNvNtNtCs3oCotP8OZr6_5synod8adapters13cluster_store12save_to_paths1_0B7_
FNDA:0,_RNCNvNtNtCs3oCotP8OZr6_5synod8adapters13cluster_store12save_to_paths_0B7_
FNDA:0,_RNCNvNtNtCs3oCotP8OZr6_5synod8adapters13cluster_store14load_from_path0B7_
FNDA:0,_RNCNvNtNtCs3oCotP8OZr6_5synod8adapters13cluster_store14load_from_paths0_0B7_
FNDA:0,_RNCNvNtNtCs3oCotP8OZr6_5synod8adapters13cluster_store14load_from_paths_0B7_
FNDA:1,_RNvNtNtNtCs3oCotP8OZr6_5synod8adapters13cluster_store5testss_31cluster_config_round_trip_works
FNF:14
FNH:7
DA:16,45
DA:17,45
DA:18,45
DA:20,47
DA:21,47
DA:22,47
DA:24,44
DA:25,44
DA:26,44
DA:28,2
DA:29,2
DA:30,2
DA:33,44
DA:34,44
DA:35,41
DA:36,3
DA:38,3
DA:39,3
DA:41,3
DA:42,3
DA:44,3
DA:45,0
DA:46,0
DA:47,0
DA:49,3
DA:50,44
DA:52,2
DA:53,2
DA:54,0
DA:55,0
DA:56,0
DA:58,2
DA:59,2
DA:61,2
DA:62,2
DA:63,2
DA:64,0
DA:66,2
DA:67,2
DA:69,2
DA:70,2
DA:98,1
DA:99,1
DA:100,1
DA:102,1
DA:103,1
DA:104,1
DA:105,1
DA:106,1
DA:107,1
DA:108,1
DA:109,1
DA:110,1
DA:111,1
DA:112,1
DA:113,1
DA:114,1
DA:115,1
DA:116,1
DA:117,1
DA:118,1
DA:119,1
DA:120,1
DA:121,1
DA:122,1
DA:123,1
DA:124,1
DA:126,1
DA:127,1
DA:129,1
DA:130,1
DA:131,1
BRF:0
BRH:0
LF:79
LH:65
end_of_record
SF:/Users/rt/workspace/synod/src/adapters/config_store.rs
FN:122,_RNvNtNtNtCs3oCotP8OZr6_5synod8adapters12config_store5testss_22local_round_trip_works
FN:139,_RNvNtNtNtCs3oCotP8OZr6_5synod8adapters12config_store5testss_39local_routing_returns_none_when_missing
FN:148,_RNvNtNtNtCs3oCotP8OZr6_5synod8adapters12config_store5testss_40invalid_routing_is_rejected_before_write
FN:30,_RNCNvMNtNtCs3oCotP8OZr6_5synod8adapters12config_storeNtB4_15FileConfigStore18global_config_path0B8_
FN:80,_RNCNvNtNtCs3oCotP8OZr6_5synod8adapters12config_store12save_to_path0B7_
FN:89,_RNCNvNtNtCs3oCotP8OZr6_5synod8adapters12config_store12save_to_paths0_0B7_
FN:93,_RNCNvNtNtCs3oCotP8OZr6_5synod8adapters12config_store12save_to_paths1_0B7_
FN:85,_RNCNvNtNtCs3oCotP8OZr6_5synod8adapters12config_store12save_to_paths_0B7_
FN:65,_RNCNvNtNtCs3oCotP8OZr6_5synod8adapters12config_store14load_from_path0B7_
FN:71,_RNCNvNtNtCs3oCotP8OZr6_5synod8adapters12config_store14load_from_paths0_0B7_
FN:68,_RNCNvNtNtCs3oCotP8OZr6_5synod8adapters12config_store14load_from_paths_0B7_
FN:34,_RNvMNtNtCs3oCotP8OZr6_5synod8adapters12config_storeNtB2_15FileConfigStore10load_local
FN:38,_RNvMNtNtCs3oCotP8OZr6_5synod8adapters12config_storeNtB2_15FileConfigStore10save_local
FN:42,_RNvMNtNtCs3oCotP8OZr6_5synod8adapters12config_storeNtB2_15FileConfigStore11load_global
FN:46,_RNvMNtNtCs3oCotP8OZr6_5synod8adapters12config_storeNtB2_15FileConfigStore11save_global
FN:17,_RNvMNtNtCs3oCotP8OZr6_5synod8adapters12config_storeNtB2_15FileConfigStore13for_workspace
FN:50,_RNvMNtNtCs3oCotP8OZr6_5synod8adapters12config_storeNtB2_15FileConfigStore13local_routing
FN:54,_RNvMNtNtCs3oCotP8OZr6_5synod8adapters12config_storeNtB2_15FileConfigStore14global_routing
FN:21,_RNvMNtNtCs3oCotP8OZr6_5synod8adapters12config_storeNtB2_15FileConfigStore17local_config_path
FN:25,_RNvMNtNtCs3oCotP8OZr6_5synod8adapters12config_storeNtB2_15FileConfigStore18global_config_path
FN:78,_RNvNtNtCs3oCotP8OZr6_5synod8adapters12config_store12save_to_path
FN:59,_RNvNtNtCs3oCotP8OZr6_5synod8adapters12config_store14load_from_path
FNDA:1,_RNvNtNtNtCs3oCotP8OZr6_5synod8adapters12config_store5testss_22local_round_trip_works
FNDA:1,_RNvNtNtNtCs3oCotP8OZr6_5synod8adapters12config_store5testss_39local_routing_returns_none_when_missing
FNDA:1,_RNvNtNtNtCs3oCotP8OZr6_5synod8adapters12config_store5testss_40invalid_routing_is_rejected_before_write
FNDA:0,_RNCNvMNtNtCs3oCotP8OZr6_5synod8adapters12config_storeNtB4_15FileConfigStore18global_config_path0B8_
FNDA:1,_RNCNvNtNtCs3oCotP8OZr6_5synod8adapters12config_store12save_to_path0B7_
FNDA:0,_RNCNvNtNtCs3oCotP8OZr6_5synod8adapters12config_store12save_to_paths0_0B7_
FNDA:0,_RNCNvNtNtCs3oCotP8OZr6_5synod8adapters12config_store12save_to_paths1_0B7_
FNDA:0,_RNCNvNtNtCs3oCotP8OZr6_5synod8adapters12config_store12save_to_paths_0B7_
FNDA:0,_RNCNvNtNtCs3oCotP8OZr6_5synod8adapters12config_store14load_from_path0B7_
FNDA:0,_RNCNvNtNtCs3oCotP8OZr6_5synod8adapters12config_store14load_from_paths0_0B7_
FNDA:0,_RNCNvNtNtCs3oCotP8OZr6_5synod8adapters12config_store14load_from_paths_0B7_
FNDA:78,_RNvMNtNtCs3oCotP8OZr6_5synod8adapters12config_storeNtB2_15FileConfigStore10load_local
FNDA:2,_RNvMNtNtCs3oCotP8OZr6_5synod8adapters12config_storeNtB2_15FileConfigStore10save_local
FNDA:42,_RNvMNtNtCs3oCotP8OZr6_5synod8adapters12config_storeNtB2_15FileConfigStore11load_global
FNDA:0,_RNvMNtNtCs3oCotP8OZr6_5synod8adapters12config_storeNtB2_15FileConfigStore11save_global
FNDA:79,_RNvMNtNtCs3oCotP8OZr6_5synod8adapters12config_storeNtB2_15FileConfigStore13for_workspace
FNDA:73,_RNvMNtNtCs3oCotP8OZr6_5synod8adapters12config_storeNtB2_15FileConfigStore13local_routing
FNDA:42,_RNvMNtNtCs3oCotP8OZr6_5synod8adapters12config_storeNtB2_15FileConfigStore14global_routing
FNDA:80,_RNvMNtNtCs3oCotP8OZr6_5synod8adapters12config_storeNtB2_15FileConfigStore17local_config_path
FNDA:42,_RNvMNtNtCs3oCotP8OZr6_5synod8adapters12config_storeNtB2_15FileConfigStore18global_config_path
FNDA:2,_RNvNtNtCs3oCotP8OZr6_5synod8adapters12config_store12save_to_path
FNDA:120,_RNvNtNtCs3oCotP8OZr6_5synod8adapters12config_store14load_from_path
FNF:22
FNH:14
DA:17,79
DA:18,79
DA:19,79
DA:21,80
DA:22,80
DA:23,80
DA:25,42
DA:26,42
DA:27,0
DA:28,42
DA:30,42
DA:31,42
DA:32,42
DA:34,78
DA:35,78
DA:36,78
DA:38,2
DA:39,2
DA:40,2
DA:42,42
DA:43,42
DA:44,42
DA:46,0
DA:47,0
DA:48,0
DA:50,73
DA:51,73
DA:52,73
DA:54,42
DA:55,42
DA:56,42
DA:59,120
DA:60,120
DA:61,119
DA:62,1
DA:64,1
DA:65,1
DA:67,1
DA:68,1
DA:70,1
DA:71,0
DA:72,0
DA:73,0
DA:75,1
DA:76,120
DA:78,2
DA:79,2
DA:80,1
DA:81,1
DA:82,1
DA:84,1
DA:85,1
DA:87,1
DA:88,1
DA:89,1
DA:90,0
DA:92,1
DA:93,1
DA:95,1
DA:96,2
DA:122,1
DA:123,1
DA:124,1
DA:126,1
DA:127,1
DA:128,1
DA:129,1
DA:131,1
DA:132,1
DA:134,1
DA:135,1
DA:136,1
DA:139,1
DA:140,1
DA:141,1
DA:142,1
DA:143,1
DA:144,1
DA:145,1
DA:148,1
DA:149,1
DA:150,1
DA:151,1
DA:153,1
DA:154,1
DA:155,1
DA:156,1
DA:157,1
DA:158,1
DA:159,1
DA:160,1
DA:162,1
DA:163,1
DA:164,1
BRF:0
BRH:0
LF:102
LH:87
end_of_record
SF:/Users/rt/workspace/synod/src/adapters/governance_runtime.rs
FN:210,_RNvMs_NtNtCs3oCotP8OZr6_5synod8adapters18governance_runtimeNtB4_15CanonCliRuntime17working_directory
FN:206,_RNvMs_NtNtCs3oCotP8OZr6_5synod8adapters18governance_runtimeNtB4_15CanonCliRuntime7command
FN:94,_RNvXNtNtCs3oCotP8OZr6_5synod8adapters18governance_runtimeNtB2_22LocalGovernanceRuntimeNtB2_17GovernanceRuntime4kind
FN:216,_RNvXs0_NtNtCs3oCotP8OZr6_5synod8adapters18governance_runtimeNtB5_15CanonCliRuntimeNtB5_17GovernanceRuntime4kind
FN:201,_RINvMs_NtNtCs3oCotP8OZr6_5synod8adapters18governance_runtimeNtB5_15CanonCliRuntime22with_working_directoryRNtNtCsg55jX0GwzBC_3std4path7PathBufEB9_
FN:197,_RINvMs_NtNtCs3oCotP8OZr6_5synod8adapters18governance_runtimeNtB5_15CanonCliRuntime3newNtNtCs1OjIl8oxbrv_5alloc6string6StringEB9_
FN:394,_RNCNCNvNtNtCs3oCotP8OZr6_5synod8adapters18governance_runtime24normalize_canon_response00B9_
FN:420,_RNCNCNvNtNtCs3oCotP8OZr6_5synod8adapters18governance_runtime24normalize_canon_response0s_0B9_
FN:118,_RNCNCNvXNtNtCs3oCotP8OZr6_5synod8adapters18governance_runtimeNtB6_22LocalGovernanceRuntimeNtB6_17GovernanceRuntime7execute00Ba_
FN:119,_RNCNCNvXNtNtCs3oCotP8OZr6_5synod8adapters18governance_runtimeNtB6_22LocalGovernanceRuntimeNtB6_17GovernanceRuntime7execute0s_0Ba_
FN:368,_RNCNvNtNtCs3oCotP8OZr6_5synod8adapters18governance_runtime22validate_canon_request0B7_
FN:392,_RNCNvNtNtCs3oCotP8OZr6_5synod8adapters18governance_runtime24normalize_canon_response0B7_
FN:427,_RNCNvNtNtCs3oCotP8OZr6_5synod8adapters18governance_runtime24normalize_canon_responses_0B7_
FN:114,_RNCNvXNtNtCs3oCotP8OZr6_5synod8adapters18governance_runtimeNtB4_22LocalGovernanceRuntimeNtB4_17GovernanceRuntime7execute0B8_
FN:144,_RNCNvXNtNtCs3oCotP8OZr6_5synod8adapters18governance_runtimeNtB4_22LocalGovernanceRuntimeNtB4_17GovernanceRuntime7executes0_0B8_
FN:145,_RNCNvXNtNtCs3oCotP8OZr6_5synod8adapters18governance_runtimeNtB4_22LocalGovernanceRuntimeNtB4_17GovernanceRuntime7executes1_0B8_
FN:148,_RNCNvXNtNtCs3oCotP8OZr6_5synod8adapters18governance_runtimeNtB4_22LocalGovernanceRuntimeNtB4_17GovernanceRuntime7executes2_0B8_
FN:155,_RNCNvXNtNtCs3oCotP8OZr6_5synod8adapters18governance_runtimeNtB4_22LocalGovernanceRuntimeNtB4_17GovernanceRuntime7executes3_0B8_
FN:135,_RNCNvXNtNtCs3oCotP8OZr6_5synod8adapters18governance_runtimeNtB4_22LocalGovernanceRuntimeNtB4_17GovernanceRuntime7executes_0B8_
FN:241,_RNCNvXs0_NtNtCs3oCotP8OZr6_5synod8adapters18governance_runtimeNtB7_15CanonCliRuntimeNtB7_17GovernanceRuntime7execute0Bb_
FN:334,_RNvNtNtCs3oCotP8OZr6_5synod8adapters18governance_runtime17request_kind_text
FN:376,_RNvNtNtCs3oCotP8OZr6_5synod8adapters18governance_runtime20parse_canon_response
FN:452,_RNvNtNtCs3oCotP8OZr6_5synod8adapters18governance_runtime21failed_canon_response
FN:442,_RNvNtNtCs3oCotP8OZr6_5synod8adapters18governance_runtime22blocked_canon_response
FN:341,_RNvNtNtCs3oCotP8OZr6_5synod8adapters18governance_runtime22default_approval_state
FN:349,_RNvNtNtCs3oCotP8OZr6_5synod8adapters18governance_runtime22validate_canon_request
FN:345,_RNvNtNtCs3oCotP8OZr6_5synod8adapters18governance_runtime24default_packet_readiness
FN:388,_RNvNtNtCs3oCotP8OZr6_5synod8adapters18governance_runtime24normalize_canon_response
FN:98,_RNvXNtNtCs3oCotP8OZr6_5synod8adapters18governance_runtimeNtB2_22LocalGovernanceRuntimeNtB2_17GovernanceRuntime7execute
FN:220,_RNvXs0_NtNtCs3oCotP8OZr6_5synod8adapters18governance_runtimeNtB5_15CanonCliRuntimeNtB5_17GovernanceRuntime7execute
FNDA:0,_RNvMs_NtNtCs3oCotP8OZr6_5synod8adapters18governance_runtimeNtB4_15CanonCliRuntime17working_directory
FNDA:0,_RNvMs_NtNtCs3oCotP8OZr6_5synod8adapters18governance_runtimeNtB4_15CanonCliRuntime7command
FNDA:0,_RNvXNtNtCs3oCotP8OZr6_5synod8adapters18governance_runtimeNtB2_22LocalGovernanceRuntimeNtB2_17GovernanceRuntime4kind
FNDA:0,_RNvXs0_NtNtCs3oCotP8OZr6_5synod8adapters18governance_runtimeNtB5_15CanonCliRuntimeNtB5_17GovernanceRuntime4kind
FNDA:1,_RINvMs_NtNtCs3oCotP8OZr6_5synod8adapters18governance_runtimeNtB5_15CanonCliRuntime22with_working_directoryRNtNtCsg55jX0GwzBC_3std4path7PathBufEB9_
FNDA:1,_RINvMs_NtNtCs3oCotP8OZr6_5synod8adapters18governance_runtimeNtB5_15CanonCliRuntime3newNtNtCs1OjIl8oxbrv_5alloc6string6StringEB9_
FNDA:0,_RNCNCNvNtNtCs3oCotP8OZr6_5synod8adapters18governance_runtime24normalize_canon_response00B9_
FNDA:0,_RNCNCNvNtNtCs3oCotP8OZr6_5synod8adapters18governance_runtime24normalize_canon_response0s_0B9_
FNDA:0,_RNCNCNvXNtNtCs3oCotP8OZr6_5synod8adapters18governance_runtimeNtB6_22LocalGovernanceRuntimeNtB6_17GovernanceRuntime7execute00Ba_
FNDA:0,_RNCNCNvXNtNtCs3oCotP8OZr6_5synod8adapters18governance_runtimeNtB6_22LocalGovernanceRuntimeNtB6_17GovernanceRuntime7execute0s_0Ba_
FNDA:0,_RNCNvNtNtCs3oCotP8OZr6_5synod8adapters18governance_runtime22validate_canon_request0B7_
FNDA:1,_RNCNvNtNtCs3oCotP8OZr6_5synod8adapters18governance_runtime24normalize_canon_response0B7_
FNDA:1,_RNCNvNtNtCs3oCotP8OZr6_5synod8adapters18governance_runtime24normalize_canon_responses_0B7_
FNDA:2,_RNCNvXNtNtCs3oCotP8OZr6_5synod8adapters18governance_runtimeNtB4_22LocalGovernanceRuntimeNtB4_17GovernanceRuntime7execute0B8_
FNDA:2,_RNCNvXNtNtCs3oCotP8OZr6_5synod8adapters18governance_runtimeNtB4_22LocalGovernanceRuntimeNtB4_17GovernanceRuntime7executes0_0B8_
FNDA:0,_RNCNvXNtNtCs3oCotP8OZr6_5synod8adapters18governance_runtimeNtB4_22LocalGovernanceRuntimeNtB4_17GovernanceRuntime7executes1_0B8_
FNDA:2,_RNCNvXNtNtCs3oCotP8OZr6_5synod8adapters18governance_runtimeNtB4_22LocalGovernanceRuntimeNtB4_17GovernanceRuntime7executes2_0B8_
FNDA:0,_RNCNvXNtNtCs3oCotP8OZr6_5synod8adapters18governance_runtimeNtB4_22LocalGovernanceRuntimeNtB4_17GovernanceRuntime7executes3_0B8_
FNDA:2,_RNCNvXNtNtCs3oCotP8OZr6_5synod8adapters18governance_runtimeNtB4_22LocalGovernanceRuntimeNtB4_17GovernanceRuntime7executes_0B8_
FNDA:0,_RNCNvXs0_NtNtCs3oCotP8OZr6_5synod8adapters18governance_runtimeNtB7_15CanonCliRuntimeNtB7_17GovernanceRuntime7execute0Bb_
FNDA:1,_RNvNtNtCs3oCotP8OZr6_5synod8adapters18governance_runtime17request_kind_text
FNDA:1,_RNvNtNtCs3oCotP8OZr6_5synod8adapters18governance_runtime20parse_canon_response
FNDA:0,_RNvNtNtCs3oCotP8OZr6_5synod8adapters18governance_runtime21failed_canon_response
FNDA:0,_RNvNtNtCs3oCotP8OZr6_5synod8adapters18governance_runtime22blocked_canon_response
FNDA:0,_RNvNtNtCs3oCotP8OZr6_5synod8adapters18governance_runtime22default_approval_state
FNDA:1,_RNvNtNtCs3oCotP8OZr6_5synod8adapters18governance_runtime22validate_canon_request
FNDA:0,_RNvNtNtCs3oCotP8OZr6_5synod8adapters18governance_runtime24default_packet_readiness
FNDA:1,_RNvNtNtCs3oCotP8OZr6_5synod8adapters18governance_runtime24normalize_canon_response
FNDA:2,_RNvXNtNtCs3oCotP8OZr6_5synod8adapters18governance_runtimeNtB2_22LocalGovernanceRuntimeNtB2_17GovernanceRuntime7execute
FNDA:1,_RNvXs0_NtNtCs3oCotP8OZr6_5synod8adapters18governance_runtimeNtB5_15CanonCliRuntimeNtB5_17GovernanceRuntime7execute
FNF:30
FNH:14
DA:94,0
DA:95,0
DA:96,0
DA:98,2
DA:99,2
DA:100,2
DA:101,2
DA:102,2
DA:103,0
DA:104,0
DA:105,0
DA:106,2
DA:108,2
DA:109,0
DA:110,0
DA:111,0
DA:112,2
DA:114,2
DA:115,2
DA:116,2
DA:117,2
DA:118,2
DA:119,2
DA:120,2
DA:122,2
DA:123,0
DA:124,0
DA:125,0
DA:126,0
DA:127,0
DA:128,0
DA:129,0
DA:130,0
DA:131,0
DA:132,0
DA:133,2
DA:135,2
DA:136,2
DA:138,2
DA:141,2
DA:143,2
DA:144,2
DA:145,0
DA:147,2
DA:148,2
DA:149,2
DA:150,0
DA:152,2
DA:154,2
DA:155,0
DA:157,2
DA:158,0
DA:160,2
DA:163,2
DA:164,2
DA:165,2
DA:166,2
DA:167,2
DA:168,2
DA:169,2
DA:170,2
DA:171,2
DA:172,2
DA:174,2
DA:175,2
DA:177,0
DA:180,2
DA:181,2
DA:182,2
DA:183,2
DA:184,2
DA:185,2
DA:186,2
DA:187,2
DA:197,1
DA:198,1
DA:199,1
DA:201,1
DA:202,1
DA:203,1
DA:204,1
DA:206,0
DA:207,0
DA:208,0
DA:210,0
DA:211,0
DA:212,0
DA:216,0
DA:217,0
DA:218,0
DA:220,1
DA:221,1
DA:222,1
DA:223,1
DA:224,1
DA:225,0
DA:226,0
DA:227,0
DA:228,1
DA:230,1
DA:231,0
DA:232,0
DA:233,0
DA:234,1
DA:236,1
DA:237,0
DA:238,1
DA:240,1
DA:241,1
DA:243,1
DA:244,1
DA:245,1
DA:246,1
DA:247,1
DA:248,1
DA:249,1
DA:250,1
DA:252,1
DA:253,1
DA:254,1
DA:255,0
DA:256,0
DA:258,1
DA:259,1
DA:260,0
DA:261,0
DA:262,0
DA:263,0
DA:264,0
DA:268,1
DA:269,1
DA:271,0
DA:272,0
DA:273,0
DA:274,0
DA:275,0
DA:276,1
DA:278,1
DA:279,1
DA:280,0
DA:281,0
DA:282,0
DA:283,0
DA:284,0
DA:288,1
DA:289,1
DA:290,0
DA:292,0
DA:293,0
DA:294,0
DA:296,0
DA:297,0
DA:300,0
DA:303,0
DA:306,0
DA:309,1
DA:334,1
DA:335,1
DA:336,1
DA:337,0
DA:339,1
DA:341,0
DA:342,0
DA:343,0
DA:345,0
DA:346,0
DA:347,0
DA:349,1
DA:350,1
DA:351,0
DA:352,1
DA:353,0
DA:354,1
DA:355,0
DA:356,1
DA:357,0
DA:358,1
DA:359,0
DA:360,1
DA:361,0
DA:363,0
DA:365,1
DA:368,1
DA:369,0
DA:373,0
DA:374,1
DA:376,1
DA:377,1
DA:378,1
DA:379,1
DA:380,1
DA:381,0
DA:382,1
DA:384,1
DA:385,1
DA:386,1
DA:388,1
DA:389,1
DA:390,1
DA:391,1
DA:392,1
DA:393,1
DA:394,0
DA:396,1
DA:398,1
DA:399,1
DA:400,1
DA:401,1
DA:402,1
DA:404,1
DA:405,1
DA:406,1
DA:407,1
DA:408,1
DA:409,1
DA:413,1
DA:414,1
DA:415,1
DA:416,1
DA:417,1
DA:418,1
DA:419,1
DA:420,1
DA:422,1
DA:424,1
DA:425,1
DA:426,1
DA:427,1
DA:428,0
DA:429,0
DA:430,0
DA:431,1
DA:433,1
DA:434,1
DA:435,1
DA:436,1
DA:437,1
DA:438,1
DA:439,1
DA:440,1
DA:442,0
DA:443,0
DA:444,0
DA:445,0
DA:446,0
DA:447,0
DA:448,0
DA:449,0
DA:450,0
DA:452,0
DA:453,0
DA:454,0
DA:455,0
DA:456,0
DA:457,0
DA:458,0
DA:459,0
DA:460,0
BRF:0
BRH:0
LF:268
LH:157
end_of_record
SF:/Users/rt/workspace/synod/src/adapters/session_store.rs
FN:28,_RNvMNtNtCs3oCotP8OZr6_5synod8adapters13session_storeNtB2_16FileSessionStore4path
FN:46,_RNvXs_NtNtCs3oCotP8OZr6_5synod8adapters13session_storeNtB4_16FileSessionStoreNtB4_12SessionStore4load
FN:34,_RNvXs_NtNtCs3oCotP8OZr6_5synod8adapters13session_storeNtB4_16FileSessionStoreNtB4_12SessionStore7persist
FN:58,_RNvXs_NtNtCs3oCotP8OZr6_5synod8adapters13session_storeNtB4_16FileSessionStoreNtB4_12SessionStore5clear
FN:24,_RINvMNtNtCs3oCotP8OZr6_5synod8adapters13session_storeNtB3_16FileSessionStore13for_workspaceRNtNtCsg55jX0GwzBC_3std4path4PathEB7_
FN:24,_RINvMNtNtCs3oCotP8OZr6_5synod8adapters13session_storeNtB3_16FileSessionStore13for_workspaceRNtNtCsg55jX0GwzBC_3std4path7PathBufEB7_
FN:20,_RINvMNtNtCs3oCotP8OZr6_5synod8adapters13session_storeNtB3_16FileSessionStore3newNtNtCsg55jX0GwzBC_3std4path7PathBufEB7_
FN:54,_RNCNvXs_NtNtCs3oCotP8OZr6_5synod8adapters13session_storeNtB6_16FileSessionStoreNtB6_12SessionStore4load0Ba_
FN:35,_RNCNvXs_NtNtCs3oCotP8OZr6_5synod8adapters13session_storeNtB6_16FileSessionStoreNtB6_12SessionStore7persist0Ba_
FNDA:1,_RNvMNtNtCs3oCotP8OZr6_5synod8adapters13session_storeNtB2_16FileSessionStore4path
FNDA:43,_RNvXs_NtNtCs3oCotP8OZr6_5synod8adapters13session_storeNtB4_16FileSessionStoreNtB4_12SessionStore4load
FNDA:27,_RNvXs_NtNtCs3oCotP8OZr6_5synod8adapters13session_storeNtB4_16FileSessionStoreNtB4_12SessionStore7persist
FNDA:0,_RNvXs_NtNtCs3oCotP8OZr6_5synod8adapters13session_storeNtB4_16FileSessionStoreNtB4_12SessionStore5clear
FNDA:34,_RINvMNtNtCs3oCotP8OZr6_5synod8adapters13session_storeNtB3_16FileSessionStore13for_workspaceRNtNtCsg55jX0GwzBC_3std4path4PathEB7_
FNDA:56,_RINvMNtNtCs3oCotP8OZr6_5synod8adapters13session_storeNtB3_16FileSessionStore13for_workspaceRNtNtCsg55jX0GwzBC_3std4path7PathBufEB7_
FNDA:90,_RINvMNtNtCs3oCotP8OZr6_5synod8adapters13session_storeNtB3_16FileSessionStore3newNtNtCsg55jX0GwzBC_3std4path7PathBufEB7_
FNDA:1,_RNCNvXs_NtNtCs3oCotP8OZr6_5synod8adapters13session_storeNtB6_16FileSessionStoreNtB6_12SessionStore4load0Ba_
FNDA:0,_RNCNvXs_NtNtCs3oCotP8OZr6_5synod8adapters13session_storeNtB6_16FileSessionStoreNtB6_12SessionStore7persist0Ba_
FNF:8
FNH:6
DA:20,90
DA:21,90
DA:22,90
DA:24,90
DA:25,90
DA:26,90
DA:28,1
DA:29,1
DA:30,1
DA:34,27
DA:35,27
DA:37,27
DA:38,27
DA:39,0
DA:41,27
DA:42,27
DA:43,27
DA:44,27
DA:46,43
DA:47,43
DA:48,9
DA:49,34
DA:51,34
DA:52,34
DA:53,34
DA:54,34
DA:55,33
DA:56,43
DA:58,0
DA:59,0
DA:60,0
DA:61,0
DA:63,0
DA:64,0
BRF:0
BRH:0
LF:36
LH:28
end_of_record
SF:/Users/rt/workspace/synod/src/adapters/tool.rs
FN:22,_RNvMNtNtCs3oCotP8OZr6_5synod8adapters4toolINtB2_13FnToolAdapterNCNvMNtNtB6_12orchestrator15session_runtimeNtB14_14SessionRuntime25native_adapter_registriess2_0E3newB6_
FN:22,_RNvMNtNtCs3oCotP8OZr6_5synod8adapters4toolINtB2_13FnToolAdapterNCNvNtB6_7fixture30build_fixture_runtime_for_flows3_0E3newB6_
FN:22,_RNvMNtNtCs3oCotP8OZr6_5synod8adapters4toolINtB2_13FnToolAdapterNCNvNtB6_7fixture30build_fixture_runtime_for_flows4_0E3newB6_
FN:22,_RNvMNtNtCs3oCotP8OZr6_5synod8adapters4toolINtB2_13FnToolAdapterNCNvNtB6_7fixture30build_fixture_runtime_for_flows5_0E3newB6_
FN:22,_RNvMNtNtCs3oCotP8OZr6_5synod8adapters4toolINtB2_13FnToolAdapterNCNvNtNtNtB6_12orchestrator6engine5testss_59execute_step_dispatches_registered_agent_and_tool_endpointss_0E3newB6_
FN:22,_RNvMNtNtCs3oCotP8OZr6_5synod8adapters4toolINtB2_13FnToolAdapterNvNtNtB6_12orchestrator15session_runtime18native_replan_stepE3newB6_
FN:31,_RNvXs_NtNtCs3oCotP8OZr6_5synod8adapters4toolINtB4_13FnToolAdapterNCNvMNtNtB8_12orchestrator15session_runtimeNtB16_14SessionRuntime25native_adapter_registriess2_0ENtB4_11ToolAdapter7executeB8_
FN:31,_RNvXs_NtNtCs3oCotP8OZr6_5synod8adapters4toolINtB4_13FnToolAdapterNCNvNtB8_7fixture30build_fixture_runtime_for_flows3_0ENtB4_11ToolAdapter7executeB8_
FN:31,_RNvXs_NtNtCs3oCotP8OZr6_5synod8adapters4toolINtB4_13FnToolAdapterNCNvNtB8_7fixture30build_fixture_runtime_for_flows4_0ENtB4_11ToolAdapter7executeB8_
FN:31,_RNvXs_NtNtCs3oCotP8OZr6_5synod8adapters4toolINtB4_13FnToolAdapterNCNvNtB8_7fixture30build_fixture_runtime_for_flows5_0ENtB4_11ToolAdapter7executeB8_
FN:31,_RNvXs_NtNtCs3oCotP8OZr6_5synod8adapters4toolINtB4_13FnToolAdapterNCNvNtNtNtB8_12orchestrator6engine5testss_59execute_step_dispatches_registered_agent_and_tool_endpointss_0ENtB4_11ToolAdapter7executeB8_
FN:31,_RNvXs_NtNtCs3oCotP8OZr6_5synod8adapters4toolINtB4_13FnToolAdapterNvNtNtB8_12orchestrator15session_runtime18native_replan_stepENtB4_11ToolAdapter7executeB8_
FNDA:4,_RNvMNtNtCs3oCotP8OZr6_5synod8adapters4toolINtB2_13FnToolAdapterNCNvMNtNtB6_12orchestrator15session_runtimeNtB14_14SessionRuntime25native_adapter_registriess2_0E3newB6_
FNDA:28,_RNvMNtNtCs3oCotP8OZr6_5synod8adapters4toolINtB2_13FnToolAdapterNCNvNtB6_7fixture30build_fixture_runtime_for_flows3_0E3newB6_
FNDA:28,_RNvMNtNtCs3oCotP8OZr6_5synod8adapters4toolINtB2_13FnToolAdapterNCNvNtB6_7fixture30build_fixture_runtime_for_flows4_0E3newB6_
FNDA:28,_RNvMNtNtCs3oCotP8OZr6_5synod8adapters4toolINtB2_13FnToolAdapterNCNvNtB6_7fixture30build_fixture_runtime_for_flows5_0E3newB6_
FNDA:1,_RNvMNtNtCs3oCotP8OZr6_5synod8adapters4toolINtB2_13FnToolAdapterNCNvNtNtNtB6_12orchestrator6engine5testss_59execute_step_dispatches_registered_agent_and_tool_endpointss_0E3newB6_
FNDA:4,_RNvMNtNtCs3oCotP8OZr6_5synod8adapters4toolINtB2_13FnToolAdapterNvNtNtB6_12orchestrator15session_runtime18native_replan_stepE3newB6_
FNDA:4,_RNvXs_NtNtCs3oCotP8OZr6_5synod8adapters4toolINtB4_13FnToolAdapterNCNvMNtNtB8_12orchestrator15session_runtimeNtB16_14SessionRuntime25native_adapter_registriess2_0ENtB4_11ToolAdapter7executeB8_
FNDA:4,_RNvXs_NtNtCs3oCotP8OZr6_5synod8adapters4toolINtB4_13FnToolAdapterNCNvNtB8_7fixture30build_fixture_runtime_for_flows3_0ENtB4_11ToolAdapter7executeB8_
FNDA:1,_RNvXs_NtNtCs3oCotP8OZr6_5synod8adapters4toolINtB4_13FnToolAdapterNCNvNtB8_7fixture30build_fixture_runtime_for_flows4_0ENtB4_11ToolAdapter7executeB8_
FNDA:1,_RNvXs_NtNtCs3oCotP8OZr6_5synod8adapters4toolINtB4_13FnToolAdapterNCNvNtB8_7fixture30build_fixture_runtime_for_flows5_0ENtB4_11ToolAdapter7executeB8_
FNDA:1,_RNvXs_NtNtCs3oCotP8OZr6_5synod8adapters4toolINtB4_13FnToolAdapterNCNvNtNtNtB8_12orchestrator6engine5testss_59execute_step_dispatches_registered_agent_and_tool_endpointss_0ENtB4_11ToolAdapter7executeB8_
FNDA:0,_RNvXs_NtNtCs3oCotP8OZr6_5synod8adapters4toolINtB4_13FnToolAdapterNvNtNtB8_12orchestrator15session_runtime18native_replan_stepENtB4_11ToolAdapter7executeB8_
FNF:2
FNH:2
DA:22,93
DA:23,93
DA:24,93
DA:31,11
DA:32,11
DA:33,11
BRF:0
BRH:0
LF:6
LH:6
end_of_record
SF:/Users/rt/workspace/synod/src/adapters/trace_store.rs
FN:28,_RNvMNtNtCs3oCotP8OZr6_5synod8adapters11trace_storeNtB2_14FileTraceStore4root
FN:42,_RNvXs_NtNtCs3oCotP8OZr6_5synod8adapters11trace_storeNtB4_14FileTraceStoreNtB4_10TraceStore4load
FN:47,_RNvXs_NtNtCs3oCotP8OZr6_5synod8adapters11trace_storeNtB4_14FileTraceStoreNtB4_10TraceStore6latest
FN:34,_RNvXs_NtNtCs3oCotP8OZr6_5synod8adapters11trace_storeNtB4_14FileTraceStoreNtB4_10TraceStore7persist
FN:118,_RNvNtNtNtCs3oCotP8OZr6_5synod8adapters11trace_store5tests11build_trace
FN:112,_RNvNtNtNtCs3oCotP8OZr6_5synod8adapters11trace_store5tests14temp_workspace
FN:131,_RNvNtNtNtCs3oCotP8OZr6_5synod8adapters11trace_store5testss_34load_round_trips_a_persisted_trace
FN:146,_RNvNtNtNtCs3oCotP8OZr6_5synod8adapters11trace_store5testss_41latest_returns_the_most_recent_trace_path
FN:160,_RNvNtNtNtCs3oCotP8OZr6_5synod8adapters11trace_store5testss_55latest_returns_none_when_the_trace_directory_is_missing
FN:24,_RINvMNtNtCs3oCotP8OZr6_5synod8adapters11trace_storeNtB3_14FileTraceStore13for_workspaceRNtNtCsg55jX0GwzBC_3std4path4PathEB7_
FN:24,_RINvMNtNtCs3oCotP8OZr6_5synod8adapters11trace_storeNtB3_14FileTraceStore13for_workspaceRNtNtCsg55jX0GwzBC_3std4path7PathBufEB7_
FN:20,_RINvMNtNtCs3oCotP8OZr6_5synod8adapters11trace_storeNtB3_14FileTraceStore3newNtNtCsg55jX0GwzBC_3std4path7PathBufEB7_
FN:20,_RINvMNtNtCs3oCotP8OZr6_5synod8adapters11trace_storeNtB3_14FileTraceStore3newRNtNtCsg55jX0GwzBC_3std4path4PathEB7_
FN:58,_RNCNvXs_NtNtCs3oCotP8OZr6_5synod8adapters11trace_storeNtB6_14FileTraceStoreNtB6_10TraceStore6latest0Ba_
FN:65,_RNCNvXs_NtNtCs3oCotP8OZr6_5synod8adapters11trace_storeNtB6_14FileTraceStoreNtB6_10TraceStore6latests_0Ba_
FNDA:6,_RNvMNtNtCs3oCotP8OZr6_5synod8adapters11trace_storeNtB2_14FileTraceStore4root
FNDA:40,_RNvXs_NtNtCs3oCotP8OZr6_5synod8adapters11trace_storeNtB4_14FileTraceStoreNtB4_10TraceStore4load
FNDA:13,_RNvXs_NtNtCs3oCotP8OZr6_5synod8adapters11trace_storeNtB4_14FileTraceStoreNtB4_10TraceStore6latest
FNDA:145,_RNvXs_NtNtCs3oCotP8OZr6_5synod8adapters11trace_storeNtB4_14FileTraceStoreNtB4_10TraceStore7persist
FNDA:3,_RNvNtNtNtCs3oCotP8OZr6_5synod8adapters11trace_store5tests11build_trace
FNDA:3,_RNvNtNtNtCs3oCotP8OZr6_5synod8adapters11trace_store5tests14temp_workspace
FNDA:1,_RNvNtNtNtCs3oCotP8OZr6_5synod8adapters11trace_store5testss_34load_round_trips_a_persisted_trace
FNDA:1,_RNvNtNtNtCs3oCotP8OZr6_5synod8adapters11trace_store5testss_41latest_returns_the_most_recent_trace_path
FNDA:1,_RNvNtNtNtCs3oCotP8OZr6_5synod8adapters11trace_store5testss_55latest_returns_none_when_the_trace_directory_is_missing
FNDA:98,_RINvMNtNtCs3oCotP8OZr6_5synod8adapters11trace_storeNtB3_14FileTraceStore13for_workspaceRNtNtCsg55jX0GwzBC_3std4path4PathEB7_
FNDA:54,_RINvMNtNtCs3oCotP8OZr6_5synod8adapters11trace_storeNtB3_14FileTraceStore13for_workspaceRNtNtCsg55jX0GwzBC_3std4path7PathBufEB7_
FNDA:153,_RINvMNtNtCs3oCotP8OZr6_5synod8adapters11trace_storeNtB3_14FileTraceStore3newNtNtCsg55jX0GwzBC_3std4path7PathBufEB7_
FNDA:2,_RINvMNtNtCs3oCotP8OZr6_5synod8adapters11trace_storeNtB3_14FileTraceStore3newRNtNtCsg55jX0GwzBC_3std4path4PathEB7_
FNDA:11,_RNCNvXs_NtNtCs3oCotP8OZr6_5synod8adapters11trace_storeNtB6_14FileTraceStoreNtB6_10TraceStore6latest0Ba_
FNDA:11,_RNCNvXs_NtNtCs3oCotP8OZr6_5synod8adapters11trace_storeNtB6_14FileTraceStoreNtB6_10TraceStore6latests_0Ba_
FNF:13
FNH:13
DA:20,155
DA:21,155
DA:22,155
DA:24,152
DA:25,152
DA:26,152
DA:28,6
DA:29,6
DA:30,6
DA:34,145
DA:35,145
DA:36,145
DA:37,145
DA:38,145
DA:39,145
DA:40,145
DA:42,40
DA:43,40
DA:44,40
DA:45,40
DA:47,13
DA:48,13
DA:49,4
DA:50,9
DA:52,9
DA:53,11
DA:54,11
DA:55,11
DA:57,11
DA:58,11
DA:60,0
DA:61,11
DA:63,11
DA:64,11
DA:65,11
DA:67,11
DA:68,2
DA:69,2
DA:71,9
DA:74,11
DA:75,11
DA:76,11
DA:79,9
DA:80,13
DA:112,3
DA:113,3
DA:114,3
DA:115,3
DA:116,3
DA:118,3
DA:119,3
DA:120,3
DA:121,3
DA:122,3
DA:123,3
DA:124,3
DA:126,3
DA:127,3
DA:128,3
DA:131,1
DA:132,1
DA:133,1
DA:134,1
DA:136,1
DA:137,1
DA:139,1
DA:140,1
DA:141,1
DA:142,1
DA:143,1
DA:146,1
DA:147,1
DA:148,1
DA:149,1
DA:150,1
DA:152,1
DA:153,1
DA:155,1
DA:156,1
DA:157,1
DA:160,1
DA:161,1
DA:162,1
DA:163,1
DA:165,1
DA:167,1
DA:168,1
BRF:0
BRH:0
LF:89
LH:88
end_of_record
SF:/Users/rt/workspace/synod/src/cli.rs
FN:346,_RNCNvMs1_NtCs3oCotP8OZr6_5synod3cliNtB7_23DeveloperCommandSession12from_command0B9_
FN:381,_RNCNvMs1_NtCs3oCotP8OZr6_5synod3cliNtB7_23DeveloperCommandSession12from_commands0_0B9_
FN:394,_RNCNvMs1_NtCs3oCotP8OZr6_5synod3cliNtB7_23DeveloperCommandSession12from_commands1_0B9_
FN:407,_RNCNvMs1_NtCs3oCotP8OZr6_5synod3cliNtB7_23DeveloperCommandSession12from_commands2_0B9_
FN:432,_RNCNvMs1_NtCs3oCotP8OZr6_5synod3cliNtB7_23DeveloperCommandSession12from_commands3_0B9_
FN:448,_RNCNvMs1_NtCs3oCotP8OZr6_5synod3cliNtB7_23DeveloperCommandSession12from_commands4_0B9_
FN:469,_RNCNvMs1_NtCs3oCotP8OZr6_5synod3cliNtB7_23DeveloperCommandSession12from_commands5_0B9_
FN:471,_RNCNvMs1_NtCs3oCotP8OZr6_5synod3cliNtB7_23DeveloperCommandSession12from_commands6_0B9_
FN:482,_RNCNvMs1_NtCs3oCotP8OZr6_5synod3cliNtB7_23DeveloperCommandSession12from_commands7_0B9_
FN:495,_RNCNvMs1_NtCs3oCotP8OZr6_5synod3cliNtB7_23DeveloperCommandSession12from_commands8_0B9_
FN:521,_RNCNvMs1_NtCs3oCotP8OZr6_5synod3cliNtB7_23DeveloperCommandSession12from_commands9_0B9_
FN:368,_RNCNvMs1_NtCs3oCotP8OZr6_5synod3cliNtB7_23DeveloperCommandSession12from_commands_0B9_
FN:329,_RNvMs1_NtCs3oCotP8OZr6_5synod3cliNtB5_23DeveloperCommandSession12from_command
FN:609,_RNvMs1_NtCs3oCotP8OZr6_5synod3cliNtB5_23DeveloperCommandSession8complete
FN:549,_RNvMs1_NtCs3oCotP8OZr6_5synod3cliNtB5_23DeveloperCommandSession8validate
FN:639,_RNvNtCs3oCotP8OZr6_5synod3cli7execute
FN:47,_RNvMNtCs3oCotP8OZr6_5synod3cliNtB2_11CommandName6as_str
FN:296,_RNvMs0_NtCs3oCotP8OZr6_5synod3cliNtB5_16DeveloperCommand4name
FN:658,_RNvNtCs3oCotP8OZr6_5synod3cli8dispatch
FN:68,_RNvXs_NtCs3oCotP8OZr6_5synod3cliNtB4_11CommandNameNtNtCsl8K0bEFm1U0_4core3fmt7Display3fmt
FN:1117,_RNvNtNtCs3oCotP8OZr6_5synod3cli5tests14temp_workspace
FN:1123,_RNvNtNtCs3oCotP8OZr6_5synod3cli5tests25write_execution_workspace
FN:1162,_RNvNtNtCs3oCotP8OZr6_5synod3cli5testss_35dispatch_covers_session_error_paths
FN:1207,_RNvNtNtCs3oCotP8OZr6_5synod3cli5testss_67dispatch_covers_successful_custom_run_session_run_and_inspect_paths
FNDA:0,_RNCNvMs1_NtCs3oCotP8OZr6_5synod3cliNtB7_23DeveloperCommandSession12from_command0B9_
FNDA:0,_RNCNvMs1_NtCs3oCotP8OZr6_5synod3cliNtB7_23DeveloperCommandSession12from_commands0_0B9_
FNDA:0,_RNCNvMs1_NtCs3oCotP8OZr6_5synod3cliNtB7_23DeveloperCommandSession12from_commands1_0B9_
FNDA:0,_RNCNvMs1_NtCs3oCotP8OZr6_5synod3cliNtB7_23DeveloperCommandSession12from_commands2_0B9_
FNDA:0,_RNCNvMs1_NtCs3oCotP8OZr6_5synod3cliNtB7_23DeveloperCommandSession12from_commands3_0B9_
FNDA:0,_RNCNvMs1_NtCs3oCotP8OZr6_5synod3cliNtB7_23DeveloperCommandSession12from_commands4_0B9_
FNDA:0,_RNCNvMs1_NtCs3oCotP8OZr6_5synod3cliNtB7_23DeveloperCommandSession12from_commands5_0B9_
FNDA:0,_RNCNvMs1_NtCs3oCotP8OZr6_5synod3cliNtB7_23DeveloperCommandSession12from_commands6_0B9_
FNDA:0,_RNCNvMs1_NtCs3oCotP8OZr6_5synod3cliNtB7_23DeveloperCommandSession12from_commands7_0B9_
FNDA:0,_RNCNvMs1_NtCs3oCotP8OZr6_5synod3cliNtB7_23DeveloperCommandSession12from_commands8_0B9_
FNDA:0,_RNCNvMs1_NtCs3oCotP8OZr6_5synod3cliNtB7_23DeveloperCommandSession12from_commands9_0B9_
FNDA:0,_RNCNvMs1_NtCs3oCotP8OZr6_5synod3cliNtB7_23DeveloperCommandSession12from_commands_0B9_
FNDA:0,_RNvMs1_NtCs3oCotP8OZr6_5synod3cliNtB5_23DeveloperCommandSession12from_command
FNDA:0,_RNvMs1_NtCs3oCotP8OZr6_5synod3cliNtB5_23DeveloperCommandSession8complete
FNDA:0,_RNvMs1_NtCs3oCotP8OZr6_5synod3cliNtB5_23DeveloperCommandSession8validate
FNDA:0,_RNvNtCs3oCotP8OZr6_5synod3cli7execute
FNDA:6,_RNvMNtCs3oCotP8OZr6_5synod3cliNtB2_11CommandName6as_str
FNDA:6,_RNvMs0_NtCs3oCotP8OZr6_5synod3cliNtB5_16DeveloperCommand4name
FNDA:16,_RNvNtCs3oCotP8OZr6_5synod3cli8dispatch
FNDA:0,_RNvXs_NtCs3oCotP8OZr6_5synod3cliNtB4_11CommandNameNtNtCsl8K0bEFm1U0_4core3fmt7Display3fmt
FNDA:4,_RNvNtNtCs3oCotP8OZr6_5synod3cli5tests14temp_workspace
FNDA:2,_RNvNtNtCs3oCotP8OZr6_5synod3cli5tests25write_execution_workspace
FNDA:1,_RNvNtNtCs3oCotP8OZr6_5synod3cli5testss_35dispatch_covers_session_error_paths
FNDA:1,_RNvNtNtCs3oCotP8OZr6_5synod3cli5testss_67dispatch_covers_successful_custom_run_session_run_and_inspect_paths
FNF:24
FNH:7
DA:47,6
DA:48,6
DA:49,0
DA:50,0
DA:51,0
DA:52,0
DA:53,0
DA:54,1
DA:55,1
DA:56,1
DA:57,1
DA:58,1
DA:59,1
DA:60,0
DA:61,0
DA:62,0
DA:64,6
DA:68,0
DA:69,0
DA:70,0
DA:296,6
DA:297,6
DA:298,0
DA:299,0
DA:300,1
DA:301,1
DA:302,1
DA:303,1
DA:304,0
DA:305,0
DA:306,0
DA:307,1
DA:308,1
DA:309,0
DA:310,0
DA:311,0
DA:313,6
DA:329,0
DA:330,0
DA:331,0
DA:332,0
DA:333,0
DA:334,0
DA:335,0
DA:336,0
DA:337,0
DA:338,0
DA:339,0
DA:340,0
DA:341,0
DA:342,0
DA:343,0
DA:344,0
DA:345,0
DA:346,0
DA:347,0
DA:348,0
DA:349,0
DA:350,0
DA:351,0
DA:352,0
DA:355,0
DA:356,0
DA:357,0
DA:364,0
DA:365,0
DA:366,0
DA:367,0
DA:368,0
DA:369,0
DA:370,0
DA:371,0
DA:372,0
DA:373,0
DA:374,0
DA:376,0
DA:377,0
DA:378,0
DA:379,0
DA:380,0
DA:381,0
DA:382,0
DA:383,0
DA:384,0
DA:385,0
DA:386,0
DA:387,0
DA:389,0
DA:390,0
DA:391,0
DA:392,0
DA:393,0
DA:394,0
DA:395,0
DA:396,0
DA:397,0
DA:398,0
DA:399,0
DA:400,0
DA:402,0
DA:403,0
DA:404,0
DA:405,0
DA:406,0
DA:407,0
DA:408,0
DA:409,0
DA:410,0
DA:411,0
DA:412,0
DA:413,0
DA:416,0
DA:417,0
DA:418,0
DA:419,0
DA:420,0
DA:426,0
DA:427,0
DA:428,0
DA:430,0
DA:432,0
DA:433,0
DA:434,0
DA:435,0
DA:436,0
DA:437,0
DA:438,0
DA:440,0
DA:441,0
DA:442,0
DA:443,0
DA:444,0
DA:445,0
DA:446,0
DA:447,0
DA:448,0
DA:451,0
DA:452,0
DA:453,0
DA:456,0
DA:458,0
DA:459,0
DA:460,0
DA:461,0
DA:462,0
DA:464,0
DA:465,0
DA:466,0
DA:467,0
DA:468,0
DA:469,0
DA:470,0
DA:471,0
DA:472,0
DA:473,0
DA:474,0
DA:475,0
DA:477,0
DA:478,0
DA:479,0
DA:480,0
DA:481,0
DA:482,0
DA:483,0
DA:484,0
DA:485,0
DA:486,0
DA:487,0
DA:488,0
DA:490,0
DA:491,0
DA:492,0
DA:493,0
DA:494,0
DA:495,0
DA:496,0
DA:497,0
DA:498,0
DA:499,0
DA:500,0
DA:501,0
DA:503,0
DA:504,0
DA:505,0
DA:506,0
DA:507,0
DA:508,0
DA:509,0
DA:510,0
DA:511,0
DA:512,0
DA:513,0
DA:514,0
DA:515,0
DA:516,0
DA:517,0
DA:518,0
DA:519,0
DA:520,0
DA:521,0
DA:523,0
DA:524,0
DA:525,0
DA:526,0
DA:527,0
DA:528,0
DA:530,0
DA:531,0
DA:532,0
DA:533,0
DA:534,0
DA:535,0
DA:536,0
DA:539,0
DA:540,0
DA:541,0
DA:542,0
DA:543,0
DA:544,0
DA:547,0
DA:549,0
DA:550,0
DA:552,0
DA:553,0
DA:554,0
DA:555,0
DA:558,0
DA:559,0
DA:560,0
DA:561,0
DA:562,0
DA:563,0
DA:566,0
DA:567,0
DA:568,0
DA:569,0
DA:570,0
DA:571,0
DA:583,0
DA:586,0
DA:587,0
DA:588,0
DA:590,0
DA:591,0
DA:593,0
DA:594,0
DA:595,0
DA:597,0
DA:598,0
DA:600,0
DA:601,0
DA:603,0
DA:604,0
DA:606,0
DA:607,0
DA:609,0
DA:610,0
DA:611,0
DA:612,0
DA:613,0
DA:614,0
DA:615,0
DA:616,0
DA:617,0
DA:618,0
DA:639,0
DA:640,0
DA:641,0
DA:643,0
DA:644,0
DA:645,0
DA:646,0
DA:647,0
DA:650,0
DA:651,0
DA:652,0
DA:653,0
DA:656,0
DA:658,16
DA:659,16
DA:660,0
DA:661,0
DA:663,0
DA:664,0
DA:666,0
DA:668,0
DA:669,0
DA:673,3
DA:674,3
DA:675,3
DA:676,3
DA:677,3
DA:678,3
DA:679,3
DA:680,3
DA:681,3
DA:683,3
DA:684,3
DA:685,1
DA:686,1
DA:687,1
DA:688,1
DA:689,1
DA:690,3
DA:691,2
DA:692,0
DA:693,0
DA:694,0
DA:695,0
DA:696,0
DA:697,0
DA:698,0
DA:700,2
DA:701,0
DA:703,2
DA:705,2
DA:706,1
DA:707,1
DA:708,1
DA:709,1
DA:710,1
DA:711,1
DA:713,1
DA:714,0
DA:715,0
DA:716,0
DA:717,0
DA:718,0
DA:719,0
DA:720,0
DA:721,0
DA:724,1
DA:725,1
DA:726,1
DA:727,1
DA:728,1
DA:729,1
DA:730,1
DA:731,1
DA:735,1
DA:736,1
DA:737,1
DA:738,1
DA:739,1
DA:740,1
DA:741,0
DA:742,0
DA:743,0
DA:744,0
DA:745,0
DA:748,1
DA:749,1
DA:750,1
DA:751,1
DA:752,1
DA:753,1
DA:754,0
DA:755,0
DA:756,0
DA:757,0
DA:758,0
DA:762,0
DA:763,0
DA:764,0
DA:765,0
DA:766,0
DA:767,0
DA:768,0
DA:769,0
DA:770,0
DA:771,0
DA:772,0
DA:773,0
DA:774,0
DA:777,0
DA:778,0
DA:779,0
DA:780,0
DA:781,0
DA:782,0
DA:783,0
DA:784,0
DA:785,0
DA:786,0
DA:787,0
DA:788,0
DA:791,0
DA:792,0
DA:793,0
DA:794,0
DA:795,0
DA:796,0
DA:797,0
DA:798,0
DA:799,0
DA:800,0
DA:801,0
DA:802,0
DA:805,0
DA:806,0
DA:807,0
DA:808,0
DA:809,0
DA:810,0
DA:811,0
DA:812,0
DA:813,0
DA:814,0
DA:815,0
DA:816,0
DA:819,0
DA:820,0
DA:821,0
DA:822,0
DA:823,0
DA:824,0
DA:825,0
DA:826,0
DA:827,0
DA:828,0
DA:829,0
DA:830,0
DA:834,2
DA:835,2
DA:836,2
DA:837,2
DA:838,2
DA:839,1
DA:840,1
DA:841,1
DA:842,1
DA:843,1
DA:844,1
DA:845,1
DA:847,0
DA:849,1
DA:851,1
DA:852,1
DA:853,1
DA:854,1
DA:856,1
DA:860,1
DA:861,1
DA:862,1
DA:863,1
DA:864,1
DA:865,1
DA:866,1
DA:867,0
DA:868,0
DA:869,0
DA:870,0
DA:871,0
DA:875,2
DA:876,2
DA:877,2
DA:878,2
DA:879,2
DA:880,2
DA:881,2
DA:882,2
DA:884,2
DA:885,2
DA:886,2
DA:887,2
DA:888,2
DA:889,2
DA:890,2
DA:891,2
DA:892,2
DA:893,2
DA:894,1
DA:895,1
DA:896,1
DA:897,1
DA:898,1
DA:899,1
DA:900,1
DA:901,1
DA:902,1
DA:903,1
DA:906,1
DA:907,1
DA:909,0
DA:910,0
DA:911,0
DA:912,0
DA:913,0
DA:914,1
DA:915,1
DA:916,1
DA:917,1
DA:918,1
DA:921,2
DA:922,2
DA:923,2
DA:924,2
DA:925,2
DA:926,2
DA:927,2
DA:928,1
DA:929,1
DA:930,1
DA:931,1
DA:932,1
DA:933,1
DA:934,1
DA:935,1
DA:936,1
DA:937,1
DA:940,1
DA:941,1
DA:942,0
DA:943,0
DA:944,0
DA:945,0
DA:946,0
DA:947,1
DA:948,1
DA:949,1
DA:950,1
DA:951,1
DA:954,2
DA:955,2
DA:956,1
DA:957,1
DA:958,1
DA:959,1
DA:960,1
DA:961,1
DA:962,1
DA:963,1
DA:964,1
DA:965,1
DA:968,2
DA:969,2
DA:970,1
DA:971,1
DA:972,1
DA:973,1
DA:974,1
DA:975,1
DA:976,1
DA:977,1
DA:978,1
DA:979,1
DA:982,0
DA:983,0
DA:984,0
DA:985,0
DA:986,0
DA:987,0
DA:988,0
DA:989,0
DA:990,0
DA:991,0
DA:992,0
DA:993,0
DA:996,0
DA:997,0
DA:998,0
DA:999,0
DA:1002,0
DA:1003,0
DA:1004,0
DA:1005,0
DA:1006,0
DA:1007,0
DA:1008,0
DA:1009,0
DA:1010,0
DA:1011,0
DA:1012,0
DA:1013,0
DA:1014,0
DA:1015,0
DA:1016,0
DA:1017,0
DA:1018,0
DA:1019,0
DA:1021,0
DA:1022,0
DA:1023,0
DA:1024,0
DA:1025,0
DA:1026,0
DA:1027,0
DA:1028,0
DA:1029,0
DA:1030,0
DA:1031,0
DA:1032,0
DA:1033,0
DA:1037,0
DA:1038,0
DA:1039,0
DA:1040,0
DA:1041,0
DA:1042,0
DA:1043,0
DA:1044,0
DA:1045,0
DA:1046,0
DA:1047,0
DA:1050,0
DA:1051,0
DA:1052,0
DA:1053,0
DA:1054,0
DA:1055,0
DA:1056,0
DA:1057,0
DA:1058,0
DA:1059,0
DA:1060,0
DA:1061,0
DA:1062,0
DA:1065,0
DA:1066,0
DA:1067,0
DA:1068,0
DA:1069,0
DA:1070,0
DA:1071,0
DA:1072,0
DA:1073,0
DA:1074,0
DA:1075,0
DA:1077,0
DA:1078,0
DA:1079,0
DA:1080,0
DA:1081,0
DA:1082,0
DA:1083,0
DA:1084,0
DA:1085,0
DA:1086,0
DA:1087,0
DA:1091,16
DA:1117,4
DA:1118,4
DA:1119,4
DA:1120,4
DA:1121,4
DA:1123,2
DA:1124,2
DA:1125,2
DA:1126,2
DA:1127,2
DA:1128,2
DA:1129,2
DA:1130,2
DA:1131,2
DA:1132,2
DA:1133,2
DA:1134,2
DA:1135,2
DA:1136,2
DA:1137,2
DA:1138,2
DA:1139,2
DA:1140,2
DA:1141,2
DA:1142,2
DA:1143,2
DA:1144,2
DA:1145,2
DA:1146,2
DA:1147,2
DA:1148,2
DA:1149,2
DA:1150,2
DA:1151,2
DA:1152,2
DA:1153,2
DA:1154,2
DA:1155,2
DA:1157,2
DA:1158,2
DA:1159,2
DA:1162,1
DA:1163,1
DA:1164,1
DA:1165,1
DA:1166,1
DA:1167,1
DA:1168,1
DA:1169,1
DA:1170,1
DA:1171,1
DA:1172,1
DA:1173,1
DA:1174,1
DA:1175,1
DA:1176,1
DA:1177,1
DA:1178,1
DA:1179,1
DA:1180,1
DA:1181,1
DA:1182,1
DA:1183,1
DA:1184,1
DA:1185,1
DA:1186,1
DA:1187,1
DA:1188,1
DA:1189,1
DA:1191,6
DA:1192,6
DA:1193,6
DA:1194,6
DA:1197,1
DA:1198,1
DA:1199,1
DA:1200,1
DA:1201,1
DA:1202,1
DA:1203,1
DA:1204,1
DA:1207,1
DA:1208,1
DA:1209,1
DA:1211,1
DA:1212,1
DA:1213,1
DA:1214,1
DA:1215,1
DA:1216,1
DA:1217,1
DA:1218,1
DA:1219,1
DA:1220,1
DA:1221,1
DA:1222,1
DA:1223,1
DA:1224,1
DA:1226,1
DA:1227,1
DA:1228,1
DA:1229,1
DA:1230,1
DA:1232,1
DA:1233,1
DA:1234,1
DA:1235,1
DA:1236,1
DA:1237,1
DA:1238,1
DA:1239,1
DA:1240,1
DA:1241,1
DA:1242,1
DA:1244,1
DA:1245,1
DA:1246,1
DA:1247,1
DA:1248,1
DA:1249,1
DA:1250,1
DA:1251,1
DA:1253,1
DA:1254,1
DA:1255,1
DA:1256,1
DA:1257,1
DA:1258,1
DA:1259,1
DA:1260,1
DA:1261,1
DA:1262,1
DA:1263,1
DA:1264,1
DA:1265,1
DA:1267,1
DA:1268,1
DA:1269,1
DA:1270,1
DA:1271,1
DA:1273,1
DA:1274,1
DA:1275,1
DA:1276,1
DA:1277,1
DA:1279,1
DA:1280,1
DA:1281,1
DA:1282,1
DA:1283,1
DA:1284,1
DA:1285,1
DA:1287,1
DA:1288,1
DA:1289,1
DA:1290,1
DA:1291,1
DA:1292,1
DA:1293,1
DA:1294,1
DA:1295,1
DA:1296,1
DA:1297,1
DA:1298,1
DA:1299,1
DA:1300,1
DA:1301,1
BRF:0
BRH:0
LF:819
LH:344
end_of_record
SF:/Users/rt/workspace/synod/src/cli/cluster.rs
FN:127,_RNCNCNvNtNtCs3oCotP8OZr6_5synod3cli7cluster16summarize_member00B9_
FN:57,_RNCNvNtNtCs3oCotP8OZr6_5synod3cli7cluster12execute_init0B7_
FN:81,_RNCNvNtNtCs3oCotP8OZr6_5synod3cli7cluster15execute_inspect0B7_
FN:122,_RNCNvNtNtCs3oCotP8OZr6_5synod3cli7cluster16summarize_member0B7_
FN:199,_RNCNvNtNtCs3oCotP8OZr6_5synod3cli7cluster19canonical_workspace0B7_
FN:99,_RNCNvNtNtCs3oCotP8OZr6_5synod3cli7cluster20build_cluster_report0B7_
FN:107,_RNCNvNtNtCs3oCotP8OZr6_5synod3cli7cluster20build_cluster_reports_0B7_
FN:273,_RNvMNtNtCs3oCotP8OZr6_5synod3cli7clusterNtB2_19ClusterCommandError19validate_cluster_id
FN:24,_RNvNtNtCs3oCotP8OZr6_5synod3cli7cluster12execute_init
FN:70,_RNvNtNtCs3oCotP8OZr6_5synod3cli7cluster14execute_status
FN:78,_RNvNtNtCs3oCotP8OZr6_5synod3cli7cluster15execute_inspect
FN:117,_RNvNtNtCs3oCotP8OZr6_5synod3cli7cluster16summarize_member
FN:210,_RNvNtNtCs3oCotP8OZr6_5synod3cli7cluster17normalize_members
FN:244,_RNvNtNtCs3oCotP8OZr6_5synod3cli7cluster18is_synod_workspace
FN:198,_RNvNtNtCs3oCotP8OZr6_5synod3cli7cluster19canonical_workspace
FN:184,_RNvNtNtCs3oCotP8OZr6_5synod3cli7cluster19session_status_text
FN:93,_RNvNtNtCs3oCotP8OZr6_5synod3cli7cluster20build_cluster_report
FN:281,_RNvNtNtCs3oCotP8OZr6_5synod3cli7cluster20validate_init_inputs
FNDA:0,_RNCNCNvNtNtCs3oCotP8OZr6_5synod3cli7cluster16summarize_member00B9_
FNDA:2,_RNCNvNtNtCs3oCotP8OZr6_5synod3cli7cluster12execute_init0B7_
FNDA:0,_RNCNvNtNtCs3oCotP8OZr6_5synod3cli7cluster15execute_inspect0B7_
FNDA:0,_RNCNvNtNtCs3oCotP8OZr6_5synod3cli7cluster16summarize_member0B7_
FNDA:0,_RNCNvNtNtCs3oCotP8OZr6_5synod3cli7cluster19canonical_workspace0B7_
FNDA:0,_RNCNvNtNtCs3oCotP8OZr6_5synod3cli7cluster20build_cluster_report0B7_
FNDA:0,_RNCNvNtNtCs3oCotP8OZr6_5synod3cli7cluster20build_cluster_reports_0B7_
FNDA:1,_RNvMNtNtCs3oCotP8OZr6_5synod3cli7clusterNtB2_19ClusterCommandError19validate_cluster_id
FNDA:1,_RNvNtNtCs3oCotP8OZr6_5synod3cli7cluster12execute_init
FNDA:0,_RNvNtNtCs3oCotP8OZr6_5synod3cli7cluster14execute_status
FNDA:0,_RNvNtNtCs3oCotP8OZr6_5synod3cli7cluster15execute_inspect
FNDA:0,_RNvNtNtCs3oCotP8OZr6_5synod3cli7cluster16summarize_member
FNDA:1,_RNvNtNtCs3oCotP8OZr6_5synod3cli7cluster17normalize_members
FNDA:3,_RNvNtNtCs3oCotP8OZr6_5synod3cli7cluster18is_synod_workspace
FNDA:3,_RNvNtNtCs3oCotP8OZr6_5synod3cli7cluster19canonical_workspace
FNDA:0,_RNvNtNtCs3oCotP8OZr6_5synod3cli7cluster19session_status_text
FNDA:0,_RNvNtNtCs3oCotP8OZr6_5synod3cli7cluster20build_cluster_report
FNDA:1,_RNvNtNtCs3oCotP8OZr6_5synod3cli7cluster20validate_init_inputs
FNF:18
FNH:7
DA:24,1
DA:25,1
DA:26,1
DA:27,1
DA:28,1
DA:29,1
DA:30,1
DA:31,1
DA:33,1
DA:34,0
DA:35,1
DA:37,1
DA:39,1
DA:40,1
DA:41,1
DA:42,1
DA:43,1
DA:44,1
DA:45,1
DA:46,1
DA:47,1
DA:48,1
DA:49,1
DA:50,1
DA:52,1
DA:53,1
DA:54,1
DA:55,1
DA:56,1
DA:57,2
DA:58,1
DA:60,1
DA:61,1
DA:62,1
DA:63,1
DA:64,1
DA:65,1
DA:66,1
DA:67,1
DA:68,1
DA:70,0
DA:71,0
DA:72,0
DA:73,0
DA:74,0
DA:75,0
DA:76,0
DA:78,0
DA:79,0
DA:80,0
DA:81,0
DA:82,0
DA:84,0
DA:87,0
DA:88,0
DA:89,0
DA:90,0
DA:91,0
DA:93,0
DA:94,0
DA:95,0
DA:96,0
DA:97,0
DA:98,0
DA:99,0
DA:100,0
DA:101,0
DA:103,0
DA:104,0
DA:105,0
DA:106,0
DA:107,0
DA:108,0
DA:110,0
DA:111,0
DA:112,0
DA:113,0
DA:114,0
DA:115,0
DA:117,0
DA:118,0
DA:119,0
DA:120,0
DA:121,0
DA:122,0
DA:123,0
DA:124,0
DA:125,0
DA:126,0
DA:127,0
DA:128,0
DA:130,0
DA:131,0
DA:132,0
DA:133,0
DA:134,0
DA:135,0
DA:136,0
DA:137,0
DA:138,0
DA:140,0
DA:141,0
DA:147,0
DA:149,0
DA:152,0
DA:153,0
DA:154,0
DA:155,0
DA:156,0
DA:157,0
DA:158,0
DA:160,0
DA:161,0
DA:162,0
DA:163,0
DA:164,0
DA:165,0
DA:166,0
DA:167,0
DA:168,0
DA:169,0
DA:170,0
DA:171,0
DA:172,0
DA:173,0
DA:174,0
DA:175,0
DA:176,0
DA:177,0
DA:178,0
DA:179,0
DA:180,0
DA:182,0
DA:184,0
DA:185,0
DA:186,0
DA:187,0
DA:188,0
DA:189,0
DA:190,0
DA:191,0
DA:192,0
DA:193,0
DA:194,0
DA:196,0
DA:198,3
DA:199,3
DA:200,0
DA:201,0
DA:203,3
DA:204,0
DA:205,3
DA:207,3
DA:208,3
DA:210,1
DA:211,1
DA:212,1
DA:213,1
DA:214,1
DA:215,0
DA:216,1
DA:218,1
DA:219,1
DA:221,2
DA:222,2
DA:223,2
DA:224,1
DA:225,1
DA:227,1
DA:230,2
DA:231,2
DA:232,2
DA:233,2
DA:234,2
DA:237,1
DA:238,0
DA:239,1
DA:241,1
DA:242,1
DA:244,3
DA:245,3
DA:246,0
DA:247,0
DA:248,3
DA:273,1
DA:274,1
DA:275,0
DA:276,1
DA:277,1
DA:278,1
DA:281,1
DA:282,1
DA:283,1
BRF:0
BRH:0
LF:202
LH:80
end_of_record
SF:/Users/rt/workspace/synod/src/cli/config.rs
FN:308,_RNvNtNtCs3oCotP8OZr6_5synod3cli6config10route_text
FN:135,_RNvNtNtCs3oCotP8OZr6_5synod3cli6config11execute_set
FN:312,_RNvNtNtCs3oCotP8OZr6_5synod3cli6config11source_text
FN:32,_RNvNtNtCs3oCotP8OZr6_5synod3cli6config12execute_show
FN:245,_RNvNtNtCs3oCotP8OZr6_5synod3cli6config12render_scope
FN:191,_RNvNtNtCs3oCotP8OZr6_5synod3cli6config13execute_unset
FN:328,_RNvNtNtCs3oCotP8OZr6_5synod3cli6config15mutation_target
FN:353,_RNvNtNtCs3oCotP8OZr6_5synod3cli6config21load_config_for_scope
FN:372,_RNvNtNtCs3oCotP8OZr6_5synod3cli6config21save_config_for_scope
FN:140,_RNCNvNtNtCs3oCotP8OZr6_5synod3cli6config11execute_set0B7_
FN:160,_RNCNvNtNtCs3oCotP8OZr6_5synod3cli6config11execute_sets0_0B7_
FN:182,_RNCNvNtNtCs3oCotP8OZr6_5synod3cli6config11execute_sets1_0B7_
FN:147,_RNCNvNtNtCs3oCotP8OZr6_5synod3cli6config11execute_sets_0B7_
FN:52,_RNCNvNtNtCs3oCotP8OZr6_5synod3cli6config12execute_show0B7_
FN:67,_RNCNvNtNtCs3oCotP8OZr6_5synod3cli6config12execute_shows_0B7_
FN:299,_RNCNvNtNtCs3oCotP8OZr6_5synod3cli6config12render_scope0B7_
FN:258,_RNCNvNtNtCs3oCotP8OZr6_5synod3cli6config12render_scopes0_0B7_
FN:267,_RNCNvNtNtCs3oCotP8OZr6_5synod3cli6config12render_scopes1_0B7_
FN:271,_RNCNvNtNtCs3oCotP8OZr6_5synod3cli6config12render_scopes2_0B7_
FN:280,_RNCNvNtNtCs3oCotP8OZr6_5synod3cli6config12render_scopes3_0B7_
FN:249,_RNCNvNtNtCs3oCotP8OZr6_5synod3cli6config12render_scopes_0B7_
FN:206,_RNCNvNtNtCs3oCotP8OZr6_5synod3cli6config13execute_unset0B7_
FNDA:0,_RNvNtNtCs3oCotP8OZr6_5synod3cli6config10route_text
FNDA:0,_RNvNtNtCs3oCotP8OZr6_5synod3cli6config11execute_set
FNDA:0,_RNvNtNtCs3oCotP8OZr6_5synod3cli6config11source_text
FNDA:0,_RNvNtNtCs3oCotP8OZr6_5synod3cli6config12execute_show
FNDA:0,_RNvNtNtCs3oCotP8OZr6_5synod3cli6config12render_scope
FNDA:0,_RNvNtNtCs3oCotP8OZr6_5synod3cli6config13execute_unset
FNDA:0,_RNvNtNtCs3oCotP8OZr6_5synod3cli6config15mutation_target
FNDA:0,_RNvNtNtCs3oCotP8OZr6_5synod3cli6config21load_config_for_scope
FNDA:0,_RNvNtNtCs3oCotP8OZr6_5synod3cli6config21save_config_for_scope
FNDA:0,_RNCNvNtNtCs3oCotP8OZr6_5synod3cli6config11execute_set0B7_
FNDA:0,_RNCNvNtNtCs3oCotP8OZr6_5synod3cli6config11execute_sets0_0B7_
FNDA:0,_RNCNvNtNtCs3oCotP8OZr6_5synod3cli6config11execute_sets1_0B7_
FNDA:0,_RNCNvNtNtCs3oCotP8OZr6_5synod3cli6config11execute_sets_0B7_
FNDA:0,_RNCNvNtNtCs3oCotP8OZr6_5synod3cli6config12execute_show0B7_
FNDA:0,_RNCNvNtNtCs3oCotP8OZr6_5synod3cli6config12execute_shows_0B7_
FNDA:0,_RNCNvNtNtCs3oCotP8OZr6_5synod3cli6config12render_scope0B7_
FNDA:0,_RNCNvNtNtCs3oCotP8OZr6_5synod3cli6config12render_scopes0_0B7_
FNDA:0,_RNCNvNtNtCs3oCotP8OZr6_5synod3cli6config12render_scopes1_0B7_
FNDA:0,_RNCNvNtNtCs3oCotP8OZr6_5synod3cli6config12render_scopes2_0B7_
FNDA:0,_RNCNvNtNtCs3oCotP8OZr6_5synod3cli6config12render_scopes3_0B7_
FNDA:0,_RNCNvNtNtCs3oCotP8OZr6_5synod3cli6config12render_scopes_0B7_
FNDA:0,_RNCNvNtNtCs3oCotP8OZr6_5synod3cli6config13execute_unset0B7_
FNF:22
FNH:0
DA:32,0
DA:33,0
DA:34,0
DA:35,0
DA:36,0
DA:37,0
DA:39,0
DA:41,0
DA:42,0
DA:45,0
DA:46,0
DA:47,0
DA:50,0
DA:51,0
DA:52,0
DA:53,0
DA:54,0
DA:55,0
DA:56,0
DA:59,0
DA:60,0
DA:61,0
DA:62,0
DA:63,0
DA:65,0
DA:66,0
DA:67,0
DA:68,0
DA:69,0
DA:73,0
DA:75,0
DA:76,0
DA:77,0
DA:78,0
DA:79,0
DA:80,0
DA:83,0
DA:84,0
DA:86,0
DA:87,0
DA:89,0
DA:91,0
DA:92,0
DA:94,0
DA:96,0
DA:97,0
DA:99,0
DA:101,0
DA:102,0
DA:104,0
DA:106,0
DA:107,0
DA:110,0
DA:111,0
DA:112,0
DA:113,0
DA:114,0
DA:115,0
DA:116,0
DA:117,0
DA:118,0
DA:119,0
DA:120,0
DA:121,0
DA:124,0
DA:125,0
DA:128,0
DA:132,0
DA:133,0
DA:135,0
DA:136,0
DA:137,0
DA:138,0
DA:139,0
DA:140,0
DA:142,0
DA:143,0
DA:144,0
DA:145,0
DA:146,0
DA:147,0
DA:149,0
DA:150,0
DA:151,0
DA:152,0
DA:153,0
DA:154,0
DA:157,0
DA:158,0
DA:159,0
DA:160,0
DA:161,0
DA:163,0
DA:164,0
DA:165,0
DA:166,0
DA:167,0
DA:169,0
DA:171,0
DA:172,0
DA:173,0
DA:174,0
DA:175,0
DA:176,0
DA:179,0
DA:180,0
DA:181,0
DA:182,0
DA:183,0
DA:185,0
DA:186,0
DA:187,0
DA:188,0
DA:189,0
DA:191,0
DA:192,0
DA:193,0
DA:194,0
DA:195,0
DA:196,0
DA:197,0
DA:198,0
DA:199,0
DA:201,0
DA:202,0
DA:203,0
DA:204,0
DA:205,0
DA:206,0
DA:208,0
DA:209,0
DA:210,0
DA:211,0
DA:212,0
DA:213,0
DA:216,0
DA:218,0
DA:219,0
DA:220,0
DA:221,0
DA:222,0
DA:223,0
DA:224,0
DA:225,0
DA:227,0
DA:229,0
DA:230,0
DA:231,0
DA:232,0
DA:233,0
DA:234,0
DA:237,0
DA:239,0
DA:240,0
DA:241,0
DA:242,0
DA:243,0
DA:245,0
DA:246,0
DA:247,0
DA:249,0
DA:251,0
DA:253,0
DA:254,0
DA:255,0
DA:256,0
DA:257,0
DA:258,0
DA:260,0
DA:262,0
DA:263,0
DA:264,0
DA:265,0
DA:266,0
DA:267,0
DA:269,0
DA:271,0
DA:273,0
DA:275,0
DA:276,0
DA:277,0
DA:278,0
DA:279,0
DA:280,0
DA:283,0
DA:284,0
DA:285,0
DA:286,0
DA:287,0
DA:288,0
DA:289,0
DA:292,0
DA:293,0
DA:294,0
DA:295,0
DA:296,0
DA:297,0
DA:298,0
DA:299,0
DA:300,0
DA:301,0
DA:302,0
DA:305,0
DA:306,0
DA:308,0
DA:309,0
DA:310,0
DA:312,0
DA:313,0
DA:314,0
DA:315,0
DA:316,0
DA:317,0
DA:318,0
DA:320,0
DA:328,0
DA:329,0
DA:330,0
DA:331,0
DA:332,0
DA:333,0
DA:334,0
DA:335,0
DA:336,0
DA:337,0
DA:339,0
DA:340,0
DA:341,0
DA:343,0
DA:344,0
DA:345,0
DA:346,0
DA:347,0
DA:348,0
DA:350,0
DA:351,0
DA:353,0
DA:354,0
DA:355,0
DA:356,0
DA:357,0
DA:359,0
DA:360,0
DA:363,0
DA:364,0
DA:365,0
DA:366,0
DA:368,0
DA:370,0
DA:372,0
DA:373,0
DA:374,0
DA:375,0
DA:376,0
DA:377,0
DA:378,0
DA:380,0
DA:381,0
DA:382,0
DA:384,0
DA:386,0
BRF:0
BRH:0
LF:276
LH:0
end_of_record
SF:/Users/rt/workspace/synod/src/cli/diagnostics.rs
FN:230,_RNCNvNtNtNtCs3oCotP8OZr6_5synod3cli11diagnostics5testss_54diagnostics_report_marks_a_writable_workspace_as_ready0B9_
FN:33,_RINvNtNtCs3oCotP8OZr6_5synod3cli11diagnostics18diagnose_workspaceRNtNtCsg55jX0GwzBC_3std4path7PathBufEB6_
FN:37,_RINvNtNtCs3oCotP8OZr6_5synod3cli11diagnostics36diagnose_native_direct_run_workspaceRNtNtCsg55jX0GwzBC_3std4path7PathBufEB6_
FN:41,_RINvNtNtCs3oCotP8OZr6_5synod3cli11diagnostics43diagnose_workspace_with_profile_requirementRNtNtCsg55jX0GwzBC_3std4path7PathBufEB6_
FN:80,_RNCINvNtNtCs3oCotP8OZr6_5synod3cli11diagnostics43diagnose_workspace_with_profile_requirementRNtNtCsg55jX0GwzBC_3std4path7PathBufE0B8_
FN:165,_RNCINvNtNtCs3oCotP8OZr6_5synod3cli11diagnostics43diagnose_workspace_with_profile_requirementRNtNtCsg55jX0GwzBC_3std4path7PathBufEs0_0B8_
FN:169,_RNCINvNtNtCs3oCotP8OZr6_5synod3cli11diagnostics43diagnose_workspace_with_profile_requirementRNtNtCsg55jX0GwzBC_3std4path7PathBufEs1_0B8_
FN:170,_RNCINvNtNtCs3oCotP8OZr6_5synod3cli11diagnostics43diagnose_workspace_with_profile_requirementRNtNtCsg55jX0GwzBC_3std4path7PathBufEs2_0B8_
FN:164,_RNCINvNtNtCs3oCotP8OZr6_5synod3cli11diagnostics43diagnose_workspace_with_profile_requirementRNtNtCsg55jX0GwzBC_3std4path7PathBufEs_0B8_
FN:191,_RNvNtNtNtCs3oCotP8OZr6_5synod3cli11diagnostics5tests14temp_workspace
FN:234,_RNvNtNtNtCs3oCotP8OZr6_5synod3cli11diagnostics5testss_44diagnostics_report_flags_a_missing_workspace
FN:243,_RNvNtNtNtCs3oCotP8OZr6_5synod3cli11diagnostics5testss_46diagnostics_report_flags_an_invalid_trace_root
FN:224,_RNvNtNtNtCs3oCotP8OZr6_5synod3cli11diagnostics5testss_54diagnostics_report_marks_a_writable_workspace_as_ready
FNDA:5,_RNCNvNtNtNtCs3oCotP8OZr6_5synod3cli11diagnostics5testss_54diagnostics_report_marks_a_writable_workspace_as_ready0B9_
FNDA:3,_RINvNtNtCs3oCotP8OZr6_5synod3cli11diagnostics18diagnose_workspaceRNtNtCsg55jX0GwzBC_3std4path7PathBufEB6_
FNDA:2,_RINvNtNtCs3oCotP8OZr6_5synod3cli11diagnostics36diagnose_native_direct_run_workspaceRNtNtCsg55jX0GwzBC_3std4path7PathBufEB6_
FNDA:5,_RINvNtNtCs3oCotP8OZr6_5synod3cli11diagnostics43diagnose_workspace_with_profile_requirementRNtNtCsg55jX0GwzBC_3std4path7PathBufEB6_
FNDA:4,_RNCINvNtNtCs3oCotP8OZr6_5synod3cli11diagnostics43diagnose_workspace_with_profile_requirementRNtNtCsg55jX0GwzBC_3std4path7PathBufE0B8_
FNDA:7,_RNCINvNtNtCs3oCotP8OZr6_5synod3cli11diagnostics43diagnose_workspace_with_profile_requirementRNtNtCsg55jX0GwzBC_3std4path7PathBufEs0_0B8_
FNDA:25,_RNCINvNtNtCs3oCotP8OZr6_5synod3cli11diagnostics43diagnose_workspace_with_profile_requirementRNtNtCsg55jX0GwzBC_3std4path7PathBufEs1_0B8_
FNDA:7,_RNCINvNtNtCs3oCotP8OZr6_5synod3cli11diagnostics43diagnose_workspace_with_profile_requirementRNtNtCsg55jX0GwzBC_3std4path7PathBufEs2_0B8_
FNDA:25,_RNCINvNtNtCs3oCotP8OZr6_5synod3cli11diagnostics43diagnose_workspace_with_profile_requirementRNtNtCsg55jX0GwzBC_3std4path7PathBufEs_0B8_
FNDA:2,_RNvNtNtNtCs3oCotP8OZr6_5synod3cli11diagnostics5tests14temp_workspace
FNDA:1,_RNvNtNtNtCs3oCotP8OZr6_5synod3cli11diagnostics5testss_44diagnostics_report_flags_a_missing_workspace
FNDA:1,_RNvNtNtNtCs3oCotP8OZr6_5synod3cli11diagnostics5testss_46diagnostics_report_flags_an_invalid_trace_root
FNDA:1,_RNvNtNtNtCs3oCotP8OZr6_5synod3cli11diagnostics5testss_54diagnostics_report_marks_a_writable_workspace_as_ready
FNF:13
FNH:13
DA:33,3
DA:34,3
DA:35,3
DA:37,2
DA:38,2
DA:39,2
DA:41,5
DA:42,5
DA:43,5
DA:44,5
DA:45,5
DA:46,5
DA:47,5
DA:49,5
DA:50,5
DA:51,4
DA:52,4
DA:53,4
DA:54,4
DA:55,4
DA:57,1
DA:58,1
DA:59,1
DA:60,1
DA:61,1
DA:64,5
DA:65,5
DA:66,3
DA:67,3
DA:68,3
DA:69,3
DA:70,3
DA:72,2
DA:73,2
DA:74,2
DA:75,2
DA:76,2
DA:79,5
DA:80,4
DA:82,1
DA:84,5
DA:85,4
DA:86,4
DA:87,4
DA:88,4
DA:89,4
DA:91,1
DA:92,1
DA:93,1
DA:94,1
DA:95,1
DA:98,5
DA:99,5
DA:100,5
DA:101,5
DA:102,5
DA:104,3
DA:105,3
DA:106,3
DA:107,0
DA:109,3
DA:113,2
DA:114,2
DA:115,2
DA:116,2
DA:117,2
DA:118,2
DA:119,2
DA:120,2
DA:123,5
DA:124,3
DA:125,3
DA:126,3
DA:127,3
DA:128,3
DA:129,3
DA:130,3
DA:131,3
DA:132,3
DA:133,1
DA:134,1
DA:135,1
DA:136,1
DA:137,1
DA:138,1
DA:139,1
DA:140,1
DA:141,1
DA:143,1
DA:144,1
DA:145,1
DA:146,1
DA:147,1
DA:148,0
DA:149,0
DA:150,0
DA:151,0
DA:152,0
DA:153,0
DA:154,0
DA:155,0
DA:156,0
DA:157,0
DA:158,0
DA:159,0
DA:162,5
DA:163,5
DA:164,25
DA:165,7
DA:166,5
DA:167,5
DA:168,5
DA:169,25
DA:170,7
DA:171,5
DA:173,5
DA:174,5
DA:175,5
DA:176,5
DA:177,5
DA:178,5
DA:179,5
DA:180,5
DA:191,2
DA:192,2
DA:193,2
DA:194,2
DA:195,2
DA:196,2
DA:199,2
DA:200,2
DA:201,2
DA:202,2
DA:203,2
DA:204,2
DA:205,2
DA:206,2
DA:207,2
DA:208,2
DA:209,2
DA:210,2
DA:211,2
DA:212,2
DA:213,2
DA:214,2
DA:215,2
DA:216,2
DA:217,2
DA:219,2
DA:220,2
DA:221,2
DA:224,1
DA:225,1
DA:226,1
DA:228,1
DA:229,1
DA:230,5
DA:231,1
DA:234,1
DA:235,1
DA:236,1
DA:238,1
DA:239,1
DA:240,1
DA:243,1
DA:244,1
DA:245,1
DA:246,1
DA:247,1
DA:249,1
DA:251,1
DA:252,1
DA:253,1
BRF:0
BRH:0
LF:179
LH:166
end_of_record
SF:/Users/rt/workspace/synod/src/cli/init.rs
FN:17,_RNvNtNtCs3oCotP8OZr6_5synod3cli4init12execute_init
FN:135,_RNvNtNtCs3oCotP8OZr6_5synod3cli4init14template_label
FN:156,_RNvNtNtCs3oCotP8OZr6_5synod3cli4init15command_in_path
FN:147,_RNvNtNtCs3oCotP8OZr6_5synod3cli4init17runtime_available
FN:102,_RNvNtNtCs3oCotP8OZr6_5synod3cli4init18execution_template
FN:143,_RNvNtNtCs3oCotP8OZr6_5synod3cli4init23runtime_capability_line
FN:24,_RNCNvNtNtCs3oCotP8OZr6_5synod3cli4init12execute_init0B7_
FN:71,_RNCNvNtNtCs3oCotP8OZr6_5synod3cli4init12execute_inits0_0B7_
FN:79,_RNCNvNtNtCs3oCotP8OZr6_5synod3cli4init12execute_inits1_0B7_
FN:63,_RNCNvNtNtCs3oCotP8OZr6_5synod3cli4init12execute_inits_0B7_
FNDA:0,_RNvNtNtCs3oCotP8OZr6_5synod3cli4init12execute_init
FNDA:0,_RNvNtNtCs3oCotP8OZr6_5synod3cli4init14template_label
FNDA:0,_RNvNtNtCs3oCotP8OZr6_5synod3cli4init15command_in_path
FNDA:0,_RNvNtNtCs3oCotP8OZr6_5synod3cli4init17runtime_available
FNDA:0,_RNvNtNtCs3oCotP8OZr6_5synod3cli4init18execution_template
FNDA:0,_RNvNtNtCs3oCotP8OZr6_5synod3cli4init23runtime_capability_line
FNDA:0,_RNCNvNtNtCs3oCotP8OZr6_5synod3cli4init12execute_init0B7_
FNDA:0,_RNCNvNtNtCs3oCotP8OZr6_5synod3cli4init12execute_inits0_0B7_
FNDA:0,_RNCNvNtNtCs3oCotP8OZr6_5synod3cli4init12execute_inits1_0B7_
FNDA:0,_RNCNvNtNtCs3oCotP8OZr6_5synod3cli4init12execute_inits_0B7_
FNF:10
FNH:0
DA:17,0
DA:18,0
DA:19,0
DA:20,0
DA:21,0
DA:22,0
DA:23,0
DA:24,0
DA:25,0
DA:26,0
DA:28,0
DA:29,0
DA:30,0
DA:31,0
DA:33,0
DA:34,0
DA:35,0
DA:37,0
DA:38,0
DA:40,0
DA:42,0
DA:43,0
DA:45,0
DA:48,0
DA:49,0
DA:50,0
DA:51,0
DA:52,0
DA:54,0
DA:55,0
DA:56,0
DA:57,0
DA:58,0
DA:59,0
DA:61,0
DA:62,0
DA:63,0
DA:64,0
DA:66,0
DA:67,0
DA:68,0
DA:69,0
DA:71,0
DA:73,0
DA:74,0
DA:75,0
DA:77,0
DA:78,0
DA:79,0
DA:80,0
DA:82,0
DA:83,0
DA:84,0
DA:85,0
DA:86,0
DA:89,0
DA:90,0
DA:91,0
DA:92,0
DA:94,0
DA:96,0
DA:97,0
DA:98,0
DA:99,0
DA:100,0
DA:102,0
DA:103,0
DA:104,0
DA:105,0
DA:107,0
DA:111,0
DA:112,0
DA:113,0
DA:114,0
DA:115,0
DA:116,0
DA:118,0
DA:120,0
DA:121,0
DA:122,0
DA:123,0
DA:125,0
DA:126,0
DA:127,0
DA:133,0
DA:135,0
DA:136,0
DA:137,0
DA:138,0
DA:139,0
DA:141,0
DA:143,0
DA:144,0
DA:145,0
DA:147,0
DA:148,0
DA:149,0
DA:150,0
DA:151,0
DA:152,0
DA:154,0
DA:156,0
DA:157,0
DA:158,0
DA:159,0
DA:162,0
DA:163,0
DA:164,0
DA:165,0
DA:166,0
DA:169,0
DA:170,0
BRF:0
BRH:0
LF:116
LH:0
end_of_record
SF:/Users/rt/workspace/synod/src/cli/inspect.rs
FN:100,_RNvNtNtCs3oCotP8OZr6_5synod3cli7inspect33render_inspection_routing_summary
FN:1323,_RNCNvNtNtNtCs3oCotP8OZr6_5synod3cli7inspect5testss_72summarize_trace_synthesizes_running_summary_for_paused_governance_traces0B9_
FN:1083,_RNvNtNtNtCs3oCotP8OZr6_5synod3cli7inspect5tests14temp_workspace
FN:1089,_RNvNtNtNtCs3oCotP8OZr6_5synod3cli7inspect5tests14terminal_trace
FN:1242,_RNvNtNtNtCs3oCotP8OZr6_5synod3cli7inspect5testss_46summarize_trace_collects_review_timeline_lines
FN:1099,_RNvNtNtNtCs3oCotP8OZr6_5synod3cli7inspect5testss_52render_error_maps_session_store_and_summary_failures
FN:1113,_RNvNtNtNtCs3oCotP8OZr6_5synod3cli7inspect5testss_53summarize_trace_reports_missing_step_id_and_step_kind
FN:1168,_RNvNtNtNtCs3oCotP8OZr6_5synod3cli7inspect5testss_62inspection_helpers_cover_default_headlines_and_command_targets
FN:1135,_RNvNtNtNtCs3oCotP8OZr6_5synod3cli7inspect5testss_72resolve_session_trace_ref_maps_invalid_records_to_invalid_session_errors
FN:1291,_RNvNtNtNtCs3oCotP8OZr6_5synod3cli7inspect5testss_72summarize_trace_synthesizes_running_summary_for_paused_governance_traces
FN:1186,_RNvNtNtNtCs3oCotP8OZr6_5synod3cli7inspect5testss_79summarize_trace_collects_recovery_events_and_headlines_from_validation_payloads
FN:111,_RINvNtNtCs3oCotP8OZr6_5synod3cli7inspect15summarize_traceRNtNtCsg55jX0GwzBC_3std4path7PathBufEB6_
FN:111,_RINvNtNtCs3oCotP8OZr6_5synod3cli7inspect15summarize_traceReEB6_
FN:162,_RNCINvNtNtCs3oCotP8OZr6_5synod3cli7inspect15summarize_traceRNtNtCsg55jX0GwzBC_3std4path7PathBufE0B8_
FN:169,_RNCINvNtNtCs3oCotP8OZr6_5synod3cli7inspect15summarize_traceRNtNtCsg55jX0GwzBC_3std4path7PathBufEs0_0B8_
FN:170,_RNCINvNtNtCs3oCotP8OZr6_5synod3cli7inspect15summarize_traceRNtNtCsg55jX0GwzBC_3std4path7PathBufEs1_0B8_
FN:171,_RNCINvNtNtCs3oCotP8OZr6_5synod3cli7inspect15summarize_traceRNtNtCsg55jX0GwzBC_3std4path7PathBufEs2_0B8_
FN:183,_RNCINvNtNtCs3oCotP8OZr6_5synod3cli7inspect15summarize_traceRNtNtCsg55jX0GwzBC_3std4path7PathBufEs3_0B8_
FN:184,_RNCINvNtNtCs3oCotP8OZr6_5synod3cli7inspect15summarize_traceRNtNtCsg55jX0GwzBC_3std4path7PathBufEs4_0B8_
FN:185,_RNCINvNtNtCs3oCotP8OZr6_5synod3cli7inspect15summarize_traceRNtNtCsg55jX0GwzBC_3std4path7PathBufEs5_0B8_
FN:197,_RNCINvNtNtCs3oCotP8OZr6_5synod3cli7inspect15summarize_traceRNtNtCsg55jX0GwzBC_3std4path7PathBufEs6_0B8_
FN:198,_RNCINvNtNtCs3oCotP8OZr6_5synod3cli7inspect15summarize_traceRNtNtCsg55jX0GwzBC_3std4path7PathBufEs7_0B8_
FN:204,_RNCINvNtNtCs3oCotP8OZr6_5synod3cli7inspect15summarize_traceRNtNtCsg55jX0GwzBC_3std4path7PathBufEs8_0B8_
FN:205,_RNCINvNtNtCs3oCotP8OZr6_5synod3cli7inspect15summarize_traceRNtNtCsg55jX0GwzBC_3std4path7PathBufEs9_0B8_
FN:461,_RNCINvNtNtCs3oCotP8OZr6_5synod3cli7inspect15summarize_traceRNtNtCsg55jX0GwzBC_3std4path7PathBufEsA_0B8_
FN:467,_RNCINvNtNtCs3oCotP8OZr6_5synod3cli7inspect15summarize_traceRNtNtCsg55jX0GwzBC_3std4path7PathBufEsB_0B8_
FN:472,_RNCINvNtNtCs3oCotP8OZr6_5synod3cli7inspect15summarize_traceRNtNtCsg55jX0GwzBC_3std4path7PathBufEsC_0B8_
FN:287,_RNCINvNtNtCs3oCotP8OZr6_5synod3cli7inspect15summarize_traceRNtNtCsg55jX0GwzBC_3std4path7PathBufEsD_0B8_
FN:292,_RNCINvNtNtCs3oCotP8OZr6_5synod3cli7inspect15summarize_traceRNtNtCsg55jX0GwzBC_3std4path7PathBufEsE_0B8_
FN:306,_RNCINvNtNtCs3oCotP8OZr6_5synod3cli7inspect15summarize_traceRNtNtCsg55jX0GwzBC_3std4path7PathBufEsF_0B8_
FN:311,_RNCINvNtNtCs3oCotP8OZr6_5synod3cli7inspect15summarize_traceRNtNtCsg55jX0GwzBC_3std4path7PathBufEsG_0B8_
FN:163,_RNCINvNtNtCs3oCotP8OZr6_5synod3cli7inspect15summarize_traceRNtNtCsg55jX0GwzBC_3std4path7PathBufEs_0B8_
FN:211,_RNCINvNtNtCs3oCotP8OZr6_5synod3cli7inspect15summarize_traceRNtNtCsg55jX0GwzBC_3std4path7PathBufEsa_0B8_
FN:212,_RNCINvNtNtCs3oCotP8OZr6_5synod3cli7inspect15summarize_traceRNtNtCsg55jX0GwzBC_3std4path7PathBufEsb_0B8_
FN:213,_RNCINvNtNtCs3oCotP8OZr6_5synod3cli7inspect15summarize_traceRNtNtCsg55jX0GwzBC_3std4path7PathBufEsc_0B8_
FN:225,_RNCINvNtNtCs3oCotP8OZr6_5synod3cli7inspect15summarize_traceRNtNtCsg55jX0GwzBC_3std4path7PathBufEsd_0B8_
FN:226,_RNCINvNtNtCs3oCotP8OZr6_5synod3cli7inspect15summarize_traceRNtNtCsg55jX0GwzBC_3std4path7PathBufEse_0B8_
FN:232,_RNCINvNtNtCs3oCotP8OZr6_5synod3cli7inspect15summarize_traceRNtNtCsg55jX0GwzBC_3std4path7PathBufEsf_0B8_
FN:233,_RNCINvNtNtCs3oCotP8OZr6_5synod3cli7inspect15summarize_traceRNtNtCsg55jX0GwzBC_3std4path7PathBufEsg_0B8_
FN:239,_RNCINvNtNtCs3oCotP8OZr6_5synod3cli7inspect15summarize_traceRNtNtCsg55jX0GwzBC_3std4path7PathBufEsh_0B8_
FN:240,_RNCINvNtNtCs3oCotP8OZr6_5synod3cli7inspect15summarize_traceRNtNtCsg55jX0GwzBC_3std4path7PathBufEsi_0B8_
FN:246,_RNCINvNtNtCs3oCotP8OZr6_5synod3cli7inspect15summarize_traceRNtNtCsg55jX0GwzBC_3std4path7PathBufEsj_0B8_
FN:247,_RNCINvNtNtCs3oCotP8OZr6_5synod3cli7inspect15summarize_traceRNtNtCsg55jX0GwzBC_3std4path7PathBufEsk_0B8_
FN:253,_RNCINvNtNtCs3oCotP8OZr6_5synod3cli7inspect15summarize_traceRNtNtCsg55jX0GwzBC_3std4path7PathBufEsl_0B8_
FN:254,_RNCINvNtNtCs3oCotP8OZr6_5synod3cli7inspect15summarize_traceRNtNtCsg55jX0GwzBC_3std4path7PathBufEsm_0B8_
FN:260,_RNCINvNtNtCs3oCotP8OZr6_5synod3cli7inspect15summarize_traceRNtNtCsg55jX0GwzBC_3std4path7PathBufEsn_0B8_
FN:261,_RNCINvNtNtCs3oCotP8OZr6_5synod3cli7inspect15summarize_traceRNtNtCsg55jX0GwzBC_3std4path7PathBufEso_0B8_
FN:267,_RNCINvNtNtCs3oCotP8OZr6_5synod3cli7inspect15summarize_traceRNtNtCsg55jX0GwzBC_3std4path7PathBufEsp_0B8_
FN:268,_RNCINvNtNtCs3oCotP8OZr6_5synod3cli7inspect15summarize_traceRNtNtCsg55jX0GwzBC_3std4path7PathBufEsq_0B8_
FN:276,_RNCINvNtNtCs3oCotP8OZr6_5synod3cli7inspect15summarize_traceRNtNtCsg55jX0GwzBC_3std4path7PathBufEsr_0B8_
FN:326,_RNCINvNtNtCs3oCotP8OZr6_5synod3cli7inspect15summarize_traceRNtNtCsg55jX0GwzBC_3std4path7PathBufEss_0B8_
FN:327,_RNCINvNtNtCs3oCotP8OZr6_5synod3cli7inspect15summarize_traceRNtNtCsg55jX0GwzBC_3std4path7PathBufEst_0B8_
FN:351,_RNCINvNtNtCs3oCotP8OZr6_5synod3cli7inspect15summarize_traceRNtNtCsg55jX0GwzBC_3std4path7PathBufEsu_0B8_
FN:361,_RNCINvNtNtCs3oCotP8OZr6_5synod3cli7inspect15summarize_traceRNtNtCsg55jX0GwzBC_3std4path7PathBufEsv_0B8_
FN:389,_RNCINvNtNtCs3oCotP8OZr6_5synod3cli7inspect15summarize_traceRNtNtCsg55jX0GwzBC_3std4path7PathBufEsw_0B8_
FN:442,_RNCINvNtNtCs3oCotP8OZr6_5synod3cli7inspect15summarize_traceRNtNtCsg55jX0GwzBC_3std4path7PathBufEsx_0B8_
FN:447,_RNCINvNtNtCs3oCotP8OZr6_5synod3cli7inspect15summarize_traceRNtNtCsg55jX0GwzBC_3std4path7PathBufEsy_0B8_
FN:455,_RNCINvNtNtCs3oCotP8OZr6_5synod3cli7inspect15summarize_traceRNtNtCsg55jX0GwzBC_3std4path7PathBufEsz_0B8_
FN:162,_RNCINvNtNtCs3oCotP8OZr6_5synod3cli7inspect15summarize_traceReE0B8_
FN:169,_RNCINvNtNtCs3oCotP8OZr6_5synod3cli7inspect15summarize_traceReEs0_0B8_
FN:170,_RNCINvNtNtCs3oCotP8OZr6_5synod3cli7inspect15summarize_traceReEs1_0B8_
FN:171,_RNCINvNtNtCs3oCotP8OZr6_5synod3cli7inspect15summarize_traceReEs2_0B8_
FN:183,_RNCINvNtNtCs3oCotP8OZr6_5synod3cli7inspect15summarize_traceReEs3_0B8_
FN:184,_RNCINvNtNtCs3oCotP8OZr6_5synod3cli7inspect15summarize_traceReEs4_0B8_
FN:185,_RNCINvNtNtCs3oCotP8OZr6_5synod3cli7inspect15summarize_traceReEs5_0B8_
FN:197,_RNCINvNtNtCs3oCotP8OZr6_5synod3cli7inspect15summarize_traceReEs6_0B8_
FN:198,_RNCINvNtNtCs3oCotP8OZr6_5synod3cli7inspect15summarize_traceReEs7_0B8_
FN:204,_RNCINvNtNtCs3oCotP8OZr6_5synod3cli7inspect15summarize_traceReEs8_0B8_
FN:205,_RNCINvNtNtCs3oCotP8OZr6_5synod3cli7inspect15summarize_traceReEs9_0B8_
FN:461,_RNCINvNtNtCs3oCotP8OZr6_5synod3cli7inspect15summarize_traceReEsA_0B8_
FN:467,_RNCINvNtNtCs3oCotP8OZr6_5synod3cli7inspect15summarize_traceReEsB_0B8_
FN:472,_RNCINvNtNtCs3oCotP8OZr6_5synod3cli7inspect15summarize_traceReEsC_0B8_
FN:287,_RNCINvNtNtCs3oCotP8OZr6_5synod3cli7inspect15summarize_traceReEsD_0B8_
FN:292,_RNCINvNtNtCs3oCotP8OZr6_5synod3cli7inspect15summarize_traceReEsE_0B8_
FN:306,_RNCINvNtNtCs3oCotP8OZr6_5synod3cli7inspect15summarize_traceReEsF_0B8_
FN:311,_RNCINvNtNtCs3oCotP8OZr6_5synod3cli7inspect15summarize_traceReEsG_0B8_
FN:163,_RNCINvNtNtCs3oCotP8OZr6_5synod3cli7inspect15summarize_traceReEs_0B8_
FN:211,_RNCINvNtNtCs3oCotP8OZr6_5synod3cli7inspect15summarize_traceReEsa_0B8_
FN:212,_RNCINvNtNtCs3oCotP8OZr6_5synod3cli7inspect15summarize_traceReEsb_0B8_
FN:213,_RNCINvNtNtCs3oCotP8OZr6_5synod3cli7inspect15summarize_traceReEsc_0B8_
FN:225,_RNCINvNtNtCs3oCotP8OZr6_5synod3cli7inspect15summarize_traceReEsd_0B8_
FN:226,_RNCINvNtNtCs3oCotP8OZr6_5synod3cli7inspect15summarize_traceReEse_0B8_
FN:232,_RNCINvNtNtCs3oCotP8OZr6_5synod3cli7inspect15summarize_traceReEsf_0B8_
FN:233,_RNCINvNtNtCs3oCotP8OZr6_5synod3cli7inspect15summarize_traceReEsg_0B8_
FN:239,_RNCINvNtNtCs3oCotP8OZr6_5synod3cli7inspect15summarize_traceReEsh_0B8_
FN:240,_RNCINvNtNtCs3oCotP8OZr6_5synod3cli7inspect15summarize_traceReEsi_0B8_
FN:246,_RNCINvNtNtCs3oCotP8OZr6_5synod3cli7inspect15summarize_traceReEsj_0B8_
FN:247,_RNCINvNtNtCs3oCotP8OZr6_5synod3cli7inspect15summarize_traceReEsk_0B8_
FN:253,_RNCINvNtNtCs3oCotP8OZr6_5synod3cli7inspect15summarize_traceReEsl_0B8_
FN:254,_RNCINvNtNtCs3oCotP8OZr6_5synod3cli7inspect15summarize_traceReEsm_0B8_
FN:260,_RNCINvNtNtCs3oCotP8OZr6_5synod3cli7inspect15summarize_traceReEsn_0B8_
FN:261,_RNCINvNtNtCs3oCotP8OZr6_5synod3cli7inspect15summarize_traceReEso_0B8_
FN:267,_RNCINvNtNtCs3oCotP8OZr6_5synod3cli7inspect15summarize_traceReEsp_0B8_
FN:268,_RNCINvNtNtCs3oCotP8OZr6_5synod3cli7inspect15summarize_traceReEsq_0B8_
FN:276,_RNCINvNtNtCs3oCotP8OZr6_5synod3cli7inspect15summarize_traceReEsr_0B8_
FN:326,_RNCINvNtNtCs3oCotP8OZr6_5synod3cli7inspect15summarize_traceReEss_0B8_
FN:327,_RNCINvNtNtCs3oCotP8OZr6_5synod3cli7inspect15summarize_traceReEst_0B8_
FN:351,_RNCINvNtNtCs3oCotP8OZr6_5synod3cli7inspect15summarize_traceReEsu_0B8_
FN:361,_RNCINvNtNtCs3oCotP8OZr6_5synod3cli7inspect15summarize_traceReEsv_0B8_
FN:389,_RNCINvNtNtCs3oCotP8OZr6_5synod3cli7inspect15summarize_traceReEsw_0B8_
FN:442,_RNCINvNtNtCs3oCotP8OZr6_5synod3cli7inspect15summarize_traceReEsx_0B8_
FN:447,_RNCINvNtNtCs3oCotP8OZr6_5synod3cli7inspect15summarize_traceReEsy_0B8_
FN:455,_RNCINvNtNtCs3oCotP8OZr6_5synod3cli7inspect15summarize_traceReEsz_0B8_
FN:174,_RNCNCINvNtNtCs3oCotP8OZr6_5synod3cli7inspect15summarize_traceRNtNtCsg55jX0GwzBC_3std4path7PathBufEs2_00Ba_
FN:188,_RNCNCINvNtNtCs3oCotP8OZr6_5synod3cli7inspect15summarize_traceRNtNtCsg55jX0GwzBC_3std4path7PathBufEs5_00Ba_
FN:216,_RNCNCINvNtNtCs3oCotP8OZr6_5synod3cli7inspect15summarize_traceRNtNtCsg55jX0GwzBC_3std4path7PathBufEsc_00Ba_
FN:174,_RNCNCINvNtNtCs3oCotP8OZr6_5synod3cli7inspect15summarize_traceReEs2_00Ba_
FN:188,_RNCNCINvNtNtCs3oCotP8OZr6_5synod3cli7inspect15summarize_traceReEs5_00Ba_
FN:216,_RNCNCINvNtNtCs3oCotP8OZr6_5synod3cli7inspect15summarize_traceReEsc_00Ba_
FN:745,_RNCNCNvNtNtCs3oCotP8OZr6_5synod3cli7inspect20review_timeline_lines4_00B9_
FN:762,_RNCNCNvNtNtCs3oCotP8OZr6_5synod3cli7inspect20review_timeline_lines8_00B9_
FN:763,_RNCNCNvNtNtCs3oCotP8OZr6_5synod3cli7inspect20review_timeline_lines8_0s_0B9_
FN:986,_RNCNCNvNtNtCs3oCotP8OZr6_5synod3cli7inspect23adaptive_evidence_liness_00B9_
FN:804,_RNCNCNvNtNtCs3oCotP8OZr6_5synod3cli7inspect24governance_timeline_lines0_00B9_
FN:805,_RNCNCNvNtNtCs3oCotP8OZr6_5synod3cli7inspect24governance_timeline_lines0_0s_0B9_
FN:977,_RNCNCNvNtNtCs3oCotP8OZr6_5synod3cli7inspect25adaptive_selection_reasons_00B9_
FN:637,_RNCNCNvNtNtCs3oCotP8OZr6_5synod3cli7inspect25decision_failure_evidences1_00B9_
FN:638,_RNCNCNvNtNtCs3oCotP8OZr6_5synod3cli7inspect25decision_failure_evidences1_0s_0B9_
FN:665,_RNCNvNtNtCs3oCotP8OZr6_5synod3cli7inspect10load_trace0B7_
FN:77,_RNCNvNtNtCs3oCotP8OZr6_5synod3cli7inspect12render_error0B7_
FN:78,_RNCNvNtNtCs3oCotP8OZr6_5synod3cli7inspect12render_errors_0B7_
FN:855,_RNCNvNtNtCs3oCotP8OZr6_5synod3cli7inspect13reviewer_line0B7_
FN:861,_RNCNvNtNtCs3oCotP8OZr6_5synod3cli7inspect13reviewer_lines0_0B7_
FN:862,_RNCNvNtNtCs3oCotP8OZr6_5synod3cli7inspect13reviewer_lines1_0B7_
FN:871,_RNCNvNtNtCs3oCotP8OZr6_5synod3cli7inspect13reviewer_lines2_0B7_
FN:872,_RNCNvNtNtCs3oCotP8OZr6_5synod3cli7inspect13reviewer_lines3_0B7_
FN:859,_RNCNvNtNtCs3oCotP8OZr6_5synod3cli7inspect13reviewer_lines_0B7_
FN:942,_RNCNvNtNtCs3oCotP8OZr6_5synod3cli7inspect16failure_headline0B7_
FN:951,_RNCNvNtNtCs3oCotP8OZr6_5synod3cli7inspect16failure_headlines0_0B7_
FN:954,_RNCNvNtNtCs3oCotP8OZr6_5synod3cli7inspect16failure_headlines1_0B7_
FN:955,_RNCNvNtNtCs3oCotP8OZr6_5synod3cli7inspect16failure_headlines2_0B7_
FN:957,_RNCNvNtNtCs3oCotP8OZr6_5synod3cli7inspect16failure_headlines3_0B7_
FN:962,_RNCNvNtNtCs3oCotP8OZr6_5synod3cli7inspect16failure_headlines4_0B7_
FN:943,_RNCNvNtNtCs3oCotP8OZr6_5synod3cli7inspect16failure_headlines_0B7_
FN:890,_RNCNvNtNtCs3oCotP8OZr6_5synod3cli7inspect16success_headline0B7_
FN:892,_RNCNvNtNtCs3oCotP8OZr6_5synod3cli7inspect16success_headlines0_0B7_
FN:895,_RNCNvNtNtCs3oCotP8OZr6_5synod3cli7inspect16success_headlines1_0B7_
FN:896,_RNCNvNtNtCs3oCotP8OZr6_5synod3cli7inspect16success_headlines2_0B7_
FN:902,_RNCNvNtNtCs3oCotP8OZr6_5synod3cli7inspect16success_headlines3_0B7_
FN:903,_RNCNvNtNtCs3oCotP8OZr6_5synod3cli7inspect16success_headlines4_0B7_
FN:904,_RNCNvNtNtCs3oCotP8OZr6_5synod3cli7inspect16success_headlines5_0B7_
FN:906,_RNCNvNtNtCs3oCotP8OZr6_5synod3cli7inspect16success_headlines6_0B7_
FN:908,_RNCNvNtNtCs3oCotP8OZr6_5synod3cli7inspect16success_headlines7_0B7_
FN:909,_RNCNvNtNtCs3oCotP8OZr6_5synod3cli7inspect16success_headlines8_0B7_
FN:915,_RNCNvNtNtCs3oCotP8OZr6_5synod3cli7inspect16success_headlines9_0B7_
FN:891,_RNCNvNtNtCs3oCotP8OZr6_5synod3cli7inspect16success_headlines_0B7_
FN:916,_RNCNvNtNtCs3oCotP8OZr6_5synod3cli7inspect16success_headlinesa_0B7_
FN:919,_RNCNvNtNtCs3oCotP8OZr6_5synod3cli7inspect16success_headlinesb_0B7_
FN:925,_RNCNvNtNtCs3oCotP8OZr6_5synod3cli7inspect16success_headlinesc_0B7_
FN:927,_RNCNvNtNtCs3oCotP8OZr6_5synod3cli7inspect16success_headlinesd_0B7_
FN:929,_RNCNvNtNtCs3oCotP8OZr6_5synod3cli7inspect16success_headlinese_0B7_
FN:733,_RNCNvNtNtCs3oCotP8OZr6_5synod3cli7inspect20review_timeline_line0B7_
FN:737,_RNCNvNtNtCs3oCotP8OZr6_5synod3cli7inspect20review_timeline_lines0_0B7_
FN:738,_RNCNvNtNtCs3oCotP8OZr6_5synod3cli7inspect20review_timeline_lines1_0B7_
FN:742,_RNCNvNtNtCs3oCotP8OZr6_5synod3cli7inspect20review_timeline_lines2_0B7_
FN:743,_RNCNvNtNtCs3oCotP8OZr6_5synod3cli7inspect20review_timeline_lines3_0B7_
FN:744,_RNCNvNtNtCs3oCotP8OZr6_5synod3cli7inspect20review_timeline_lines4_0B7_
FN:753,_RNCNvNtNtCs3oCotP8OZr6_5synod3cli7inspect20review_timeline_lines5_0B7_
FN:757,_RNCNvNtNtCs3oCotP8OZr6_5synod3cli7inspect20review_timeline_lines6_0B7_
FN:758,_RNCNvNtNtCs3oCotP8OZr6_5synod3cli7inspect20review_timeline_lines7_0B7_
FN:759,_RNCNvNtNtCs3oCotP8OZr6_5synod3cli7inspect20review_timeline_lines8_0B7_
FN:734,_RNCNvNtNtCs3oCotP8OZr6_5synod3cli7inspect20review_timeline_lines_0B7_
FN:985,_RNCNvNtNtCs3oCotP8OZr6_5synod3cli7inspect23adaptive_evidence_lines0B7_
FN:991,_RNCNvNtNtCs3oCotP8OZr6_5synod3cli7inspect23adaptive_evidence_liness0_0B7_
FN:996,_RNCNvNtNtCs3oCotP8OZr6_5synod3cli7inspect23adaptive_evidence_liness1_0B7_
FN:1001,_RNCNvNtNtCs3oCotP8OZr6_5synod3cli7inspect23adaptive_evidence_liness2_0B7_
FN:1006,_RNCNvNtNtCs3oCotP8OZr6_5synod3cli7inspect23adaptive_evidence_liness3_0B7_
FN:1007,_RNCNvNtNtCs3oCotP8OZr6_5synod3cli7inspect23adaptive_evidence_liness4_0B7_
FN:1014,_RNCNvNtNtCs3oCotP8OZr6_5synod3cli7inspect23adaptive_evidence_liness5_0B7_
FN:1015,_RNCNvNtNtCs3oCotP8OZr6_5synod3cli7inspect23adaptive_evidence_liness6_0B7_
FN:985,_RNCNvNtNtCs3oCotP8OZr6_5synod3cli7inspect23adaptive_evidence_liness_0B7_
FN:576,_RNCNvNtNtCs3oCotP8OZr6_5synod3cli7inspect23decision_timeline_lines0B7_
FN:583,_RNCNvNtNtCs3oCotP8OZr6_5synod3cli7inspect23decision_timeline_liness0_0B7_
FN:587,_RNCNvNtNtCs3oCotP8OZr6_5synod3cli7inspect23decision_timeline_liness1_0B7_
FN:591,_RNCNvNtNtCs3oCotP8OZr6_5synod3cli7inspect23decision_timeline_liness2_0B7_
FN:595,_RNCNvNtNtCs3oCotP8OZr6_5synod3cli7inspect23decision_timeline_liness3_0B7_
FN:614,_RNCNvNtNtCs3oCotP8OZr6_5synod3cli7inspect23decision_timeline_liness4_0B7_
FN:581,_RNCNvNtNtCs3oCotP8OZr6_5synod3cli7inspect23decision_timeline_liness_0B7_
FN:799,_RNCNvNtNtCs3oCotP8OZr6_5synod3cli7inspect24governance_timeline_line0B7_
FN:801,_RNCNvNtNtCs3oCotP8OZr6_5synod3cli7inspect24governance_timeline_lines0_0B7_
FN:776,_RNCNvNtNtCs3oCotP8OZr6_5synod3cli7inspect24governance_timeline_lines1_0B7_
FN:779,_RNCNvNtNtCs3oCotP8OZr6_5synod3cli7inspect24governance_timeline_lines2_0B7_
FN:784,_RNCNvNtNtCs3oCotP8OZr6_5synod3cli7inspect24governance_timeline_lines3_0B7_
FN:787,_RNCNvNtNtCs3oCotP8OZr6_5synod3cli7inspect24governance_timeline_lines4_0B7_
FN:788,_RNCNvNtNtCs3oCotP8OZr6_5synod3cli7inspect24governance_timeline_lines5_0B7_
FN:792,_RNCNvNtNtCs3oCotP8OZr6_5synod3cli7inspect24governance_timeline_lines6_0B7_
FN:793,_RNCNvNtNtCs3oCotP8OZr6_5synod3cli7inspect24governance_timeline_lines7_0B7_
FN:809,_RNCNvNtNtCs3oCotP8OZr6_5synod3cli7inspect24governance_timeline_lines8_0B7_
FN:810,_RNCNvNtNtCs3oCotP8OZr6_5synod3cli7inspect24governance_timeline_lines9_0B7_
FN:800,_RNCNvNtNtCs3oCotP8OZr6_5synod3cli7inspect24governance_timeline_lines_0B7_
FN:813,_RNCNvNtNtCs3oCotP8OZr6_5synod3cli7inspect24governance_timeline_linesa_0B7_
FN:814,_RNCNvNtNtCs3oCotP8OZr6_5synod3cli7inspect24governance_timeline_linesb_0B7_
FN:822,_RNCNvNtNtCs3oCotP8OZr6_5synod3cli7inspect24governance_timeline_linesc_0B7_
FN:826,_RNCNvNtNtCs3oCotP8OZr6_5synod3cli7inspect24governance_timeline_linesd_0B7_
FN:827,_RNCNvNtNtCs3oCotP8OZr6_5synod3cli7inspect24governance_timeline_linese_0B7_
FN:833,_RNCNvNtNtCs3oCotP8OZr6_5synod3cli7inspect24governance_timeline_linesf_0B7_
FN:838,_RNCNvNtNtCs3oCotP8OZr6_5synod3cli7inspect24governance_timeline_linesg_0B7_
FN:976,_RNCNvNtNtCs3oCotP8OZr6_5synod3cli7inspect25adaptive_selection_reason0B7_
FN:978,_RNCNvNtNtCs3oCotP8OZr6_5synod3cli7inspect25adaptive_selection_reasons0_0B7_
FN:979,_RNCNvNtNtCs3oCotP8OZr6_5synod3cli7inspect25adaptive_selection_reasons1_0B7_
FN:977,_RNCNvNtNtCs3oCotP8OZr6_5synod3cli7inspect25adaptive_selection_reasons_0B7_
FN:627,_RNCNvNtNtCs3oCotP8OZr6_5synod3cli7inspect25decision_failure_evidence0B7_
FN:633,_RNCNvNtNtCs3oCotP8OZr6_5synod3cli7inspect25decision_failure_evidences0_0B7_
FN:634,_RNCNvNtNtCs3oCotP8OZr6_5synod3cli7inspect25decision_failure_evidences1_0B7_
FN:632,_RNCNvNtNtCs3oCotP8OZr6_5synod3cli7inspect25decision_failure_evidences_0B7_
FN:847,_RNCNvNtNtCs3oCotP8OZr6_5synod3cli7inspect35governance_packet_provenance_suffix0B7_
FN:850,_RNCNvNtNtCs3oCotP8OZr6_5synod3cli7inspect35governance_packet_provenance_suffixs0_0B7_
FN:848,_RNCNvNtNtCs3oCotP8OZr6_5synod3cli7inspect35governance_packet_provenance_suffixs_0B7_
FN:36,_RNvMNtNtCs3oCotP8OZr6_5synod3cli7inspectNtB2_21TraceResolutionTarget6as_str
FN:650,_RNvNtNtCs3oCotP8OZr6_5synod3cli7inspect10load_trace
FN:67,_RNvNtNtCs3oCotP8OZr6_5synod3cli7inspect12render_error
FN:854,_RNvNtNtCs3oCotP8OZr6_5synod3cli7inspect13reviewer_line
FN:45,_RNvNtNtCs3oCotP8OZr6_5synod3cli7inspect15execute_inspect
FN:1023,_RNvNtNtCs3oCotP8OZr6_5synod3cli7inspect15parse_step_kind
FN:939,_RNvNtNtCs3oCotP8OZr6_5synod3cli7inspect16failure_headline
FN:886,_RNvNtNtCs3oCotP8OZr6_5synod3cli7inspect16success_headline
FN:718,_RNvNtNtCs3oCotP8OZr6_5synod3cli7inspect17corrected_command
FN:684,_RNvNtNtCs3oCotP8OZr6_5synod3cli7inspect18resolve_trace_path
FN:729,_RNvNtNtCs3oCotP8OZr6_5synod3cli7inspect20review_timeline_line
FN:644,_RNvNtNtCs3oCotP8OZr6_5synod3cli7inspect21format_evidence_input
FN:708,_RNvNtNtCs3oCotP8OZr6_5synod3cli7inspect21inspection_target_for
FN:982,_RNvNtNtCs3oCotP8OZr6_5synod3cli7inspect23adaptive_evidence_lines
FN:570,_RNvNtNtCs3oCotP8OZr6_5synod3cli7inspect23decision_timeline_lines
FN:769,_RNvNtNtCs3oCotP8OZr6_5synod3cli7inspect24governance_timeline_line
FN:973,_RNvNtNtCs3oCotP8OZr6_5synod3cli7inspect25adaptive_selection_reason
FN:622,_RNvNtNtCs3oCotP8OZr6_5synod3cli7inspect25decision_failure_evidence
FN:673,_RNvNtNtCs3oCotP8OZr6_5synod3cli7inspect25resolve_session_trace_ref
FN:875,_RNvNtNtCs3oCotP8OZr6_5synod3cli7inspect30synthesized_in_progress_reason
FN:845,_RNvNtNtCs3oCotP8OZr6_5synod3cli7inspect35governance_packet_provenance_suffix
FNDA:0,_RNvNtNtCs3oCotP8OZr6_5synod3cli7inspect33render_inspection_routing_summary
FNDA:1,_RNCNvNtNtNtCs3oCotP8OZr6_5synod3cli7inspect5testss_72summarize_trace_synthesizes_running_summary_for_paused_governance_traces0B9_
FNDA:1,_RNvNtNtNtCs3oCotP8OZr6_5synod3cli7inspect5tests14temp_workspace
FNDA:4,_RNvNtNtNtCs3oCotP8OZr6_5synod3cli7inspect5tests14terminal_trace
FNDA:1,_RNvNtNtNtCs3oCotP8OZr6_5synod3cli7inspect5testss_46summarize_trace_collects_review_timeline_lines
FNDA:1,_RNvNtNtNtCs3oCotP8OZr6_5synod3cli7inspect5testss_52render_error_maps_session_store_and_summary_failures
FNDA:1,_RNvNtNtNtCs3oCotP8OZr6_5synod3cli7inspect5testss_53summarize_trace_reports_missing_step_id_and_step_kind
FNDA:1,_RNvNtNtNtCs3oCotP8OZr6_5synod3cli7inspect5testss_62inspection_helpers_cover_default_headlines_and_command_targets
FNDA:1,_RNvNtNtNtCs3oCotP8OZr6_5synod3cli7inspect5testss_72resolve_session_trace_ref_maps_invalid_records_to_invalid_session_errors
FNDA:1,_RNvNtNtNtCs3oCotP8OZr6_5synod3cli7inspect5testss_72summarize_trace_synthesizes_running_summary_for_paused_governance_traces
FNDA:1,_RNvNtNtNtCs3oCotP8OZr6_5synod3cli7inspect5testss_79summarize_trace_collects_recovery_events_and_headlines_from_validation_payloads
FNDA:2,_RINvNtNtCs3oCotP8OZr6_5synod3cli7inspect15summarize_traceRNtNtCsg55jX0GwzBC_3std4path7PathBufEB6_
FNDA:5,_RINvNtNtCs3oCotP8OZr6_5synod3cli7inspect15summarize_traceReEB6_
FNDA:1,_RNCINvNtNtCs3oCotP8OZr6_5synod3cli7inspect15summarize_traceRNtNtCsg55jX0GwzBC_3std4path7PathBufE0B8_
FNDA:1,_RNCINvNtNtCs3oCotP8OZr6_5synod3cli7inspect15summarize_traceRNtNtCsg55jX0GwzBC_3std4path7PathBufEs0_0B8_
FNDA:1,_RNCINvNtNtCs3oCotP8OZr6_5synod3cli7inspect15summarize_traceRNtNtCsg55jX0GwzBC_3std4path7PathBufEs1_0B8_
FNDA:1,_RNCINvNtNtCs3oCotP8OZr6_5synod3cli7inspect15summarize_traceRNtNtCsg55jX0GwzBC_3std4path7PathBufEs2_0B8_
FNDA:1,_RNCINvNtNtCs3oCotP8OZr6_5synod3cli7inspect15summarize_traceRNtNtCsg55jX0GwzBC_3std4path7PathBufEs3_0B8_
FNDA:0,_RNCINvNtNtCs3oCotP8OZr6_5synod3cli7inspect15summarize_traceRNtNtCsg55jX0GwzBC_3std4path7PathBufEs4_0B8_
FNDA:0,_RNCINvNtNtCs3oCotP8OZr6_5synod3cli7inspect15summarize_traceRNtNtCsg55jX0GwzBC_3std4path7PathBufEs5_0B8_
FNDA:1,_RNCINvNtNtCs3oCotP8OZr6_5synod3cli7inspect15summarize_traceRNtNtCsg55jX0GwzBC_3std4path7PathBufEs6_0B8_
FNDA:0,_RNCINvNtNtCs3oCotP8OZr6_5synod3cli7inspect15summarize_traceRNtNtCsg55jX0GwzBC_3std4path7PathBufEs7_0B8_
FNDA:1,_RNCINvNtNtCs3oCotP8OZr6_5synod3cli7inspect15summarize_traceRNtNtCsg55jX0GwzBC_3std4path7PathBufEs8_0B8_
FNDA:0,_RNCINvNtNtCs3oCotP8OZr6_5synod3cli7inspect15summarize_traceRNtNtCsg55jX0GwzBC_3std4path7PathBufEs9_0B8_
FNDA:1,_RNCINvNtNtCs3oCotP8OZr6_5synod3cli7inspect15summarize_traceRNtNtCsg55jX0GwzBC_3std4path7PathBufEsA_0B8_
FNDA:1,_RNCINvNtNtCs3oCotP8OZr6_5synod3cli7inspect15summarize_traceRNtNtCsg55jX0GwzBC_3std4path7PathBufEsB_0B8_
FNDA:0,_RNCINvNtNtCs3oCotP8OZr6_5synod3cli7inspect15summarize_traceRNtNtCsg55jX0GwzBC_3std4path7PathBufEsC_0B8_
FNDA:1,_RNCINvNtNtCs3oCotP8OZr6_5synod3cli7inspect15summarize_traceRNtNtCsg55jX0GwzBC_3std4path7PathBufEsD_0B8_
FNDA:1,_RNCINvNtNtCs3oCotP8OZr6_5synod3cli7inspect15summarize_traceRNtNtCsg55jX0GwzBC_3std4path7PathBufEsE_0B8_
FNDA:3,_RNCINvNtNtCs3oCotP8OZr6_5synod3cli7inspect15summarize_traceRNtNtCsg55jX0GwzBC_3std4path7PathBufEsF_0B8_
FNDA:3,_RNCINvNtNtCs3oCotP8OZr6_5synod3cli7inspect15summarize_traceRNtNtCsg55jX0GwzBC_3std4path7PathBufEsG_0B8_
FNDA:1,_RNCINvNtNtCs3oCotP8OZr6_5synod3cli7inspect15summarize_traceRNtNtCsg55jX0GwzBC_3std4path7PathBufEs_0B8_
FNDA:1,_RNCINvNtNtCs3oCotP8OZr6_5synod3cli7inspect15summarize_traceRNtNtCsg55jX0GwzBC_3std4path7PathBufEsa_0B8_
FNDA:0,_RNCINvNtNtCs3oCotP8OZr6_5synod3cli7inspect15summarize_traceRNtNtCsg55jX0GwzBC_3std4path7PathBufEsb_0B8_
FNDA:0,_RNCINvNtNtCs3oCotP8OZr6_5synod3cli7inspect15summarize_traceRNtNtCsg55jX0GwzBC_3std4path7PathBufEsc_0B8_
FNDA:1,_RNCINvNtNtCs3oCotP8OZr6_5synod3cli7inspect15summarize_traceRNtNtCsg55jX0GwzBC_3std4path7PathBufEsd_0B8_
FNDA:0,_RNCINvNtNtCs3oCotP8OZr6_5synod3cli7inspect15summarize_traceRNtNtCsg55jX0GwzBC_3std4path7PathBufEse_0B8_
FNDA:1,_RNCINvNtNtCs3oCotP8OZr6_5synod3cli7inspect15summarize_traceRNtNtCsg55jX0GwzBC_3std4path7PathBufEsf_0B8_
FNDA:0,_RNCINvNtNtCs3oCotP8OZr6_5synod3cli7inspect15summarize_traceRNtNtCsg55jX0GwzBC_3std4path7PathBufEsg_0B8_
FNDA:1,_RNCINvNtNtCs3oCotP8OZr6_5synod3cli7inspect15summarize_traceRNtNtCsg55jX0GwzBC_3std4path7PathBufEsh_0B8_
FNDA:0,_RNCINvNtNtCs3oCotP8OZr6_5synod3cli7inspect15summarize_traceRNtNtCsg55jX0GwzBC_3std4path7PathBufEsi_0B8_
FNDA:1,_RNCINvNtNtCs3oCotP8OZr6_5synod3cli7inspect15summarize_traceRNtNtCsg55jX0GwzBC_3std4path7PathBufEsj_0B8_
FNDA:0,_RNCINvNtNtCs3oCotP8OZr6_5synod3cli7inspect15summarize_traceRNtNtCsg55jX0GwzBC_3std4path7PathBufEsk_0B8_
FNDA:1,_RNCINvNtNtCs3oCotP8OZr6_5synod3cli7inspect15summarize_traceRNtNtCsg55jX0GwzBC_3std4path7PathBufEsl_0B8_
FNDA:1,_RNCINvNtNtCs3oCotP8OZr6_5synod3cli7inspect15summarize_traceRNtNtCsg55jX0GwzBC_3std4path7PathBufEsm_0B8_
FNDA:1,_RNCINvNtNtCs3oCotP8OZr6_5synod3cli7inspect15summarize_traceRNtNtCsg55jX0GwzBC_3std4path7PathBufEsn_0B8_
FNDA:1,_RNCINvNtNtCs3oCotP8OZr6_5synod3cli7inspect15summarize_traceRNtNtCsg55jX0GwzBC_3std4path7PathBufEso_0B8_
FNDA:1,_RNCINvNtNtCs3oCotP8OZr6_5synod3cli7inspect15summarize_traceRNtNtCsg55jX0GwzBC_3std4path7PathBufEsp_0B8_
FNDA:1,_RNCINvNtNtCs3oCotP8OZr6_5synod3cli7inspect15summarize_traceRNtNtCsg55jX0GwzBC_3std4path7PathBufEsq_0B8_
FNDA:1,_RNCINvNtNtCs3oCotP8OZr6_5synod3cli7inspect15summarize_traceRNtNtCsg55jX0GwzBC_3std4path7PathBufEsr_0B8_
FNDA:8,_RNCINvNtNtCs3oCotP8OZr6_5synod3cli7inspect15summarize_traceRNtNtCsg55jX0GwzBC_3std4path7PathBufEss_0B8_
FNDA:0,_RNCINvNtNtCs3oCotP8OZr6_5synod3cli7inspect15summarize_traceRNtNtCsg55jX0GwzBC_3std4path7PathBufEst_0B8_
FNDA:8,_RNCINvNtNtCs3oCotP8OZr6_5synod3cli7inspect15summarize_traceRNtNtCsg55jX0GwzBC_3std4path7PathBufEsu_0B8_
FNDA:0,_RNCINvNtNtCs3oCotP8OZr6_5synod3cli7inspect15summarize_traceRNtNtCsg55jX0GwzBC_3std4path7PathBufEsv_0B8_
FNDA:1,_RNCINvNtNtCs3oCotP8OZr6_5synod3cli7inspect15summarize_traceRNtNtCsg55jX0GwzBC_3std4path7PathBufEsw_0B8_
FNDA:1,_RNCINvNtNtCs3oCotP8OZr6_5synod3cli7inspect15summarize_traceRNtNtCsg55jX0GwzBC_3std4path7PathBufEsx_0B8_
FNDA:1,_RNCINvNtNtCs3oCotP8OZr6_5synod3cli7inspect15summarize_traceRNtNtCsg55jX0GwzBC_3std4path7PathBufEsy_0B8_
FNDA:1,_RNCINvNtNtCs3oCotP8OZr6_5synod3cli7inspect15summarize_traceRNtNtCsg55jX0GwzBC_3std4path7PathBufEsz_0B8_
FNDA:0,_RNCINvNtNtCs3oCotP8OZr6_5synod3cli7inspect15summarize_traceReE0B8_
FNDA:0,_RNCINvNtNtCs3oCotP8OZr6_5synod3cli7inspect15summarize_traceReEs0_0B8_
FNDA:0,_RNCINvNtNtCs3oCotP8OZr6_5synod3cli7inspect15summarize_traceReEs1_0B8_
FNDA:0,_RNCINvNtNtCs3oCotP8OZr6_5synod3cli7inspect15summarize_traceReEs2_0B8_
FNDA:0,_RNCINvNtNtCs3oCotP8OZr6_5synod3cli7inspect15summarize_traceReEs3_0B8_
FNDA:0,_RNCINvNtNtCs3oCotP8OZr6_5synod3cli7inspect15summarize_traceReEs4_0B8_
FNDA:0,_RNCINvNtNtCs3oCotP8OZr6_5synod3cli7inspect15summarize_traceReEs5_0B8_
FNDA:0,_RNCINvNtNtCs3oCotP8OZr6_5synod3cli7inspect15summarize_traceReEs6_0B8_
FNDA:0,_RNCINvNtNtCs3oCotP8OZr6_5synod3cli7inspect15summarize_traceReEs7_0B8_
FNDA:0,_RNCINvNtNtCs3oCotP8OZr6_5synod3cli7inspect15summarize_traceReEs8_0B8_
FNDA:0,_RNCINvNtNtCs3oCotP8OZr6_5synod3cli7inspect15summarize_traceReEs9_0B8_
FNDA:0,_RNCINvNtNtCs3oCotP8OZr6_5synod3cli7inspect15summarize_traceReEsA_0B8_
FNDA:0,_RNCINvNtNtCs3oCotP8OZr6_5synod3cli7inspect15summarize_traceReEsB_0B8_
FNDA:0,_RNCINvNtNtCs3oCotP8OZr6_5synod3cli7inspect15summarize_traceReEsC_0B8_
FNDA:0,_RNCINvNtNtCs3oCotP8OZr6_5synod3cli7inspect15summarize_traceReEsD_0B8_
FNDA:0,_RNCINvNtNtCs3oCotP8OZr6_5synod3cli7inspect15summarize_traceReEsE_0B8_
FNDA:0,_RNCINvNtNtCs3oCotP8OZr6_5synod3cli7inspect15summarize_traceReEsF_0B8_
FNDA:0,_RNCINvNtNtCs3oCotP8OZr6_5synod3cli7inspect15summarize_traceReEsG_0B8_
FNDA:0,_RNCINvNtNtCs3oCotP8OZr6_5synod3cli7inspect15summarize_traceReEs_0B8_
FNDA:0,_RNCINvNtNtCs3oCotP8OZr6_5synod3cli7inspect15summarize_traceReEsa_0B8_
FNDA:0,_RNCINvNtNtCs3oCotP8OZr6_5synod3cli7inspect15summarize_traceReEsb_0B8_
FNDA:0,_RNCINvNtNtCs3oCotP8OZr6_5synod3cli7inspect15summarize_traceReEsc_0B8_
FNDA:0,_RNCINvNtNtCs3oCotP8OZr6_5synod3cli7inspect15summarize_traceReEsd_0B8_
FNDA:0,_RNCINvNtNtCs3oCotP8OZr6_5synod3cli7inspect15summarize_traceReEse_0B8_
FNDA:0,_RNCINvNtNtCs3oCotP8OZr6_5synod3cli7inspect15summarize_traceReEsf_0B8_
FNDA:0,_RNCINvNtNtCs3oCotP8OZr6_5synod3cli7inspect15summarize_traceReEsg_0B8_
FNDA:0,_RNCINvNtNtCs3oCotP8OZr6_5synod3cli7inspect15summarize_traceReEsh_0B8_
FNDA:0,_RNCINvNtNtCs3oCotP8OZr6_5synod3cli7inspect15summarize_traceReEsi_0B8_
FNDA:0,_RNCINvNtNtCs3oCotP8OZr6_5synod3cli7inspect15summarize_traceReEsj_0B8_
FNDA:0,_RNCINvNtNtCs3oCotP8OZr6_5synod3cli7inspect15summarize_traceReEsk_0B8_
FNDA:0,_RNCINvNtNtCs3oCotP8OZr6_5synod3cli7inspect15summarize_traceReEsl_0B8_
FNDA:0,_RNCINvNtNtCs3oCotP8OZr6_5synod3cli7inspect15summarize_traceReEsm_0B8_
FNDA:0,_RNCINvNtNtCs3oCotP8OZr6_5synod3cli7inspect15summarize_traceReEsn_0B8_
FNDA:0,_RNCINvNtNtCs3oCotP8OZr6_5synod3cli7inspect15summarize_traceReEso_0B8_
FNDA:0,_RNCINvNtNtCs3oCotP8OZr6_5synod3cli7inspect15summarize_traceReEsp_0B8_
FNDA:0,_RNCINvNtNtCs3oCotP8OZr6_5synod3cli7inspect15summarize_traceReEsq_0B8_
FNDA:0,_RNCINvNtNtCs3oCotP8OZr6_5synod3cli7inspect15summarize_traceReEsr_0B8_
FNDA:1,_RNCINvNtNtCs3oCotP8OZr6_5synod3cli7inspect15summarize_traceReEss_0B8_
FNDA:1,_RNCINvNtNtCs3oCotP8OZr6_5synod3cli7inspect15summarize_traceReEst_0B8_
FNDA:1,_RNCINvNtNtCs3oCotP8OZr6_5synod3cli7inspect15summarize_traceReEsu_0B8_
FNDA:0,_RNCINvNtNtCs3oCotP8OZr6_5synod3cli7inspect15summarize_traceReEsv_0B8_
FNDA:0,_RNCINvNtNtCs3oCotP8OZr6_5synod3cli7inspect15summarize_traceReEsw_0B8_
FNDA:0,_RNCINvNtNtCs3oCotP8OZr6_5synod3cli7inspect15summarize_traceReEsx_0B8_
FNDA:0,_RNCINvNtNtCs3oCotP8OZr6_5synod3cli7inspect15summarize_traceReEsy_0B8_
FNDA:0,_RNCINvNtNtCs3oCotP8OZr6_5synod3cli7inspect15summarize_traceReEsz_0B8_
FNDA:1,_RNCNCINvNtNtCs3oCotP8OZr6_5synod3cli7inspect15summarize_traceRNtNtCsg55jX0GwzBC_3std4path7PathBufEs2_00Ba_
FNDA:0,_RNCNCINvNtNtCs3oCotP8OZr6_5synod3cli7inspect15summarize_traceRNtNtCsg55jX0GwzBC_3std4path7PathBufEs5_00Ba_
FNDA:0,_RNCNCINvNtNtCs3oCotP8OZr6_5synod3cli7inspect15summarize_traceRNtNtCsg55jX0GwzBC_3std4path7PathBufEsc_00Ba_
FNDA:0,_RNCNCINvNtNtCs3oCotP8OZr6_5synod3cli7inspect15summarize_traceReEs2_00Ba_
FNDA:0,_RNCNCINvNtNtCs3oCotP8OZr6_5synod3cli7inspect15summarize_traceReEs5_00Ba_
FNDA:0,_RNCNCINvNtNtCs3oCotP8OZr6_5synod3cli7inspect15summarize_traceReEsc_00Ba_
FNDA:0,_RNCNCNvNtNtCs3oCotP8OZr6_5synod3cli7inspect20review_timeline_lines4_00B9_
FNDA:0,_RNCNCNvNtNtCs3oCotP8OZr6_5synod3cli7inspect20review_timeline_lines8_00B9_
FNDA:0,_RNCNCNvNtNtCs3oCotP8OZr6_5synod3cli7inspect20review_timeline_lines8_0s_0B9_
FNDA:9,_RNCNCNvNtNtCs3oCotP8OZr6_5synod3cli7inspect23adaptive_evidence_liness_00B9_
FNDA:0,_RNCNCNvNtNtCs3oCotP8OZr6_5synod3cli7inspect24governance_timeline_lines0_00B9_
FNDA:0,_RNCNCNvNtNtCs3oCotP8OZr6_5synod3cli7inspect24governance_timeline_lines0_0s_0B9_
FNDA:8,_RNCNCNvNtNtCs3oCotP8OZr6_5synod3cli7inspect25adaptive_selection_reasons_00B9_
FNDA:0,_RNCNCNvNtNtCs3oCotP8OZr6_5synod3cli7inspect25decision_failure_evidences1_00B9_
FNDA:0,_RNCNCNvNtNtCs3oCotP8OZr6_5synod3cli7inspect25decision_failure_evidences1_0s_0B9_
FNDA:0,_RNCNvNtNtCs3oCotP8OZr6_5synod3cli7inspect10load_trace0B7_
FNDA:0,_RNCNvNtNtCs3oCotP8OZr6_5synod3cli7inspect12render_error0B7_
FNDA:3,_RNCNvNtNtCs3oCotP8OZr6_5synod3cli7inspect12render_errors_0B7_
FNDA:3,_RNCNvNtNtCs3oCotP8OZr6_5synod3cli7inspect13reviewer_line0B7_
FNDA:3,_RNCNvNtNtCs3oCotP8OZr6_5synod3cli7inspect13reviewer_lines0_0B7_
FNDA:3,_RNCNvNtNtCs3oCotP8OZr6_5synod3cli7inspect13reviewer_lines1_0B7_
FNDA:0,_RNCNvNtNtCs3oCotP8OZr6_5synod3cli7inspect13reviewer_lines2_0B7_
FNDA:0,_RNCNvNtNtCs3oCotP8OZr6_5synod3cli7inspect13reviewer_lines3_0B7_
FNDA:3,_RNCNvNtNtCs3oCotP8OZr6_5synod3cli7inspect13reviewer_lines_0B7_
FNDA:2,_RNCNvNtNtCs3oCotP8OZr6_5synod3cli7inspect16failure_headline0B7_
FNDA:2,_RNCNvNtNtCs3oCotP8OZr6_5synod3cli7inspect16failure_headlines0_0B7_
FNDA:1,_RNCNvNtNtCs3oCotP8OZr6_5synod3cli7inspect16failure_headlines1_0B7_
FNDA:1,_RNCNvNtNtCs3oCotP8OZr6_5synod3cli7inspect16failure_headlines2_0B7_
FNDA:1,_RNCNvNtNtCs3oCotP8OZr6_5synod3cli7inspect16failure_headlines3_0B7_
FNDA:0,_RNCNvNtNtCs3oCotP8OZr6_5synod3cli7inspect16failure_headlines4_0B7_
FNDA:0,_RNCNvNtNtCs3oCotP8OZr6_5synod3cli7inspect16failure_headlines_0B7_
FNDA:8,_RNCNvNtNtCs3oCotP8OZr6_5synod3cli7inspect16success_headline0B7_
FNDA:0,_RNCNvNtNtCs3oCotP8OZr6_5synod3cli7inspect16success_headlines0_0B7_
FNDA:0,_RNCNvNtNtCs3oCotP8OZr6_5synod3cli7inspect16success_headlines1_0B7_
FNDA:0,_RNCNvNtNtCs3oCotP8OZr6_5synod3cli7inspect16success_headlines2_0B7_
FNDA:8,_RNCNvNtNtCs3oCotP8OZr6_5synod3cli7inspect16success_headlines3_0B7_
FNDA:1,_RNCNvNtNtCs3oCotP8OZr6_5synod3cli7inspect16success_headlines4_0B7_
FNDA:1,_RNCNvNtNtCs3oCotP8OZr6_5synod3cli7inspect16success_headlines5_0B7_
FNDA:1,_RNCNvNtNtCs3oCotP8OZr6_5synod3cli7inspect16success_headlines6_0B7_
FNDA:1,_RNCNvNtNtCs3oCotP8OZr6_5synod3cli7inspect16success_headlines7_0B7_
FNDA:1,_RNCNvNtNtCs3oCotP8OZr6_5synod3cli7inspect16success_headlines8_0B7_
FNDA:7,_RNCNvNtNtCs3oCotP8OZr6_5synod3cli7inspect16success_headlines9_0B7_
FNDA:0,_RNCNvNtNtCs3oCotP8OZr6_5synod3cli7inspect16success_headlines_0B7_
FNDA:0,_RNCNvNtNtCs3oCotP8OZr6_5synod3cli7inspect16success_headlinesa_0B7_
FNDA:0,_RNCNvNtNtCs3oCotP8OZr6_5synod3cli7inspect16success_headlinesb_0B7_
FNDA:7,_RNCNvNtNtCs3oCotP8OZr6_5synod3cli7inspect16success_headlinesc_0B7_
FNDA:2,_RNCNvNtNtCs3oCotP8OZr6_5synod3cli7inspect16success_headlinesd_0B7_
FNDA:2,_RNCNvNtNtCs3oCotP8OZr6_5synod3cli7inspect16success_headlinese_0B7_
FNDA:2,_RNCNvNtNtCs3oCotP8OZr6_5synod3cli7inspect20review_timeline_line0B7_
FNDA:0,_RNCNvNtNtCs3oCotP8OZr6_5synod3cli7inspect20review_timeline_lines0_0B7_
FNDA:0,_RNCNvNtNtCs3oCotP8OZr6_5synod3cli7inspect20review_timeline_lines1_0B7_
FNDA:2,_RNCNvNtNtCs3oCotP8OZr6_5synod3cli7inspect20review_timeline_lines2_0B7_
FNDA:2,_RNCNvNtNtCs3oCotP8OZr6_5synod3cli7inspect20review_timeline_lines3_0B7_
FNDA:0,_RNCNvNtNtCs3oCotP8OZr6_5synod3cli7inspect20review_timeline_lines4_0B7_
FNDA:0,_RNCNvNtNtCs3oCotP8OZr6_5synod3cli7inspect20review_timeline_lines5_0B7_
FNDA:2,_RNCNvNtNtCs3oCotP8OZr6_5synod3cli7inspect20review_timeline_lines6_0B7_
FNDA:2,_RNCNvNtNtCs3oCotP8OZr6_5synod3cli7inspect20review_timeline_lines7_0B7_
FNDA:0,_RNCNvNtNtCs3oCotP8OZr6_5synod3cli7inspect20review_timeline_lines8_0B7_
FNDA:2,_RNCNvNtNtCs3oCotP8OZr6_5synod3cli7inspect20review_timeline_lines_0B7_
FNDA:7,_RNCNvNtNtCs3oCotP8OZr6_5synod3cli7inspect23adaptive_evidence_lines0B7_
FNDA:0,_RNCNvNtNtCs3oCotP8OZr6_5synod3cli7inspect23adaptive_evidence_liness0_0B7_
FNDA:0,_RNCNvNtNtCs3oCotP8OZr6_5synod3cli7inspect23adaptive_evidence_liness1_0B7_
FNDA:0,_RNCNvNtNtCs3oCotP8OZr6_5synod3cli7inspect23adaptive_evidence_liness2_0B7_
FNDA:0,_RNCNvNtNtCs3oCotP8OZr6_5synod3cli7inspect23adaptive_evidence_liness3_0B7_
FNDA:0,_RNCNvNtNtCs3oCotP8OZr6_5synod3cli7inspect23adaptive_evidence_liness4_0B7_
FNDA:9,_RNCNvNtNtCs3oCotP8OZr6_5synod3cli7inspect23adaptive_evidence_liness5_0B7_
FNDA:0,_RNCNvNtNtCs3oCotP8OZr6_5synod3cli7inspect23adaptive_evidence_liness6_0B7_
FNDA:9,_RNCNvNtNtCs3oCotP8OZr6_5synod3cli7inspect23adaptive_evidence_liness_0B7_
FNDA:9,_RNCNvNtNtCs3oCotP8OZr6_5synod3cli7inspect23decision_timeline_lines0B7_
FNDA:3,_RNCNvNtNtCs3oCotP8OZr6_5synod3cli7inspect23decision_timeline_liness0_0B7_
FNDA:3,_RNCNvNtNtCs3oCotP8OZr6_5synod3cli7inspect23decision_timeline_liness1_0B7_
FNDA:3,_RNCNvNtNtCs3oCotP8OZr6_5synod3cli7inspect23decision_timeline_liness2_0B7_
FNDA:3,_RNCNvNtNtCs3oCotP8OZr6_5synod3cli7inspect23decision_timeline_liness3_0B7_
FNDA:0,_RNCNvNtNtCs3oCotP8OZr6_5synod3cli7inspect23decision_timeline_liness4_0B7_
FNDA:3,_RNCNvNtNtCs3oCotP8OZr6_5synod3cli7inspect23decision_timeline_liness_0B7_
FNDA:0,_RNCNvNtNtCs3oCotP8OZr6_5synod3cli7inspect24governance_timeline_line0B7_
FNDA:0,_RNCNvNtNtCs3oCotP8OZr6_5synod3cli7inspect24governance_timeline_lines0_0B7_
FNDA:0,_RNCNvNtNtCs3oCotP8OZr6_5synod3cli7inspect24governance_timeline_lines1_0B7_
FNDA:0,_RNCNvNtNtCs3oCotP8OZr6_5synod3cli7inspect24governance_timeline_lines2_0B7_
FNDA:1,_RNCNvNtNtCs3oCotP8OZr6_5synod3cli7inspect24governance_timeline_lines3_0B7_
FNDA:1,_RNCNvNtNtCs3oCotP8OZr6_5synod3cli7inspect24governance_timeline_lines4_0B7_
FNDA:1,_RNCNvNtNtCs3oCotP8OZr6_5synod3cli7inspect24governance_timeline_lines5_0B7_
FNDA:0,_RNCNvNtNtCs3oCotP8OZr6_5synod3cli7inspect24governance_timeline_lines6_0B7_
FNDA:0,_RNCNvNtNtCs3oCotP8OZr6_5synod3cli7inspect24governance_timeline_lines7_0B7_
FNDA:0,_RNCNvNtNtCs3oCotP8OZr6_5synod3cli7inspect24governance_timeline_lines8_0B7_
FNDA:0,_RNCNvNtNtCs3oCotP8OZr6_5synod3cli7inspect24governance_timeline_lines9_0B7_
FNDA:0,_RNCNvNtNtCs3oCotP8OZr6_5synod3cli7inspect24governance_timeline_lines_0B7_
FNDA:0,_RNCNvNtNtCs3oCotP8OZr6_5synod3cli7inspect24governance_timeline_linesa_0B7_
FNDA:0,_RNCNvNtNtCs3oCotP8OZr6_5synod3cli7inspect24governance_timeline_linesb_0B7_
FNDA:0,_RNCNvNtNtCs3oCotP8OZr6_5synod3cli7inspect24governance_timeline_linesc_0B7_
FNDA:0,_RNCNvNtNtCs3oCotP8OZr6_5synod3cli7inspect24governance_timeline_linesd_0B7_
FNDA:0,_RNCNvNtNtCs3oCotP8OZr6_5synod3cli7inspect24governance_timeline_linese_0B7_
FNDA:1,_RNCNvNtNtCs3oCotP8OZr6_5synod3cli7inspect24governance_timeline_linesf_0B7_
FNDA:0,_RNCNvNtNtCs3oCotP8OZr6_5synod3cli7inspect24governance_timeline_linesg_0B7_
FNDA:8,_RNCNvNtNtCs3oCotP8OZr6_5synod3cli7inspect25adaptive_selection_reason0B7_
FNDA:0,_RNCNvNtNtCs3oCotP8OZr6_5synod3cli7inspect25adaptive_selection_reasons0_0B7_
FNDA:0,_RNCNvNtNtCs3oCotP8OZr6_5synod3cli7inspect25adaptive_selection_reasons1_0B7_
FNDA:10,_RNCNvNtNtCs3oCotP8OZr6_5synod3cli7inspect25adaptive_selection_reasons_0B7_
FNDA:0,_RNCNvNtNtCs3oCotP8OZr6_5synod3cli7inspect25decision_failure_evidence0B7_
FNDA:0,_RNCNvNtNtCs3oCotP8OZr6_5synod3cli7inspect25decision_failure_evidences0_0B7_
FNDA:0,_RNCNvNtNtCs3oCotP8OZr6_5synod3cli7inspect25decision_failure_evidences1_0B7_
FNDA:0,_RNCNvNtNtCs3oCotP8OZr6_5synod3cli7inspect25decision_failure_evidences_0B7_
FNDA:0,_RNCNvNtNtCs3oCotP8OZr6_5synod3cli7inspect35governance_packet_provenance_suffix0B7_
FNDA:0,_RNCNvNtNtCs3oCotP8OZr6_5synod3cli7inspect35governance_packet_provenance_suffixs0_0B7_
FNDA:0,_RNCNvNtNtCs3oCotP8OZr6_5synod3cli7inspect35governance_packet_provenance_suffixs_0B7_
FNDA:5,_RNvMNtNtCs3oCotP8OZr6_5synod3cli7inspectNtB2_21TraceResolutionTarget6as_str
FNDA:3,_RNvNtNtCs3oCotP8OZr6_5synod3cli7inspect10load_trace
FNDA:3,_RNvNtNtCs3oCotP8OZr6_5synod3cli7inspect12render_error
FNDA:3,_RNvNtNtCs3oCotP8OZr6_5synod3cli7inspect13reviewer_line
FNDA:3,_RNvNtNtCs3oCotP8OZr6_5synod3cli7inspect15execute_inspect
FNDA:9,_RNvNtNtCs3oCotP8OZr6_5synod3cli7inspect15parse_step_kind
FNDA:3,_RNvNtNtCs3oCotP8OZr6_5synod3cli7inspect16failure_headline
FNDA:9,_RNvNtNtCs3oCotP8OZr6_5synod3cli7inspect16success_headline
FNDA:4,_RNvNtNtCs3oCotP8OZr6_5synod3cli7inspect17corrected_command
FNDA:3,_RNvNtNtCs3oCotP8OZr6_5synod3cli7inspect18resolve_trace_path
FNDA:9,_RNvNtNtCs3oCotP8OZr6_5synod3cli7inspect20review_timeline_line
FNDA:3,_RNvNtNtCs3oCotP8OZr6_5synod3cli7inspect21format_evidence_input
FNDA:5,_RNvNtNtCs3oCotP8OZr6_5synod3cli7inspect21inspection_target_for
FNDA:9,_RNvNtNtCs3oCotP8OZr6_5synod3cli7inspect23adaptive_evidence_lines
FNDA:9,_RNvNtNtCs3oCotP8OZr6_5synod3cli7inspect23decision_timeline_lines
FNDA:2,_RNvNtNtCs3oCotP8OZr6_5synod3cli7inspect24governance_timeline_line
FNDA:10,_RNvNtNtCs3oCotP8OZr6_5synod3cli7inspect25adaptive_selection_reason
FNDA:0,_RNvNtNtCs3oCotP8OZr6_5synod3cli7inspect25decision_failure_evidence
FNDA:4,_RNvNtNtCs3oCotP8OZr6_5synod3cli7inspect25resolve_session_trace_ref
FNDA:1,_RNvNtNtCs3oCotP8OZr6_5synod3cli7inspect30synthesized_in_progress_reason
FNDA:2,_RNvNtNtCs3oCotP8OZr6_5synod3cli7inspect35governance_packet_provenance_suffix
FNF:180
FNH:109
DA:36,5
DA:37,5
DA:38,0
DA:39,2
DA:40,3
DA:42,5
DA:45,3
DA:46,3
DA:47,3
DA:48,3
DA:49,3
DA:50,2
DA:51,2
DA:52,2
DA:54,0
DA:57,2
DA:58,2
DA:59,2
DA:60,2
DA:61,2
DA:62,2
DA:63,2
DA:64,2
DA:65,3
DA:67,3
DA:68,3
DA:69,3
DA:70,3
DA:71,3
DA:72,3
DA:73,0
DA:74,3
DA:76,3
DA:77,3
DA:78,3
DA:79,3
DA:80,0
DA:82,1
DA:84,1
DA:86,0
DA:88,1
DA:91,3
DA:92,3
DA:93,3
DA:94,3
DA:95,3
DA:96,3
DA:98,3
DA:100,0
DA:101,0
DA:102,0
DA:103,0
DA:104,0
DA:105,0
DA:106,0
DA:107,0
DA:108,0
DA:109,0
DA:111,7
DA:112,7
DA:113,7
DA:114,7
DA:115,7
DA:116,7
DA:117,7
DA:118,7
DA:119,7
DA:120,7
DA:121,7
DA:122,7
DA:123,7
DA:124,7
DA:125,7
DA:126,7
DA:127,7
DA:128,7
DA:129,7
DA:130,7
DA:131,7
DA:132,7
DA:133,7
DA:134,7
DA:135,7
DA:136,7
DA:137,7
DA:138,7
DA:139,7
DA:140,7
DA:141,7
DA:142,7
DA:143,7
DA:145,52
DA:146,52
DA:147,13
DA:148,2
DA:149,2
DA:150,50
DA:152,52
DA:153,10
DA:154,42
DA:156,52
DA:158,1
DA:159,1
DA:160,1
DA:161,1
DA:162,1
DA:163,1
DA:164,0
DA:165,1
DA:166,1
DA:167,1
DA:168,1
DA:169,1
DA:170,1
DA:171,1
DA:172,1
DA:173,1
DA:174,1
DA:175,1
DA:176,1
DA:177,1
DA:178,0
DA:179,1
DA:180,1
DA:181,1
DA:182,1
DA:183,1
DA:184,1
DA:185,1
DA:186,0
DA:187,0
DA:188,0
DA:189,0
DA:190,0
DA:191,1
DA:192,0
DA:193,1
DA:194,1
DA:195,1
DA:196,1
DA:197,1
DA:198,1
DA:199,0
DA:200,1
DA:201,1
DA:202,1
DA:203,1
DA:204,1
DA:205,1
DA:206,0
DA:207,1
DA:208,1
DA:209,1
DA:210,1
DA:211,1
DA:212,1
DA:213,1
DA:214,0
DA:215,0
DA:216,0
DA:217,0
DA:218,0
DA:219,1
DA:220,0
DA:221,1
DA:222,1
DA:223,1
DA:224,1
DA:225,1
DA:226,1
DA:227,0
DA:228,1
DA:229,1
DA:230,1
DA:231,1
DA:232,1
DA:233,1
DA:234,0
DA:235,1
DA:236,1
DA:237,1
DA:238,1
DA:239,1
DA:240,1
DA:241,0
DA:242,1
DA:243,1
DA:244,1
DA:245,1
DA:246,1
DA:247,1
DA:248,0
DA:249,1
DA:250,1
DA:251,1
DA:252,1
DA:253,1
DA:254,1
DA:255,0
DA:256,1
DA:257,1
DA:258,1
DA:259,1
DA:260,1
DA:261,1
DA:262,0
DA:263,1
DA:264,1
DA:265,1
DA:266,1
DA:267,1
DA:268,1
DA:269,0
DA:272,2
DA:273,2
DA:274,2
DA:275,2
DA:276,2
DA:278,2
DA:280,1
DA:281,1
DA:282,1
DA:284,1
DA:285,1
DA:286,1
DA:287,1
DA:288,1
DA:289,1
DA:290,1
DA:291,1
DA:292,1
DA:293,1
DA:295,1
DA:299,3
DA:300,3
DA:301,3
DA:303,3
DA:304,3
DA:305,3
DA:306,3
DA:307,3
DA:308,3
DA:309,3
DA:310,3
DA:311,3
DA:312,3
DA:314,3
DA:318,11
DA:319,11
DA:320,11
DA:321,11
DA:322,9
DA:323,10
DA:324,10
DA:325,10
DA:326,10
DA:327,10
DA:328,0
DA:330,9
DA:331,1
DA:332,8
DA:333,8
DA:334,8
DA:335,8
DA:336,8
DA:337,8
DA:338,8
DA:339,8
DA:340,8
DA:341,8
DA:344,9
DA:345,9
DA:346,9
DA:347,9
DA:348,9
DA:349,9
DA:350,9
DA:351,9
DA:352,9
DA:354,9
DA:355,2
DA:356,0
DA:359,9
DA:360,9
DA:361,9
DA:362,9
DA:364,7
DA:367,2
DA:369,0
DA:371,9
DA:372,9
DA:373,9
DA:374,0
DA:375,0
DA:376,0
DA:384,2
DA:385,2
DA:386,2
DA:387,2
DA:388,2
DA:389,2
DA:390,2
DA:391,2
DA:392,2
DA:402,2
DA:403,2
DA:404,0
DA:405,0
DA:406,0
DA:407,0
DA:408,0
DA:409,0
DA:411,1
DA:412,1
DA:413,1
DA:414,1
DA:416,2
DA:417,2
DA:418,2
DA:426,9
DA:427,9
DA:428,9
DA:431,1
DA:432,1
DA:433,1
DA:434,1
DA:435,1
DA:436,1
DA:437,1
DA:438,1
DA:439,1
DA:440,1
DA:441,1
DA:442,1
DA:443,1
DA:444,1
DA:445,1
DA:446,1
DA:447,1
DA:448,1
DA:449,1
DA:450,0
DA:451,1
DA:452,1
DA:453,1
DA:454,1
DA:455,1
DA:456,0
DA:457,1
DA:458,1
DA:459,1
DA:460,1
DA:461,1
DA:462,0
DA:463,1
DA:464,1
DA:465,1
DA:466,1
DA:467,1
DA:468,0
DA:471,0
DA:472,0
DA:473,0
DA:474,0
DA:475,0
DA:482,9
DA:483,9
DA:484,9
DA:485,9
DA:487,9
DA:488,0
DA:489,0
DA:490,0
DA:491,0
DA:492,9
DA:497,5
DA:498,4
DA:499,4
DA:500,1
DA:502,3
DA:504,4
DA:505,1
DA:507,3
DA:509,4
DA:510,1
DA:512,3
DA:515,1
DA:517,5
DA:518,5
DA:519,4
DA:521,1
DA:522,1
DA:523,1
DA:524,1
DA:525,1
DA:527,0
DA:530,0
DA:531,0
DA:534,5
DA:535,5
DA:536,5
DA:537,5
DA:538,5
DA:539,5
DA:540,5
DA:541,5
DA:542,5
DA:543,5
DA:544,5
DA:545,5
DA:546,5
DA:547,5
DA:548,5
DA:549,5
DA:550,5
DA:551,5
DA:552,5
DA:553,5
DA:554,5
DA:555,5
DA:556,5
DA:557,5
DA:558,5
DA:559,5
DA:560,5
DA:561,5
DA:562,5
DA:563,5
DA:564,5
DA:565,5
DA:566,5
DA:567,5
DA:568,7
DA:570,9
DA:571,9
DA:572,9
DA:573,9
DA:574,9
DA:575,9
DA:576,9
DA:578,9
DA:580,3
DA:581,3
DA:582,3
DA:583,3
DA:584,3
DA:585,3
DA:587,3
DA:588,3
DA:589,3
DA:590,3
DA:591,3
DA:592,3
DA:593,3
DA:594,3
DA:595,3
DA:597,3
DA:598,3
DA:599,2
DA:600,2
DA:601,0
DA:603,3
DA:606,3
DA:609,3
DA:612,0
DA:613,0
DA:614,0
DA:615,0
DA:616,0
DA:618,0
DA:620,9
DA:622,0
DA:623,0
DA:624,0
DA:625,0
DA:626,0
DA:627,0
DA:628,0
DA:630,0
DA:631,0
DA:632,0
DA:633,0
DA:634,0
DA:635,0
DA:636,0
DA:637,0
DA:638,0
DA:639,0
DA:641,0
DA:642,0
DA:644,3
DA:645,3
DA:646,3
DA:647,3
DA:648,3
DA:650,3
DA:651,3
DA:652,3
DA:653,3
DA:654,3
DA:655,3
DA:657,2
DA:659,0
DA:660,0
DA:661,0
DA:662,0
DA:665,2
DA:666,2
DA:670,2
DA:671,3
DA:673,4
DA:674,4
DA:675,2
DA:676,1
DA:677,1
DA:678,1
DA:679,1
DA:680,0
DA:682,4
DA:684,3
DA:685,3
DA:686,3
DA:687,3
DA:688,3
DA:689,3
DA:690,0
DA:691,3
DA:693,3
DA:694,2
DA:695,1
DA:697,1
DA:698,0
DA:701,1
DA:702,1
DA:703,1
DA:705,0
DA:706,3
DA:708,5
DA:709,5
DA:710,1
DA:711,4
DA:712,4
DA:714,0
DA:716,5
DA:718,4
DA:719,4
DA:721,1
DA:724,3
DA:727,4
DA:729,9
DA:730,9
DA:731,2
DA:732,2
DA:733,2
DA:734,2
DA:735,0
DA:736,0
DA:737,0
DA:738,0
DA:739,3
DA:740,2
DA:741,2
DA:742,2
DA:743,2
DA:744,2
DA:745,0
DA:746,0
DA:748,0
DA:750,0
DA:751,0
DA:753,0
DA:755,2
DA:756,2
DA:757,2
DA:758,2
DA:759,2
DA:760,0
DA:761,0
DA:762,0
DA:763,0
DA:764,0
DA:765,0
DA:767,9
DA:769,2
DA:770,2
DA:771,2
DA:772,2
DA:773,2
DA:774,0
DA:776,0
DA:777,0
DA:778,0
DA:779,0
DA:780,0
DA:782,1
DA:784,1
DA:785,1
DA:786,1
DA:787,1
DA:788,1
DA:789,1
DA:790,1
DA:791,1
DA:792,1
DA:793,1
DA:794,1
DA:795,1
DA:797,0
DA:798,0
DA:799,0
DA:800,0
DA:801,0
DA:802,0
DA:803,0
DA:804,0
DA:805,0
DA:806,0
DA:807,0
DA:809,0
DA:810,0
DA:811,0
DA:812,0
DA:813,0
DA:814,0
DA:815,0
DA:816,0
DA:818,0
DA:820,0
DA:821,0
DA:822,0
DA:823,0
DA:824,0
DA:825,0
DA:826,0
DA:827,0
DA:828,0
DA:829,0
DA:831,1
DA:833,1
DA:834,1
DA:836,0
DA:838,0
DA:839,0
DA:841,0
DA:843,2
DA:845,2
DA:846,2
DA:847,2
DA:848,2
DA:850,2
DA:851,2
DA:852,2
DA:854,3
DA:855,3
DA:857,3
DA:858,3
DA:859,3
DA:860,3
DA:861,3
DA:862,3
DA:863,3
DA:864,3
DA:865,0
DA:867,0
DA:869,0
DA:870,0
DA:871,0
DA:872,0
DA:873,3
DA:875,1
DA:876,1
DA:877,1
DA:878,1
DA:879,0
DA:880,0
DA:883,1
DA:884,1
DA:886,9
DA:887,9
DA:888,9
DA:889,9
DA:890,9
DA:891,9
DA:892,9
DA:894,0
DA:895,0
DA:896,0
DA:898,9
DA:900,9
DA:901,9
DA:902,9
DA:903,9
DA:904,9
DA:906,1
DA:907,1
DA:908,1
DA:909,1
DA:910,1
DA:911,8
DA:913,8
DA:914,8
DA:915,8
DA:916,8
DA:918,0
DA:919,0
DA:920,0
DA:921,0
DA:922,0
DA:923,8
DA:925,8
DA:926,2
DA:927,2
DA:928,2
DA:929,2
DA:930,2
DA:932,2
DA:934,6
DA:936,6
DA:937,9
DA:939,3
DA:940,3
DA:941,3
DA:942,3
DA:943,3
DA:945,0
DA:948,3
DA:950,1
DA:951,3
DA:953,1
DA:954,1
DA:955,1
DA:956,1
DA:957,1
DA:958,1
DA:961,1
DA:962,0
DA:963,0
DA:966,0
DA:968,2
DA:970,2
DA:971,3
DA:973,10
DA:974,10
DA:975,10
DA:976,10
DA:977,10
DA:978,10
DA:979,10
DA:980,10
DA:982,9
DA:983,9
DA:984,9
DA:985,9
DA:986,9
DA:987,9
DA:989,9
DA:990,0
DA:991,0
DA:992,0
DA:993,0
DA:994,0
DA:996,0
DA:997,0
DA:998,0
DA:1000,0
DA:1001,0
DA:1003,0
DA:1004,0
DA:1005,0
DA:1006,0
DA:1007,0
DA:1009,0
DA:1010,9
DA:1012,9
DA:1013,9
DA:1014,9
DA:1015,9
DA:1016,0
DA:1017,0
DA:1018,9
DA:1020,9
DA:1021,9
DA:1023,9
DA:1024,9
DA:1025,9
DA:1026,4
DA:1027,0
DA:1028,0
DA:1030,9
DA:1083,1
DA:1084,1
DA:1085,1
DA:1086,1
DA:1087,1
DA:1089,4
DA:1090,4
DA:1091,4
DA:1092,4
DA:1093,4
DA:1094,4
DA:1095,4
DA:1096,4
DA:1099,1
DA:1100,1
DA:1101,1
DA:1102,1
DA:1103,1
DA:1104,1
DA:1105,1
DA:1107,1
DA:1108,1
DA:1109,1
DA:1110,1
DA:1113,1
DA:1114,1
DA:1115,1
DA:1116,1
DA:1117,1
DA:1121,1
DA:1122,1
DA:1123,1
DA:1124,1
DA:1126,1
DA:1128,1
DA:1129,1
DA:1130,1
DA:1132,1
DA:1135,1
DA:1136,1
DA:1137,1
DA:1138,1
DA:1139,1
DA:1140,1
DA:1141,1
DA:1142,1
DA:1143,1
DA:1144,1
DA:1145,1
DA:1146,1
DA:1147,1
DA:1148,1
DA:1149,1
DA:1150,1
DA:1151,1
DA:1152,1
DA:1153,1
DA:1154,1
DA:1155,1
DA:1156,1
DA:1157,1
DA:1159,1
DA:1161,1
DA:1162,1
DA:1163,1
DA:1165,1
DA:1168,1
DA:1169,1
DA:1170,1
DA:1173,1
DA:1174,1
DA:1177,1
DA:1178,1
DA:1181,1
DA:1182,1
DA:1183,1
DA:1186,1
DA:1187,1
DA:1188,1
DA:1189,1
DA:1190,1
DA:1192,1
DA:1194,1
DA:1195,1
DA:1196,1
DA:1198,1
DA:1199,1
DA:1200,1
DA:1201,1
DA:1202,1
DA:1203,1
DA:1204,1
DA:1205,1
DA:1206,1
DA:1211,1
DA:1212,1
DA:1213,1
DA:1215,1
DA:1218,1
DA:1220,1
DA:1221,1
DA:1224,1
DA:1225,1
DA:1227,1
DA:1228,1
DA:1229,1
DA:1230,1
DA:1231,1
DA:1232,1
DA:1233,1
DA:1234,1
DA:1235,1
DA:1238,1
DA:1239,1
DA:1242,1
DA:1243,1
DA:1244,1
DA:1245,1
DA:1246,1
DA:1248,1
DA:1250,1
DA:1251,1
DA:1252,1
DA:1254,1
DA:1255,1
DA:1256,1
DA:1257,1
DA:1258,1
DA:1259,1
DA:1263,1
DA:1264,1
DA:1265,1
DA:1267,1
DA:1269,1
DA:1270,1
DA:1271,1
DA:1273,1
DA:1276,1
DA:1278,1
DA:1280,1
DA:1281,1
DA:1282,1
DA:1283,1
DA:1284,1
DA:1285,1
DA:1288,1
DA:1291,1
DA:1292,1
DA:1293,1
DA:1294,1
DA:1295,1
DA:1297,1
DA:1298,1
DA:1299,1
DA:1302,1
DA:1303,1
DA:1304,1
DA:1306,1
DA:1307,1
DA:1308,1
DA:1312,1
DA:1314,1
DA:1315,1
DA:1319,1
DA:1320,1
DA:1321,1
DA:1322,1
DA:1323,1
DA:1325,1
DA:1326,1
DA:1329,1
BRF:0
BRH:0
LF:1105
LH:824
end_of_record
SF:/Users/rt/workspace/synod/src/cli/output.rs
FN:46,_RNvMNtNtCs3oCotP8OZr6_5synod3cli6outputNtB2_15CommandExitCode10for_status
FN:37,_RNvMNtNtCs3oCotP8OZr6_5synod3cli6outputNtB2_15CommandExitCode4code
FN:56,_RNvNtNtCs3oCotP8OZr6_5synod3cli6output21unimplemented_message
FN:143,_RNvNtNtCs3oCotP8OZr6_5synod3cli6output27render_goal_plan_flow_state
FN:952,_RINvNtNtCs3oCotP8OZr6_5synod3cli6output37render_compatibility_follow_up_statusNtNtCs1OjIl8oxbrv_5alloc6string6StringEB6_
FN:952,_RINvNtNtCs3oCotP8OZr6_5synod3cli6output37render_compatibility_follow_up_statusReEB6_
FN:191,_RNCNCNvNtNtCs3oCotP8OZr6_5synod3cli6output16render_run_trace00B9_
FN:1077,_RNCNCNvNtNtCs3oCotP8OZr6_5synod3cli6output17review_event_lines1_00B9_
FN:1095,_RNCNCNvNtNtCs3oCotP8OZr6_5synod3cli6output17review_event_lines4_00B9_
FN:1043,_RNCNCNvNtNtCs3oCotP8OZr6_5synod3cli6output20value_as_string_list00B9_
FN:1131,_RNCNCNvNtNtCs3oCotP8OZr6_5synod3cli6output21governance_event_lines_00B9_
FN:1050,_RNCNCNvNtNtCs3oCotP8OZr6_5synod3cli6output26validation_line_from_events_00B9_
FN:1495,_RNCNCNvNtNtCs3oCotP8OZr6_5synod3cli6output37route_config_projection_for_run_trace00B9_
FN:189,_RNCNvNtNtCs3oCotP8OZr6_5synod3cli6output16render_run_trace0B7_
FN:298,_RNCNvNtNtCs3oCotP8OZr6_5synod3cli6output16render_run_traces0_0B7_
FN:229,_RNCNvNtNtCs3oCotP8OZr6_5synod3cli6output16render_run_traces_0B7_
FN:1066,_RNCNvNtNtCs3oCotP8OZr6_5synod3cli6output17review_event_line0B7_
FN:1075,_RNCNvNtNtCs3oCotP8OZr6_5synod3cli6output17review_event_lines0_0B7_
FN:1076,_RNCNvNtNtCs3oCotP8OZr6_5synod3cli6output17review_event_lines1_0B7_
FN:1085,_RNCNvNtNtCs3oCotP8OZr6_5synod3cli6output17review_event_lines2_0B7_
FN:1090,_RNCNvNtNtCs3oCotP8OZr6_5synod3cli6output17review_event_lines3_0B7_
FN:1091,_RNCNvNtNtCs3oCotP8OZr6_5synod3cli6output17review_event_lines4_0B7_
FN:1070,_RNCNvNtNtCs3oCotP8OZr6_5synod3cli6output17review_event_lines_0B7_
FN:1414,_RNCNvNtNtCs3oCotP8OZr6_5synod3cli6output17trace_route_owner0B7_
FN:1193,_RNCNvNtNtCs3oCotP8OZr6_5synod3cli6output19reviewer_event_line0B7_
FN:1042,_RNCNvNtNtCs3oCotP8OZr6_5synod3cli6output20value_as_string_list0B7_
FN:1126,_RNCNvNtNtCs3oCotP8OZr6_5synod3cli6output21governance_event_line0B7_
FN:1114,_RNCNvNtNtCs3oCotP8OZr6_5synod3cli6output21governance_event_lines0_0B7_
FN:1119,_RNCNvNtNtCs3oCotP8OZr6_5synod3cli6output21governance_event_lines1_0B7_
FN:1140,_RNCNvNtNtCs3oCotP8OZr6_5synod3cli6output21governance_event_lines2_0B7_
FN:1150,_RNCNvNtNtCs3oCotP8OZr6_5synod3cli6output21governance_event_lines3_0B7_
FN:1127,_RNCNvNtNtCs3oCotP8OZr6_5synod3cli6output21governance_event_lines_0B7_
FN:1527,_RNCNvNtNtCs3oCotP8OZr6_5synod3cli6output24trace_routing_projection0B7_
FN:1528,_RNCNvNtNtCs3oCotP8OZr6_5synod3cli6output24trace_routing_projections_0B7_
FN:1332,_RNCNvNtNtCs3oCotP8OZr6_5synod3cli6output26render_cluster_story_lines0B7_
FN:1049,_RNCNvNtNtCs3oCotP8OZr6_5synod3cli6output26validation_line_from_event0B7_
FN:1049,_RNCNvNtNtCs3oCotP8OZr6_5synod3cli6output26validation_line_from_events_0B7_
FN:1307,_RNCNvNtNtCs3oCotP8OZr6_5synod3cli6output30render_route_config_projection0B7_
FN:1807,_RNCNvNtNtCs3oCotP8OZr6_5synod3cli6output31trace_execution_condition_parts0B7_
FN:1822,_RNCNvNtNtCs3oCotP8OZr6_5synod3cli6output31trace_execution_condition_partss0_0B7_
FN:1808,_RNCNvNtNtCs3oCotP8OZr6_5synod3cli6output31trace_execution_condition_partss_0B7_
FN:1009,_RNCNvNtNtCs3oCotP8OZr6_5synod3cli6output32adaptive_attempt_lineage_summary0B7_
FN:1010,_RNCNvNtNtCs3oCotP8OZr6_5synod3cli6output32adaptive_attempt_lineage_summarys_0B7_
FN:999,_RNCNvNtNtCs3oCotP8OZr6_5synod3cli6output32adaptive_workspace_slice_summary0B7_
FN:1847,_RNCNvNtNtCs3oCotP8OZr6_5synod3cli6output32trace_adaptive_exhaustion_reason0B7_
FN:1658,_RNCNvNtNtCs3oCotP8OZr6_5synod3cli6output33session_execution_condition_parts0B7_
FN:1682,_RNCNvNtNtCs3oCotP8OZr6_5synod3cli6output33session_execution_condition_partss_0B7_
FN:1173,_RNCNvNtNtCs3oCotP8OZr6_5synod3cli6output35governance_packet_provenance_suffix0B7_
FN:1024,_RNCNvNtNtCs3oCotP8OZr6_5synod3cli6output36adaptive_rejected_candidates_summary0B7_
FN:1493,_RNCNvNtNtCs3oCotP8OZr6_5synod3cli6output37route_config_projection_for_run_trace0B7_
FN:60,_RNvNtNtCs3oCotP8OZr6_5synod3cli6output12command_name
FN:1227,_RNvNtNtCs3oCotP8OZr6_5synod3cli6output14step_kind_text
FN:172,_RNvNtNtCs3oCotP8OZr6_5synod3cli6output16render_run_trace
FN:1235,_RNvNtNtCs3oCotP8OZr6_5synod3cli6output16step_status_text
FN:1196,_RNvNtNtCs3oCotP8OZr6_5synod3cli6output16task_status_text
FN:1061,_RNvNtNtCs3oCotP8OZr6_5synod3cli6output17review_event_line
FN:1402,_RNvNtNtCs3oCotP8OZr6_5synod3cli6output17trace_route_owner
FN:1636,_RNvNtNtCs3oCotP8OZr6_5synod3cli6output18format_model_route
FN:147,_RNvNtNtCs3oCotP8OZr6_5synod3cli6output18render_diagnostics
FN:79,_RNvNtNtCs3oCotP8OZr6_5synod3cli6output19render_cluster_init
FN:1177,_RNvNtNtCs3oCotP8OZr6_5synod3cli6output19reviewer_event_line
FN:1376,_RNvNtNtCs3oCotP8OZr6_5synod3cli6output19session_route_owner
FN:1245,_RNvNtNtCs3oCotP8OZr6_5synod3cli6output19session_status_text
FN:139,_RNvNtNtCs3oCotP8OZr6_5synod3cli6output20render_route_outcome
FN:975,_RNvNtNtCs3oCotP8OZr6_5synod3cli6output20render_session_error
FN:471,_RNvNtNtCs3oCotP8OZr6_5synod3cli6output20render_trace_summary
FN:1041,_RNvNtNtCs3oCotP8OZr6_5synod3cli6output20value_as_string_list
FN:1101,_RNvNtNtCs3oCotP8OZr6_5synod3cli6output21governance_event_line
FN:92,_RNvNtNtCs3oCotP8OZr6_5synod3cli6output21render_cluster_status
FN:660,_RNvNtNtCs3oCotP8OZr6_5synod3cli6output21render_session_status
FN:1532,_RNvNtNtCs3oCotP8OZr6_5synod3cli6output21run_trace_route_owner
FN:985,_RNvNtNtCs3oCotP8OZr6_5synod3cli6output22next_command_after_run
FN:113,_RNvNtNtCs3oCotP8OZr6_5synod3cli6output22render_cluster_inspect
FN:626,_RNvNtNtCs3oCotP8OZr6_5synod3cli6output22render_inspect_failure
FN:1356,_RNvNtNtCs3oCotP8OZr6_5synod3cli6output23participation_kind_text
FN:1366,_RNvNtNtCs3oCotP8OZr6_5synod3cli6output24cluster_route_owner_text
FN:1786,_RNvNtNtCs3oCotP8OZr6_5synod3cli6output24running_condition_reason
FN:1610,_RNvNtNtCs3oCotP8OZr6_5synod3cli6output24summarize_routing_config
FN:1523,_RNvNtNtCs3oCotP8OZr6_5synod3cli6output24trace_routing_projection
FN:135,_RNvNtNtCs3oCotP8OZr6_5synod3cli6output24validation_error_message
FN:1571,_RNvNtNtCs3oCotP8OZr6_5synod3cli6output24workspace_from_trace_ref
FN:1873,_RNvNtNtCs3oCotP8OZr6_5synod3cli6output25cluster_member_state_text
FN:1586,_RNvNtNtCs3oCotP8OZr6_5synod3cli6output26current_routing_projection
FN:1032,_RNvNtNtCs3oCotP8OZr6_5synod3cli6output26next_command_after_inspect
FN:1310,_RNvNtNtCs3oCotP8OZr6_5synod3cli6output26render_cluster_story_lines
FN:1047,_RNvNtNtCs3oCotP8OZr6_5synod3cli6output26validation_line_from_event
FN:1345,_RNvNtNtCs3oCotP8OZr6_5synod3cli6output27cluster_execution_kind_text
FN:1581,_RNvNtNtCs3oCotP8OZr6_5synod3cli6output28workspace_routing_projection
FN:1306,_RNvNtNtCs3oCotP8OZr6_5synod3cli6output30render_route_config_projection
FN:1850,_RNvNtNtCs3oCotP8OZr6_5synod3cli6output30render_run_execution_condition
FN:1036,_RNvNtNtCs3oCotP8OZr6_5synod3cli6output30trace_execution_condition_text
FN:1259,_RNvNtNtCs3oCotP8OZr6_5synod3cli6output31routing_outcome_for_status_view
FN:1805,_RNvNtNtCs3oCotP8OZr6_5synod3cli6output31trace_execution_condition_parts
FN:1003,_RNvNtNtCs3oCotP8OZr6_5synod3cli6output32adaptive_attempt_lineage_summary
FN:996,_RNvNtNtCs3oCotP8OZr6_5synod3cli6output32adaptive_workspace_slice_summary
FN:652,_RNvNtNtCs3oCotP8OZr6_5synod3cli6output32render_session_projection_prefix
FN:1800,_RNvNtNtCs3oCotP8OZr6_5synod3cli6output32render_trace_execution_condition
FN:1843,_RNvNtNtCs3oCotP8OZr6_5synod3cli6output32trace_adaptive_exhaustion_reason
FN:1014,_RNvNtNtCs3oCotP8OZr6_5synod3cli6output33adaptive_candidate_family_summary
FN:1018,_RNvNtNtCs3oCotP8OZr6_5synod3cli6output33adaptive_selection_reason_summary
FN:1645,_RNvNtNtCs3oCotP8OZr6_5synod3cli6output33session_execution_condition_parts
FN:1028,_RNvNtNtCs3oCotP8OZr6_5synod3cli6output34adaptive_exhaustion_reason_summary
FN:1640,_RNvNtNtCs3oCotP8OZr6_5synod3cli6output34render_session_execution_condition
FN:1168,_RNvNtNtCs3oCotP8OZr6_5synod3cli6output35governance_packet_provenance_suffix
FN:1022,_RNvNtNtCs3oCotP8OZr6_5synod3cli6output36adaptive_rejected_candidates_summary
FN:1207,_RNvNtNtCs3oCotP8OZr6_5synod3cli6output36render_compatibility_follow_up_lines
FN:1484,_RNvNtNtCs3oCotP8OZr6_5synod3cli6output37route_config_projection_for_run_trace
FN:1422,_RNvNtNtCs3oCotP8OZr6_5synod3cli6output39route_config_projection_for_status_view
FN:1456,_RNvNtNtCs3oCotP8OZr6_5synod3cli6output41route_config_projection_for_trace_summary
FN:2142,_RNvNtNtNtCs3oCotP8OZr6_5synod3cli6output5testss_39render_run_trace_surfaces_review_events
FN:2312,_RNvNtNtNtCs3oCotP8OZr6_5synod3cli6output5testss_45render_trace_summary_includes_review_timeline
FN:1900,_RNvNtNtNtCs3oCotP8OZr6_5synod3cli6output5testss_46command_name_covers_every_developer_subcommand
FN:2205,_RNvNtNtNtCs3oCotP8OZr6_5synod3cli6output5testss_48render_session_status_surfaces_review_projection
FN:2000,_RNvNtNtNtCs3oCotP8OZr6_5synod3cli6output5testss_63render_trace_summary_labels_flow_stage_and_stage_failure_events
FN:1970,_RNvNtNtNtCs3oCotP8OZr6_5synod3cli6output5testss_64render_run_trace_covers_stage_replan_and_stage_failure_fallbacks
FN:2068,_RNvNtNtNtCs3oCotP8OZr6_5synod3cli6output5testss_65render_session_status_covers_invalid_status_without_changed_files
FNDA:0,_RNvMNtNtCs3oCotP8OZr6_5synod3cli6outputNtB2_15CommandExitCode10for_status
FNDA:0,_RNvMNtNtCs3oCotP8OZr6_5synod3cli6outputNtB2_15CommandExitCode4code
FNDA:0,_RNvNtNtCs3oCotP8OZr6_5synod3cli6output21unimplemented_message
FNDA:0,_RNvNtNtCs3oCotP8OZr6_5synod3cli6output27render_goal_plan_flow_state
FNDA:0,_RINvNtNtCs3oCotP8OZr6_5synod3cli6output37render_compatibility_follow_up_statusNtNtCs1OjIl8oxbrv_5alloc6string6StringEB6_
FNDA:0,_RINvNtNtCs3oCotP8OZr6_5synod3cli6output37render_compatibility_follow_up_statusReEB6_
FNDA:1,_RNCNCNvNtNtCs3oCotP8OZr6_5synod3cli6output16render_run_trace00B9_
FNDA:0,_RNCNCNvNtNtCs3oCotP8OZr6_5synod3cli6output17review_event_lines1_00B9_
FNDA:0,_RNCNCNvNtNtCs3oCotP8OZr6_5synod3cli6output17review_event_lines4_00B9_
FNDA:1,_RNCNCNvNtNtCs3oCotP8OZr6_5synod3cli6output20value_as_string_list00B9_
FNDA:0,_RNCNCNvNtNtCs3oCotP8OZr6_5synod3cli6output21governance_event_lines_00B9_
FNDA:7,_RNCNCNvNtNtCs3oCotP8OZr6_5synod3cli6output26validation_line_from_events_00B9_
FNDA:1,_RNCNCNvNtNtCs3oCotP8OZr6_5synod3cli6output37route_config_projection_for_run_trace00B9_
FNDA:40,_RNCNvNtNtCs3oCotP8OZr6_5synod3cli6output16render_run_trace0B7_
FNDA:7,_RNCNvNtNtCs3oCotP8OZr6_5synod3cli6output16render_run_traces0_0B7_
FNDA:39,_RNCNvNtNtCs3oCotP8OZr6_5synod3cli6output16render_run_traces_0B7_
FNDA:2,_RNCNvNtNtCs3oCotP8OZr6_5synod3cli6output17review_event_line0B7_
FNDA:2,_RNCNvNtNtCs3oCotP8OZr6_5synod3cli6output17review_event_lines0_0B7_
FNDA:0,_RNCNvNtNtCs3oCotP8OZr6_5synod3cli6output17review_event_lines1_0B7_
FNDA:0,_RNCNvNtNtCs3oCotP8OZr6_5synod3cli6output17review_event_lines2_0B7_
FNDA:2,_RNCNvNtNtCs3oCotP8OZr6_5synod3cli6output17review_event_lines3_0B7_
FNDA:0,_RNCNvNtNtCs3oCotP8OZr6_5synod3cli6output17review_event_lines4_0B7_
FNDA:0,_RNCNvNtNtCs3oCotP8OZr6_5synod3cli6output17review_event_lines_0B7_
FNDA:1,_RNCNvNtNtCs3oCotP8OZr6_5synod3cli6output17trace_route_owner0B7_
FNDA:0,_RNCNvNtNtCs3oCotP8OZr6_5synod3cli6output19reviewer_event_line0B7_
FNDA:1,_RNCNvNtNtCs3oCotP8OZr6_5synod3cli6output20value_as_string_list0B7_
FNDA:0,_RNCNvNtNtCs3oCotP8OZr6_5synod3cli6output21governance_event_line0B7_
FNDA:0,_RNCNvNtNtCs3oCotP8OZr6_5synod3cli6output21governance_event_lines0_0B7_
FNDA:0,_RNCNvNtNtCs3oCotP8OZr6_5synod3cli6output21governance_event_lines1_0B7_
FNDA:0,_RNCNvNtNtCs3oCotP8OZr6_5synod3cli6output21governance_event_lines2_0B7_
FNDA:0,_RNCNvNtNtCs3oCotP8OZr6_5synod3cli6output21governance_event_lines3_0B7_
FNDA:0,_RNCNvNtNtCs3oCotP8OZr6_5synod3cli6output21governance_event_lines_0B7_
FNDA:10,_RNCNvNtNtCs3oCotP8OZr6_5synod3cli6output24trace_routing_projection0B7_
FNDA:4,_RNCNvNtNtCs3oCotP8OZr6_5synod3cli6output24trace_routing_projections_0B7_
FNDA:0,_RNCNvNtNtCs3oCotP8OZr6_5synod3cli6output26render_cluster_story_lines0B7_
FNDA:7,_RNCNvNtNtCs3oCotP8OZr6_5synod3cli6output26validation_line_from_event0B7_
FNDA:7,_RNCNvNtNtCs3oCotP8OZr6_5synod3cli6output26validation_line_from_events_0B7_
FNDA:36,_RNCNvNtNtCs3oCotP8OZr6_5synod3cli6output30render_route_config_projection0B7_
FNDA:2,_RNCNvNtNtCs3oCotP8OZr6_5synod3cli6output31trace_execution_condition_parts0B7_
FNDA:0,_RNCNvNtNtCs3oCotP8OZr6_5synod3cli6output31trace_execution_condition_partss0_0B7_
FNDA:2,_RNCNvNtNtCs3oCotP8OZr6_5synod3cli6output31trace_execution_condition_partss_0B7_
FNDA:0,_RNCNvNtNtCs3oCotP8OZr6_5synod3cli6output32adaptive_attempt_lineage_summary0B7_
FNDA:0,_RNCNvNtNtCs3oCotP8OZr6_5synod3cli6output32adaptive_attempt_lineage_summarys_0B7_
FNDA:0,_RNCNvNtNtCs3oCotP8OZr6_5synod3cli6output32adaptive_workspace_slice_summary0B7_
FNDA:0,_RNCNvNtNtCs3oCotP8OZr6_5synod3cli6output32trace_adaptive_exhaustion_reason0B7_
FNDA:0,_RNCNvNtNtCs3oCotP8OZr6_5synod3cli6output33session_execution_condition_parts0B7_
FNDA:0,_RNCNvNtNtCs3oCotP8OZr6_5synod3cli6output33session_execution_condition_partss_0B7_
FNDA:0,_RNCNvNtNtCs3oCotP8OZr6_5synod3cli6output35governance_packet_provenance_suffix0B7_
FNDA:0,_RNCNvNtNtCs3oCotP8OZr6_5synod3cli6output36adaptive_rejected_candidates_summary0B7_
FNDA:40,_RNCNvNtNtCs3oCotP8OZr6_5synod3cli6output37route_config_projection_for_run_trace0B7_
FNDA:11,_RNvNtNtCs3oCotP8OZr6_5synod3cli6output12command_name
FNDA:8,_RNvNtNtCs3oCotP8OZr6_5synod3cli6output14step_kind_text
FNDA:6,_RNvNtNtCs3oCotP8OZr6_5synod3cli6output16render_run_trace
FNDA:8,_RNvNtNtCs3oCotP8OZr6_5synod3cli6output16step_status_text
FNDA:10,_RNvNtNtCs3oCotP8OZr6_5synod3cli6output16task_status_text
FNDA:9,_RNvNtNtCs3oCotP8OZr6_5synod3cli6output17review_event_line
FNDA:4,_RNvNtNtCs3oCotP8OZr6_5synod3cli6output17trace_route_owner
FNDA:0,_RNvNtNtCs3oCotP8OZr6_5synod3cli6output18format_model_route
FNDA:1,_RNvNtNtCs3oCotP8OZr6_5synod3cli6output18render_diagnostics
FNDA:1,_RNvNtNtCs3oCotP8OZr6_5synod3cli6output19render_cluster_init
FNDA:3,_RNvNtNtCs3oCotP8OZr6_5synod3cli6output19reviewer_event_line
FNDA:26,_RNvNtNtCs3oCotP8OZr6_5synod3cli6output19session_route_owner
FNDA:26,_RNvNtNtCs3oCotP8OZr6_5synod3cli6output19session_status_text
FNDA:70,_RNvNtNtCs3oCotP8OZr6_5synod3cli6output20render_route_outcome
FNDA:11,_RNvNtNtCs3oCotP8OZr6_5synod3cli6output20render_session_error
FNDA:4,_RNvNtNtCs3oCotP8OZr6_5synod3cli6output20render_trace_summary
FNDA:1,_RNvNtNtCs3oCotP8OZr6_5synod3cli6output20value_as_string_list
FNDA:0,_RNvNtNtCs3oCotP8OZr6_5synod3cli6output21governance_event_line
FNDA:0,_RNvNtNtCs3oCotP8OZr6_5synod3cli6output21render_cluster_status
FNDA:26,_RNvNtNtCs3oCotP8OZr6_5synod3cli6output21render_session_status
FNDA:6,_RNvNtNtCs3oCotP8OZr6_5synod3cli6output21run_trace_route_owner
FNDA:0,_RNvNtNtCs3oCotP8OZr6_5synod3cli6output22next_command_after_run
FNDA:0,_RNvNtNtCs3oCotP8OZr6_5synod3cli6output22render_cluster_inspect
FNDA:3,_RNvNtNtCs3oCotP8OZr6_5synod3cli6output22render_inspect_failure
FNDA:0,_RNvNtNtCs3oCotP8OZr6_5synod3cli6output23participation_kind_text
FNDA:0,_RNvNtNtCs3oCotP8OZr6_5synod3cli6output24cluster_route_owner_text
FNDA:0,_RNvNtNtCs3oCotP8OZr6_5synod3cli6output24running_condition_reason
FNDA:0,_RNvNtNtCs3oCotP8OZr6_5synod3cli6output24summarize_routing_config
FNDA:6,_RNvNtNtCs3oCotP8OZr6_5synod3cli6output24trace_routing_projection
FNDA:0,_RNvNtNtCs3oCotP8OZr6_5synod3cli6output24validation_error_message
FNDA:4,_RNvNtNtCs3oCotP8OZr6_5synod3cli6output24workspace_from_trace_ref
FNDA:0,_RNvNtNtCs3oCotP8OZr6_5synod3cli6output25cluster_member_state_text
FNDA:30,_RNvNtNtCs3oCotP8OZr6_5synod3cli6output26current_routing_projection
FNDA:2,_RNvNtNtCs3oCotP8OZr6_5synod3cli6output26next_command_after_inspect
FNDA:0,_RNvNtNtCs3oCotP8OZr6_5synod3cli6output26render_cluster_story_lines
FNDA:8,_RNvNtNtCs3oCotP8OZr6_5synod3cli6output26validation_line_from_event
FNDA:0,_RNvNtNtCs3oCotP8OZr6_5synod3cli6output27cluster_execution_kind_text
FNDA:30,_RNvNtNtCs3oCotP8OZr6_5synod3cli6output28workspace_routing_projection
FNDA:36,_RNvNtNtCs3oCotP8OZr6_5synod3cli6output30render_route_config_projection
FNDA:6,_RNvNtNtCs3oCotP8OZr6_5synod3cli6output30render_run_execution_condition
FNDA:0,_RNvNtNtCs3oCotP8OZr6_5synod3cli6output30trace_execution_condition_text
FNDA:26,_RNvNtNtCs3oCotP8OZr6_5synod3cli6output31routing_outcome_for_status_view
FNDA:4,_RNvNtNtCs3oCotP8OZr6_5synod3cli6output31trace_execution_condition_parts
FNDA:6,_RNvNtNtCs3oCotP8OZr6_5synod3cli6output32adaptive_attempt_lineage_summary
FNDA:6,_RNvNtNtCs3oCotP8OZr6_5synod3cli6output32adaptive_workspace_slice_summary
FNDA:26,_RNvNtNtCs3oCotP8OZr6_5synod3cli6output32render_session_projection_prefix
FNDA:4,_RNvNtNtCs3oCotP8OZr6_5synod3cli6output32render_trace_execution_condition
FNDA:1,_RNvNtNtCs3oCotP8OZr6_5synod3cli6output32trace_adaptive_exhaustion_reason
FNDA:6,_RNvNtNtCs3oCotP8OZr6_5synod3cli6output33adaptive_candidate_family_summary
FNDA:6,_RNvNtNtCs3oCotP8OZr6_5synod3cli6output33adaptive_selection_reason_summary
FNDA:26,_RNvNtNtCs3oCotP8OZr6_5synod3cli6output33session_execution_condition_parts
FNDA:6,_RNvNtNtCs3oCotP8OZr6_5synod3cli6output34adaptive_exhaustion_reason_summary
FNDA:26,_RNvNtNtCs3oCotP8OZr6_5synod3cli6output34render_session_execution_condition
FNDA:0,_RNvNtNtCs3oCotP8OZr6_5synod3cli6output35governance_packet_provenance_suffix
FNDA:6,_RNvNtNtCs3oCotP8OZr6_5synod3cli6output36adaptive_rejected_candidates_summary
FNDA:0,_RNvNtNtCs3oCotP8OZr6_5synod3cli6output36render_compatibility_follow_up_lines
FNDA:6,_RNvNtNtCs3oCotP8OZr6_5synod3cli6output37route_config_projection_for_run_trace
FNDA:26,_RNvNtNtCs3oCotP8OZr6_5synod3cli6output39route_config_projection_for_status_view
FNDA:4,_RNvNtNtCs3oCotP8OZr6_5synod3cli6output41route_config_projection_for_trace_summary
FNDA:1,_RNvNtNtNtCs3oCotP8OZr6_5synod3cli6output5testss_39render_run_trace_surfaces_review_events
FNDA:1,_RNvNtNtNtCs3oCotP8OZr6_5synod3cli6output5testss_45render_trace_summary_includes_review_timeline
FNDA:1,_RNvNtNtNtCs3oCotP8OZr6_5synod3cli6output5testss_46command_name_covers_every_developer_subcommand
FNDA:1,_RNvNtNtNtCs3oCotP8OZr6_5synod3cli6output5testss_48render_session_status_surfaces_review_projection
FNDA:1,_RNvNtNtNtCs3oCotP8OZr6_5synod3cli6output5testss_63render_trace_summary_labels_flow_stage_and_stage_failure_events
FNDA:1,_RNvNtNtNtCs3oCotP8OZr6_5synod3cli6output5testss_64render_run_trace_covers_stage_replan_and_stage_failure_fallbacks
FNDA:1,_RNvNtNtNtCs3oCotP8OZr6_5synod3cli6output5testss_65render_session_status_covers_invalid_status_without_changed_files
FNF:115
FNH:70
DA:37,0
DA:38,0
DA:39,0
DA:40,0
DA:41,0
DA:42,0
DA:44,0
DA:46,0
DA:47,0
DA:48,0
DA:49,0
DA:50,0
DA:51,0
DA:53,0
DA:56,0
DA:57,0
DA:58,0
DA:60,11
DA:61,11
DA:62,1
DA:63,1
DA:64,1
DA:65,1
DA:66,1
DA:67,1
DA:68,1
DA:69,1
DA:70,1
DA:71,1
DA:72,1
DA:73,0
DA:74,0
DA:75,0
DA:77,11
DA:79,1
DA:80,1
DA:81,1
DA:82,1
DA:83,1
DA:84,1
DA:86,2
DA:87,2
DA:88,2
DA:89,1
DA:90,1
DA:92,0
DA:93,0
DA:94,0
DA:95,0
DA:96,0
DA:97,0
DA:100,0
DA:101,0
DA:102,0
DA:103,0
DA:104,0
DA:105,0
DA:106,0
DA:107,0
DA:110,0
DA:111,0
DA:113,0
DA:114,0
DA:115,0
DA:116,0
DA:117,0
DA:118,0
DA:121,0
DA:122,0
DA:123,0
DA:124,0
DA:125,0
DA:126,0
DA:127,0
DA:128,0
DA:129,0
DA:130,0
DA:132,0
DA:133,0
DA:135,0
DA:136,0
DA:137,0
DA:139,70
DA:140,70
DA:141,70
DA:143,0
DA:144,0
DA:145,0
DA:147,1
DA:148,1
DA:149,1
DA:150,1
DA:151,1
DA:154,5
DA:155,5
DA:156,4
DA:157,1
DA:159,5
DA:162,1
DA:163,1
DA:164,1
DA:165,1
DA:166,1
DA:167,0
DA:169,1
DA:170,1
DA:172,6
DA:173,6
DA:174,6
DA:175,6
DA:176,6
DA:177,6
DA:178,6
DA:180,6
DA:181,6
DA:182,6
DA:183,6
DA:184,6
DA:185,6
DA:186,6
DA:187,6
DA:189,40
DA:190,40
DA:191,40
DA:192,40
DA:193,40
DA:194,1
DA:195,1
DA:196,1
DA:197,1
DA:198,1
DA:199,0
DA:200,1
DA:201,0
DA:202,0
DA:203,1
DA:204,0
DA:205,1
DA:206,0
DA:207,0
DA:208,1
DA:209,1
DA:210,1
DA:211,1
DA:212,1
DA:213,1
DA:214,1
DA:215,1
DA:216,1
DA:217,1
DA:218,1
DA:219,1
DA:220,1
DA:221,1
DA:222,1
DA:223,1
DA:224,1
DA:225,1
DA:226,5
DA:228,3
DA:229,39
DA:231,3
DA:232,3
DA:233,3
DA:234,3
DA:235,3
DA:236,3
DA:237,3
DA:238,3
DA:239,3
DA:240,3
DA:241,3
DA:242,3
DA:243,3
DA:244,3
DA:245,3
DA:246,3
DA:247,3
DA:248,3
DA:249,3
DA:250,3
DA:252,69
DA:253,69
DA:256,7
DA:257,1
DA:258,1
DA:259,1
DA:260,1
DA:261,1
DA:262,1
DA:263,1
DA:264,1
DA:265,1
DA:266,1
DA:267,1
DA:268,1
DA:269,1
DA:270,3
DA:271,3
DA:272,3
DA:273,3
DA:274,3
DA:275,3
DA:276,3
DA:277,3
DA:278,3
DA:279,3
DA:280,3
DA:281,3
DA:282,3
DA:283,8
DA:284,8
DA:285,8
DA:286,8
DA:287,8
DA:288,8
DA:290,8
DA:291,8
DA:292,8
DA:293,8
DA:295,8
DA:296,8
DA:297,8
DA:298,8
DA:299,8
DA:300,1
DA:301,1
DA:302,1
DA:303,7
DA:305,8
DA:306,1
DA:307,7
DA:309,9
DA:310,9
DA:311,9
DA:312,9
DA:313,9
DA:314,9
DA:315,9
DA:316,9
DA:317,9
DA:318,9
DA:319,9
DA:320,9
DA:321,9
DA:322,9
DA:323,9
DA:324,9
DA:325,9
DA:326,9
DA:327,9
DA:328,9
DA:329,9
DA:330,9
DA:331,9
DA:332,0
DA:333,0
DA:334,0
DA:335,0
DA:336,0
DA:337,0
DA:338,0
DA:339,0
DA:347,0
DA:348,0
DA:349,0
DA:351,0
DA:352,0
DA:353,0
DA:354,0
DA:355,0
DA:356,0
DA:357,0
DA:358,0
DA:359,0
DA:360,1
DA:361,1
DA:362,1
DA:363,1
DA:364,1
DA:365,1
DA:366,1
DA:367,1
DA:368,1
DA:369,0
DA:370,0
DA:371,0
DA:372,0
DA:373,0
DA:374,0
DA:375,0
DA:376,0
DA:377,0
DA:378,1
DA:379,1
DA:380,1
DA:381,1
DA:382,1
DA:383,1
DA:384,1
DA:385,1
DA:386,1
DA:387,1
DA:388,1
DA:389,1
DA:390,1
DA:391,1
DA:392,1
DA:393,1
DA:394,1
DA:395,1
DA:396,1
DA:397,1
DA:398,1
DA:399,1
DA:406,9
DA:407,9
DA:408,9
DA:410,3
DA:411,3
DA:412,3
DA:413,3
DA:414,3
DA:415,0
DA:416,0
DA:417,0
DA:418,0
DA:419,0
DA:423,6
DA:424,0
DA:426,6
DA:427,0
DA:428,6
DA:430,6
DA:431,0
DA:432,6
DA:434,6
DA:435,0
DA:436,6
DA:438,6
DA:439,0
DA:440,0
DA:441,6
DA:443,6
DA:444,0
DA:445,0
DA:446,6
DA:448,0
DA:449,6
DA:450,0
DA:451,0
DA:452,6
DA:454,0
DA:455,6
DA:456,0
DA:457,0
DA:458,6
DA:460,6
DA:461,0
DA:462,6
DA:464,6
DA:465,6
DA:466,6
DA:467,6
DA:468,6
DA:469,6
DA:471,4
DA:472,4
DA:473,4
DA:474,4
DA:475,4
DA:476,4
DA:477,4
DA:478,4
DA:479,4
DA:482,4
DA:483,0
DA:484,4
DA:486,4
DA:487,2
DA:488,2
DA:490,4
DA:491,4
DA:492,4
DA:493,4
DA:494,4
DA:495,4
DA:497,4
DA:499,4
DA:500,1
DA:501,3
DA:503,4
DA:504,2
DA:505,2
DA:507,4
DA:508,2
DA:509,2
DA:511,4
DA:512,2
DA:513,2
DA:515,4
DA:516,1
DA:517,3
DA:519,4
DA:520,1
DA:521,1
DA:522,3
DA:524,4
DA:525,0
DA:526,0
DA:527,0
DA:528,0
DA:529,4
DA:531,4
DA:532,0
DA:533,4
DA:535,4
DA:536,0
DA:537,4
DA:539,4
DA:540,0
DA:541,0
DA:542,0
DA:543,0
DA:544,4
DA:546,4
DA:547,0
DA:548,4
DA:550,4
DA:551,0
DA:552,4
DA:554,4
DA:555,0
DA:556,4
DA:558,4
DA:559,0
DA:560,4
DA:562,4
DA:563,1
DA:564,1
DA:565,3
DA:567,4
DA:568,0
DA:569,0
DA:570,4
DA:572,4
DA:573,0
DA:574,0
DA:575,4
DA:577,8
DA:578,8
DA:579,8
DA:580,8
DA:581,8
DA:582,8
DA:583,8
DA:584,8
DA:585,8
DA:586,8
DA:588,8
DA:589,8
DA:590,0
DA:591,1
DA:592,0
DA:593,0
DA:594,2
DA:595,4
DA:596,1
DA:597,0
DA:599,8
DA:602,4
DA:604,4
DA:605,1
DA:606,3
DA:608,4
DA:609,4
DA:610,4
DA:611,4
DA:613,4
DA:615,4
DA:616,4
DA:617,4
DA:619,4
DA:620,3
DA:621,3
DA:623,4
DA:624,4
DA:626,3
DA:627,3
DA:628,3
DA:629,3
DA:630,3
DA:631,3
DA:632,3
DA:633,3
DA:634,3
DA:635,3
DA:636,3
DA:639,3
DA:640,0
DA:641,3
DA:643,3
DA:644,3
DA:645,3
DA:647,3
DA:648,3
DA:649,3
DA:650,3
DA:652,26
DA:653,26
DA:654,26
DA:655,26
DA:656,26
DA:657,26
DA:658,26
DA:660,26
DA:661,26
DA:662,26
DA:663,26
DA:666,26
DA:667,18
DA:668,18
DA:670,26
DA:671,16
DA:672,16
DA:674,26
DA:675,16
DA:676,16
DA:678,26
DA:679,16
DA:680,16
DA:682,26
DA:683,26
DA:685,26
DA:686,26
DA:687,26
DA:688,26
DA:689,26
DA:691,26
DA:692,0
DA:693,26
DA:695,26
DA:696,0
DA:697,0
DA:698,0
DA:699,0
DA:700,0
DA:701,0
DA:702,26
DA:704,26
DA:705,0
DA:706,26
DA:708,26
DA:709,16
DA:710,16
DA:712,26
DA:713,16
DA:714,16
DA:715,16
DA:716,16
DA:718,26
DA:719,0
DA:720,0
DA:721,0
DA:722,0
DA:723,0
DA:724,0
DA:725,26
DA:727,26
DA:728,0
DA:729,26
DA:731,26
DA:732,0
DA:733,26
DA:735,26
DA:736,0
DA:737,0
DA:738,0
DA:739,0
DA:740,0
DA:741,0
DA:742,26
DA:744,26
DA:745,0
DA:746,26
DA:748,26
DA:749,0
DA:750,26
DA:752,26
DA:753,0
DA:754,26
DA:756,26
DA:757,0
DA:758,26
DA:760,26
DA:761,9
DA:762,17
DA:764,26
DA:765,10
DA:766,16
DA:768,26
DA:769,2
DA:770,24
DA:772,26
DA:773,2
DA:774,24
DA:776,26
DA:777,9
DA:778,17
DA:780,9
DA:781,26
DA:782,9
DA:783,9
DA:784,17
DA:786,26
DA:787,2
DA:788,24
DA:790,26
DA:791,2
DA:792,24
DA:794,26
DA:795,1
DA:796,25
DA:798,26
DA:800,26
DA:801,18
DA:802,18
DA:804,26
DA:805,5
DA:806,21
DA:808,26
DA:809,4
DA:810,22
DA:812,26
DA:813,4
DA:814,22
DA:816,26
DA:817,2
DA:818,1
DA:819,1
DA:820,25
DA:822,26
DA:823,0
DA:824,26
DA:826,26
DA:827,0
DA:828,26
DA:830,26
DA:831,0
DA:832,26
DA:834,26
DA:835,0
DA:836,26
DA:838,26
DA:839,0
DA:840,0
DA:841,0
DA:842,0
DA:843,0
DA:844,0
DA:845,26
DA:847,26
DA:848,0
DA:849,26
DA:851,26
DA:852,2
DA:853,24
DA:855,26
DA:856,0
DA:857,26
DA:859,26
DA:860,2
DA:861,24
DA:863,26
DA:864,2
DA:865,24
DA:867,26
DA:868,2
DA:869,24
DA:871,26
DA:872,2
DA:873,24
DA:875,26
DA:876,1
DA:877,25
DA:879,26
DA:880,1
DA:881,25
DA:883,26
DA:884,1
DA:885,25
DA:887,26
DA:888,1
DA:889,25
DA:891,26
DA:892,1
DA:893,25
DA:895,26
DA:896,0
DA:897,26
DA:899,26
DA:900,1
DA:901,25
DA:903,26
DA:904,1
DA:905,1
DA:906,1
DA:907,1
DA:908,25
DA:910,1
DA:911,26
DA:912,1
DA:913,1
DA:914,1
DA:915,1
DA:916,25
DA:918,26
DA:919,1
DA:920,25
DA:922,26
DA:923,1
DA:924,25
DA:926,26
DA:927,1
DA:928,1
DA:929,1
DA:930,1
DA:931,1
DA:932,1
DA:933,25
DA:935,26
DA:936,1
DA:937,25
DA:939,26
DA:940,26
DA:941,25
DA:942,25
DA:944,26
DA:945,25
DA:946,25
DA:948,26
DA:949,26
DA:950,26
DA:952,0
DA:953,0
DA:954,0
DA:955,0
DA:956,0
DA:957,0
DA:958,0
DA:959,0
DA:960,0
DA:961,0
DA:962,0
DA:963,0
DA:964,0
DA:965,0
DA:967,0
DA:968,0
DA:969,0
DA:970,0
DA:971,0
DA:972,0
DA:973,0
DA:975,11
DA:976,11
DA:978,11
DA:979,10
DA:980,10
DA:982,11
DA:983,11
DA:985,0
DA:986,0
DA:987,0
DA:992,0
DA:994,0
DA:996,6
DA:997,6
DA:998,0
DA:999,0
DA:1000,0
DA:1001,6
DA:1003,6
DA:1004,6
DA:1005,0
DA:1006,0
DA:1007,0
DA:1008,0
DA:1009,0
DA:1010,0
DA:1012,6
DA:1014,6
DA:1015,6
DA:1016,6
DA:1018,6
DA:1019,6
DA:1020,6
DA:1022,6
DA:1023,6
DA:1024,0
DA:1025,0
DA:1026,6
DA:1028,6
DA:1029,6
DA:1030,6
DA:1032,2
DA:1033,2
DA:1034,2
DA:1036,0
DA:1037,0
DA:1038,0
DA:1039,0
DA:1041,1
DA:1042,1
DA:1043,1
DA:1044,1
DA:1045,1
DA:1047,8
DA:1048,1
DA:1049,8
DA:1050,7
DA:1051,7
DA:1052,1
DA:1053,1
DA:1054,1
DA:1055,1
DA:1057,1
DA:1059,8
DA:1061,9
DA:1062,9
DA:1063,2
DA:1064,2
DA:1065,2
DA:1066,2
DA:1067,0
DA:1068,0
DA:1069,0
DA:1070,0
DA:1071,3
DA:1072,2
DA:1073,2
DA:1074,2
DA:1075,2
DA:1076,2
DA:1077,0
DA:1078,0
DA:1080,0
DA:1082,0
DA:1083,0
DA:1085,0
DA:1087,2
DA:1088,2
DA:1089,2
DA:1090,2
DA:1091,2
DA:1092,0
DA:1093,0
DA:1094,0
DA:1095,0
DA:1096,0
DA:1097,0
DA:1099,9
DA:1101,0
DA:1102,0
DA:1103,0
DA:1104,0
DA:1105,0
DA:1106,0
DA:1107,0
DA:1108,0
DA:1110,0
DA:1111,0
DA:1112,0
DA:1113,0
DA:1114,0
DA:1115,0
DA:1116,0
DA:1117,0
DA:1118,0
DA:1119,0
DA:1120,0
DA:1121,0
DA:1123,0
DA:1124,0
DA:1125,0
DA:1126,0
DA:1127,0
DA:1128,0
DA:1129,0
DA:1130,0
DA:1131,0
DA:1132,0
DA:1133,0
DA:1135,0
DA:1136,0
DA:1137,0
DA:1138,0
DA:1139,0
DA:1140,0
DA:1141,0
DA:1142,0
DA:1144,0
DA:1146,0
DA:1147,0
DA:1148,0
DA:1149,0
DA:1150,0
DA:1151,0
DA:1152,0
DA:1154,0
DA:1155,0
DA:1156,0
DA:1157,0
DA:1158,0
DA:1159,0
DA:1160,0
DA:1161,0
DA:1162,0
DA:1163,0
DA:1164,0
DA:1166,0
DA:1168,0
DA:1169,0
DA:1170,0
DA:1171,0
DA:1173,0
DA:1174,0
DA:1175,0
DA:1177,3
DA:1178,3
DA:1180,3
DA:1181,3
DA:1182,3
DA:1183,3
DA:1184,3
DA:1185,3
DA:1186,0
DA:1188,0
DA:1190,0
DA:1191,0
DA:1192,0
DA:1193,0
DA:1194,3
DA:1196,10
DA:1197,10
DA:1198,0
DA:1199,0
DA:1200,8
DA:1201,2
DA:1202,0
DA:1203,0
DA:1205,10
DA:1207,0
DA:1208,0
DA:1209,0
DA:1210,0
DA:1211,0
DA:1212,0
DA:1213,0
DA:1214,0
DA:1216,0
DA:1217,0
DA:1218,0
DA:1219,0
DA:1220,0
DA:1221,0
DA:1222,0
DA:1223,0
DA:1225,0
DA:1227,8
DA:1228,8
DA:1229,4
DA:1230,4
DA:1231,0
DA:1233,8
DA:1235,8
DA:1236,8
DA:1237,0
DA:1238,0
DA:1239,8
DA:1240,0
DA:1241,0
DA:1243,8
DA:1245,26
DA:1246,26
DA:1247,7
DA:1248,6
DA:1249,6
DA:1250,1
DA:1251,5
DA:1252,0
DA:1253,0
DA:1254,0
DA:1255,1
DA:1257,26
DA:1259,26
DA:1260,26
DA:1261,18
DA:1262,8
DA:1263,8
DA:1264,8
DA:1265,8
DA:1266,10
DA:1267,2
DA:1268,2
DA:1269,2
DA:1270,2
DA:1271,8
DA:1272,2
DA:1273,2
DA:1274,2
DA:1275,2
DA:1276,6
DA:1277,6
DA:1278,6
DA:1279,6
DA:1280,6
DA:1281,8
DA:1282,7
DA:1283,7
DA:1284,7
DA:1285,7
DA:1286,7
DA:1287,0
DA:1288,0
DA:1289,0
DA:1290,0
DA:1291,0
DA:1292,1
DA:1293,1
DA:1294,1
DA:1295,1
DA:1296,1
DA:1297,0
DA:1298,0
DA:1299,0
DA:1300,0
DA:1301,0
DA:1304,26
DA:1306,36
DA:1307,36
DA:1308,36
DA:1310,0
DA:1311,0
DA:1312,0
DA:1313,0
DA:1314,0
DA:1315,0
DA:1317,0
DA:1322,0
DA:1323,0
DA:1324,0
DA:1326,0
DA:1327,0
DA:1329,0
DA:1330,0
DA:1331,0
DA:1332,0
DA:1335,0
DA:1337,0
DA:1338,0
DA:1340,0
DA:1342,0
DA:1343,0
DA:1345,0
DA:1346,0
DA:1347,0
DA:1348,0
DA:1349,0
DA:1350,0
DA:1351,0
DA:1352,0
DA:1354,0
DA:1356,0
DA:1357,0
DA:1358,0
DA:1359,0
DA:1360,0
DA:1361,0
DA:1362,0
DA:1364,0
DA:1366,0
DA:1367,0
DA:1368,0
DA:1369,0
DA:1370,0
DA:1371,0
DA:1372,0
DA:1374,0
DA:1376,26
DA:1377,26
DA:1378,1
DA:1379,25
DA:1381,25
DA:1382,24
DA:1383,24
DA:1384,24
DA:1386,1
DA:1387,24
DA:1389,24
DA:1390,2
DA:1391,22
DA:1393,22
DA:1394,22
DA:1396,0
DA:1397,22
DA:1399,22
DA:1400,26
DA:1402,4
DA:1403,4
DA:1404,1
DA:1405,3
DA:1407,3
DA:1408,1
DA:1409,2
DA:1411,2
DA:1412,2
DA:1413,2
DA:1414,2
DA:1416,0
DA:1417,2
DA:1419,2
DA:1420,4
DA:1422,26
DA:1423,26
DA:1425,26
DA:1426,2
DA:1427,24
DA:1429,26
DA:1430,2
DA:1431,24
DA:1433,26
DA:1434,10
DA:1435,16
DA:1437,26
DA:1438,0
DA:1439,26
DA:1441,26
DA:1442,0
DA:1443,26
DA:1445,26
DA:1446,0
DA:1447,26
DA:1449,26
DA:1450,0
DA:1451,26
DA:1453,26
DA:1454,26
DA:1456,4
DA:1457,4
DA:1459,4
DA:1460,2
DA:1461,2
DA:1462,2
DA:1463,2
DA:1465,4
DA:1466,0
DA:1467,4
DA:1469,4
DA:1470,0
DA:1471,4
DA:1473,4
DA:1474,0
DA:1475,4
DA:1477,4
DA:1478,0
DA:1479,4
DA:1481,4
DA:1482,4
DA:1484,6
DA:1485,6
DA:1487,6
DA:1488,2
DA:1489,2
DA:1490,2
DA:1491,4
DA:1493,40
DA:1494,40
DA:1495,40
DA:1496,40
DA:1497,40
DA:1498,0
DA:1499,1
DA:1500,0
DA:1501,0
DA:1502,1
DA:1503,0
DA:1504,1
DA:1505,0
DA:1506,0
DA:1507,1
DA:1508,0
DA:1509,1
DA:1510,0
DA:1511,0
DA:1512,1
DA:1513,0
DA:1514,1
DA:1515,0
DA:1516,0
DA:1517,1
DA:1518,5
DA:1520,6
DA:1521,6
DA:1523,6
DA:1524,6
DA:1525,6
DA:1526,6
DA:1527,10
DA:1528,6
DA:1529,6
DA:1530,6
DA:1532,6
DA:1533,6
DA:1534,6
DA:1535,6
DA:1537,69
DA:1538,69
DA:1539,30
DA:1540,39
DA:1542,69
DA:1549,0
DA:1555,9
DA:1556,60
DA:1560,6
DA:1561,0
DA:1562,6
DA:1563,2
DA:1564,4
DA:1565,3
DA:1567,1
DA:1569,6
DA:1571,4
DA:1572,4
DA:1573,4
DA:1574,4
DA:1575,0
DA:1576,4
DA:1578,4
DA:1579,4
DA:1581,30
DA:1582,30
DA:1583,0
DA:1584,30
DA:1586,30
DA:1587,30
DA:1588,30
DA:1589,30
DA:1590,30
DA:1591,30
DA:1592,30
DA:1593,30
DA:1594,30
DA:1596,30
DA:1598,30
DA:1599,30
DA:1600,30
DA:1601,30
DA:1602,30
DA:1604,30
DA:1605,30
DA:1607,30
DA:1608,30
DA:1610,0
DA:1611,0
DA:1613,0
DA:1614,0
DA:1615,0
DA:1616,0
DA:1617,0
DA:1618,0
DA:1619,0
DA:1620,0
DA:1621,0
DA:1622,0
DA:1623,0
DA:1624,0
DA:1625,0
DA:1626,0
DA:1627,0
DA:1629,0
DA:1630,0
DA:1632,0
DA:1634,0
DA:1636,0
DA:1637,0
DA:1638,0
DA:1640,26
DA:1641,26
DA:1642,26
DA:1643,26
DA:1645,26
DA:1646,26
DA:1647,1
DA:1648,1
DA:1649,1
DA:1650,1
DA:1651,1
DA:1652,1
DA:1653,1
DA:1655,0
DA:1658,0
DA:1659,0
DA:1660,0
DA:1661,0
DA:1664,0
DA:1666,25
DA:1668,25
DA:1669,0
DA:1670,2
DA:1671,0
DA:1672,0
DA:1673,0
DA:1674,0
DA:1676,2
DA:1677,0
DA:1678,0
DA:1679,0
DA:1680,0
DA:1681,0
DA:1682,0
DA:1684,0
DA:1685,0
DA:1686,0
DA:1687,0
DA:1688,0
DA:1690,2
DA:1691,0
DA:1692,0
DA:1695,0
DA:1696,0
DA:1698,0
DA:1699,0
DA:1700,0
DA:1701,0
DA:1702,0
DA:1703,0
DA:1705,0
DA:1706,0
DA:1707,0
DA:1708,0
DA:1709,0
DA:1711,2
DA:1712,0
DA:1713,0
DA:1716,0
DA:1717,0
DA:1719,0
DA:1720,0
DA:1721,0
DA:1722,0
DA:1723,0
DA:1726,0
DA:1727,0
DA:1728,0
DA:1729,0
DA:1731,0
DA:1733,2
DA:1735,23
DA:1737,25
DA:1738,17
DA:1739,2
DA:1740,2
DA:1741,2
DA:1742,2
DA:1744,15
DA:1745,6
DA:1747,17
DA:1750,17
DA:1752,7
DA:1755,0
DA:1759,4
DA:1760,1
DA:1762,3
DA:1765,0
DA:1766,5
DA:1768,0
DA:1769,0
DA:1770,0
DA:1771,0
DA:1774,0
DA:1775,0
DA:1776,0
DA:1777,0
DA:1779,0
DA:1781,1
DA:1784,26
DA:1786,0
DA:1787,0
DA:1788,0
DA:1789,0
DA:1790,0
DA:1791,0
DA:1792,0
DA:1793,0
DA:1794,0
DA:1796,0
DA:1798,0
DA:1800,4
DA:1801,4
DA:1802,4
DA:1803,4
DA:1805,4
DA:1806,4
DA:1807,4
DA:1808,4
DA:1809,2
DA:1810,2
DA:1812,4
DA:1813,1
DA:1814,1
DA:1815,1
DA:1816,1
DA:1817,3
DA:1819,3
DA:1822,0
DA:1823,0
DA:1824,0
DA:1826,3
DA:1828,1
DA:1830,1
DA:1832,0
DA:1834,0
DA:1835,0
DA:1839,3
DA:1841,4
DA:1843,1
DA:1844,1
DA:1845,1
DA:1846,1
DA:1847,1
DA:1848,1
DA:1850,6
DA:1851,6
DA:1852,0
DA:1854,0
DA:1855,0
DA:1856,0
DA:1857,0
DA:1859,0
DA:1861,0
DA:1867,6
DA:1870,6
DA:1871,6
DA:1873,0
DA:1874,0
DA:1875,0
DA:1876,0
DA:1877,0
DA:1878,0
DA:1879,0
DA:1881,0
DA:1900,1
DA:1901,1
DA:1902,1
DA:1903,1
DA:1904,1
DA:1905,1
DA:1906,1
DA:1907,1
DA:1908,1
DA:1909,1
DA:1910,1
DA:1911,1
DA:1912,1
DA:1913,1
DA:1914,1
DA:1915,1
DA:1916,1
DA:1917,1
DA:1918,1
DA:1919,1
DA:1920,1
DA:1921,1
DA:1922,1
DA:1923,1
DA:1924,1
DA:1925,1
DA:1926,1
DA:1927,1
DA:1928,1
DA:1929,1
DA:1930,1
DA:1931,1
DA:1932,1
DA:1933,1
DA:1934,1
DA:1935,1
DA:1936,1
DA:1937,1
DA:1938,1
DA:1939,1
DA:1940,1
DA:1941,1
DA:1942,1
DA:1943,1
DA:1944,1
DA:1945,1
DA:1946,1
DA:1947,1
DA:1948,1
DA:1949,1
DA:1950,1
DA:1951,1
DA:1952,1
DA:1953,1
DA:1954,1
DA:1955,1
DA:1956,1
DA:1957,1
DA:1958,1
DA:1959,1
DA:1960,1
DA:1961,1
DA:1962,1
DA:1964,11
DA:1965,11
DA:1967,1
DA:1970,1
DA:1971,1
DA:1972,1
DA:1973,1
DA:1975,1
DA:1976,1
DA:1977,1
DA:1978,1
DA:1979,1
DA:1980,1
DA:1981,1
DA:1982,1
DA:1983,1
DA:1984,1
DA:1985,1
DA:1986,1
DA:1987,1
DA:1988,1
DA:1989,1
DA:1990,1
DA:1991,1
DA:1993,1
DA:1995,1
DA:1996,1
DA:1997,1
DA:2000,1
DA:2001,1
DA:2002,1
DA:2003,1
DA:2004,1
DA:2005,1
DA:2006,1
DA:2007,1
DA:2008,1
DA:2009,1
DA:2010,1
DA:2011,1
DA:2012,1
DA:2013,1
DA:2014,1
DA:2015,1
DA:2016,1
DA:2017,1
DA:2018,1
DA:2019,1
DA:2020,1
DA:2021,1
DA:2022,1
DA:2023,1
DA:2024,1
DA:2025,1
DA:2026,1
DA:2027,1
DA:2028,1
DA:2029,1
DA:2030,1
DA:2031,1
DA:2032,1
DA:2033,1
DA:2034,1
DA:2035,1
DA:2036,1
DA:2037,1
DA:2038,1
DA:2039,1
DA:2040,1
DA:2041,1
DA:2042,1
DA:2043,1
DA:2044,1
DA:2045,1
DA:2046,1
DA:2047,1
DA:2048,1
DA:2049,1
DA:2050,1
DA:2051,1
DA:2052,1
DA:2053,1
DA:2054,1
DA:2055,1
DA:2056,1
DA:2057,1
DA:2058,1
DA:2060,1
DA:2062,1
DA:2063,1
DA:2064,1
DA:2065,1
DA:2068,1
DA:2069,1
DA:2070,1
DA:2071,1
DA:2072,1
DA:2073,1
DA:2074,1
DA:2075,1
DA:2076,1
DA:2077,1
DA:2078,1
DA:2079,1
DA:2080,1
DA:2081,1
DA:2082,1
DA:2083,1
DA:2084,1
DA:2085,1
DA:2086,1
DA:2087,1
DA:2088,1
DA:2089,1
DA:2090,1
DA:2091,1
DA:2092,1
DA:2093,1
DA:2094,1
DA:2095,1
DA:2096,1
DA:2097,1
DA:2098,1
DA:2099,1
DA:2100,1
DA:2101,1
DA:2102,1
DA:2103,1
DA:2104,1
DA:2105,1
DA:2106,1
DA:2107,1
DA:2108,1
DA:2109,1
DA:2110,1
DA:2111,1
DA:2112,1
DA:2113,1
DA:2114,1
DA:2115,1
DA:2116,1
DA:2117,1
DA:2118,1
DA:2119,1
DA:2120,1
DA:2121,1
DA:2122,1
DA:2123,1
DA:2124,1
DA:2125,1
DA:2126,1
DA:2127,1
DA:2128,1
DA:2129,1
DA:2130,1
DA:2131,1
DA:2132,1
DA:2133,1
DA:2135,1
DA:2137,1
DA:2138,1
DA:2139,1
DA:2142,1
DA:2143,1
DA:2144,1
DA:2145,1
DA:2146,1
DA:2147,1
DA:2149,1
DA:2151,1
DA:2152,1
DA:2153,1
DA:2155,1
DA:2156,1
DA:2157,1
DA:2158,1
DA:2159,1
DA:2160,1
DA:2164,1
DA:2165,1
DA:2166,1
DA:2168,1
DA:2170,1
DA:2171,1
DA:2172,1
DA:2174,1
DA:2177,1
DA:2178,1
DA:2179,1
DA:2180,1
DA:2181,1
DA:2182,1
DA:2183,1
DA:2184,1
DA:2185,1
DA:2186,1
DA:2187,1
DA:2188,1
DA:2189,1
DA:2191,1
DA:2193,1
DA:2194,1
DA:2195,1
DA:2196,1
DA:2197,1
DA:2198,1
DA:2201,1
DA:2202,1
DA:2205,1
DA:2206,1
DA:2207,1
DA:2208,1
DA:2209,1
DA:2210,1
DA:2211,1
DA:2212,1
DA:2213,1
DA:2214,1
DA:2215,1
DA:2216,1
DA:2217,1
DA:2218,1
DA:2219,1
DA:2220,1
DA:2221,1
DA:2222,1
DA:2223,1
DA:2224,1
DA:2225,1
DA:2226,1
DA:2227,1
DA:2228,1
DA:2229,1
DA:2230,1
DA:2231,1
DA:2232,1
DA:2233,1
DA:2234,1
DA:2235,1
DA:2236,1
DA:2237,1
DA:2238,1
DA:2239,1
DA:2240,1
DA:2241,1
DA:2242,1
DA:2243,1
DA:2244,1
DA:2245,1
DA:2246,1
DA:2247,1
DA:2248,1
DA:2249,1
DA:2250,1
DA:2251,1
DA:2252,1
DA:2253,1
DA:2254,1
DA:2255,1
DA:2256,1
DA:2257,1
DA:2258,1
DA:2259,1
DA:2260,1
DA:2261,1
DA:2262,1
DA:2263,1
DA:2264,1
DA:2265,1
DA:2266,1
DA:2267,1
DA:2268,1
DA:2269,1
DA:2270,1
DA:2271,1
DA:2272,1
DA:2273,1
DA:2274,1
DA:2275,1
DA:2276,1
DA:2277,1
DA:2279,1
DA:2281,1
DA:2282,1
DA:2283,1
DA:2284,1
DA:2287,1
DA:2288,1
DA:2289,1
DA:2290,1
DA:2293,1
DA:2294,1
DA:2295,1
DA:2296,1
DA:2297,1
DA:2298,1
DA:2299,1
DA:2300,1
DA:2301,1
DA:2302,1
DA:2305,1
DA:2306,1
DA:2309,1
DA:2312,1
DA:2313,1
DA:2314,1
DA:2315,1
DA:2316,1
DA:2317,1
DA:2318,1
DA:2319,1
DA:2320,1
DA:2321,1
DA:2322,1
DA:2323,1
DA:2324,1
DA:2325,1
DA:2326,1
DA:2327,1
DA:2328,1
DA:2329,1
DA:2330,1
DA:2331,1
DA:2332,1
DA:2333,1
DA:2334,1
DA:2335,1
DA:2336,1
DA:2337,1
DA:2338,1
DA:2339,1
DA:2340,1
DA:2341,1
DA:2342,1
DA:2343,1
DA:2344,1
DA:2345,1
DA:2346,1
DA:2347,1
DA:2348,1
DA:2349,1
DA:2350,1
DA:2351,1
DA:2352,1
DA:2353,1
DA:2355,1
DA:2357,1
DA:2358,1
DA:2359,1
DA:2362,1
DA:2363,1
DA:2364,1
BRF:0
BRH:0
LF:1910
LH:1350
end_of_record
SF:/Users/rt/workspace/synod/src/cli/run.rs
FN:82,_RNvNtNtCs3oCotP8OZr6_5synod3cli3run18execute_custom_run
FN:34,_RNvNtNtCs3oCotP8OZr6_5synod3cli3run25execute_native_direct_run
FN:214,_RNvNtNtCs3oCotP8OZr6_5synod3cli3run29compatibility_terminal_output
FN:239,_RNvNtNtCs3oCotP8OZr6_5synod3cli3run35active_session_has_meaningful_state
FN:225,_RNvNtNtCs3oCotP8OZr6_5synod3cli3run38ensure_native_direct_run_can_bootstrap
FN:251,_RNvNtNtCs3oCotP8OZr6_5synod3cli3run40native_direct_run_requires_clarification
FN:240,_RNCNvNtNtCs3oCotP8OZr6_5synod3cli3run35active_session_has_meaningful_state0B7_
FN:252,_RNCNvNtNtCs3oCotP8OZr6_5synod3cli3run40native_direct_run_requires_clarification0B7_
FN:253,_RNCNvNtNtCs3oCotP8OZr6_5synod3cli3run40native_direct_run_requires_clarifications_0B7_
FNDA:0,_RNvNtNtCs3oCotP8OZr6_5synod3cli3run18execute_custom_run
FNDA:1,_RNvNtNtCs3oCotP8OZr6_5synod3cli3run25execute_native_direct_run
FNDA:0,_RNvNtNtCs3oCotP8OZr6_5synod3cli3run29compatibility_terminal_output
FNDA:0,_RNvNtNtCs3oCotP8OZr6_5synod3cli3run35active_session_has_meaningful_state
FNDA:1,_RNvNtNtCs3oCotP8OZr6_5synod3cli3run38ensure_native_direct_run_can_bootstrap
FNDA:1,_RNvNtNtCs3oCotP8OZr6_5synod3cli3run40native_direct_run_requires_clarification
FNDA:0,_RNCNvNtNtCs3oCotP8OZr6_5synod3cli3run35active_session_has_meaningful_state0B7_
FNDA:1,_RNCNvNtNtCs3oCotP8OZr6_5synod3cli3run40native_direct_run_requires_clarification0B7_
FNDA:1,_RNCNvNtNtCs3oCotP8OZr6_5synod3cli3run40native_direct_run_requires_clarifications_0B7_
FNF:9
FNH:5
DA:34,1
DA:35,1
DA:36,1
DA:37,1
DA:38,1
DA:39,1
DA:40,1
DA:41,1
DA:42,1
DA:43,1
DA:45,1
DA:46,1
DA:47,1
DA:49,1
DA:50,1
DA:51,1
DA:52,1
DA:53,1
DA:54,1
DA:56,1
DA:57,0
DA:58,0
DA:59,0
DA:60,0
DA:61,0
DA:62,0
DA:63,0
DA:64,1
DA:66,1
DA:67,1
DA:68,1
DA:69,1
DA:70,1
DA:71,1
DA:72,1
DA:73,1
DA:75,1
DA:76,1
DA:77,1
DA:78,1
DA:79,1
DA:80,1
DA:82,0
DA:83,0
DA:84,0
DA:85,0
DA:86,0
DA:87,0
DA:88,0
DA:89,0
DA:90,0
DA:91,0
DA:92,0
DA:93,0
DA:94,0
DA:95,0
DA:96,0
DA:97,0
DA:98,0
DA:99,0
DA:100,0
DA:101,0
DA:102,0
DA:104,0
DA:105,0
DA:106,0
DA:107,0
DA:108,0
DA:109,0
DA:110,0
DA:111,0
DA:112,0
DA:114,0
DA:115,0
DA:116,0
DA:117,0
DA:119,0
DA:120,0
DA:121,0
DA:123,0
DA:124,0
DA:125,0
DA:126,0
DA:129,0
DA:130,0
DA:131,0
DA:133,0
DA:134,0
DA:135,0
DA:138,0
DA:139,0
DA:140,0
DA:141,0
DA:142,0
DA:143,0
DA:144,0
DA:145,0
DA:146,0
DA:147,0
DA:148,0
DA:149,0
DA:150,0
DA:151,0
DA:152,0
DA:153,0
DA:154,0
DA:155,0
DA:156,0
DA:157,0
DA:158,0
DA:159,0
DA:160,0
DA:161,0
DA:163,0
DA:164,0
DA:165,0
DA:166,0
DA:167,0
DA:168,0
DA:170,0
DA:171,0
DA:172,0
DA:173,0
DA:174,0
DA:175,0
DA:176,0
DA:178,0
DA:180,0
DA:181,0
DA:182,0
DA:183,0
DA:184,0
DA:187,0
DA:188,0
DA:189,0
DA:190,0
DA:191,0
DA:192,0
DA:214,0
DA:215,0
DA:216,0
DA:217,0
DA:218,0
DA:219,0
DA:220,0
DA:222,0
DA:223,0
DA:225,1
DA:226,0
DA:227,1
DA:229,1
DA:232,0
DA:233,0
DA:234,0
DA:236,0
DA:237,1
DA:239,0
DA:240,0
DA:241,0
DA:242,0
DA:243,0
DA:244,0
DA:245,0
DA:246,0
DA:247,0
DA:248,0
DA:249,0
DA:251,1
DA:252,1
DA:253,1
DA:254,1
DA:255,1
DA:256,1
DA:257,1
BRF:0
BRH:0
LF:177
LH:48
end_of_record
SF:/Users/rt/workspace/synod/src/cli/session.rs
FN:240,_RNvNtNtCs3oCotP8OZr6_5synod3cli7session12execute_step
FN:1063,_RNvMNtNtCs3oCotP8OZr6_5synod3cli7sessionNtB2_19SessionCommandError12next_command
FN:1013,_RNvMNtNtCs3oCotP8OZr6_5synod3cli7sessionNtB2_19SessionCommandError7message
FN:285,_RNvNtNtCs3oCotP8OZr6_5synod3cli7session11execute_run
FN:166,_RNvNtNtCs3oCotP8OZr6_5synod3cli7session12execute_flow
FN:405,_RNvNtNtCs3oCotP8OZr6_5synod3cli7session12execute_next
FN:200,_RNvNtNtCs3oCotP8OZr6_5synod3cli7session12execute_plan
FN:470,_RNvNtNtCs3oCotP8OZr6_5synod3cli7session12render_error
FN:48,_RNvNtNtCs3oCotP8OZr6_5synod3cli7session13execute_start
FN:344,_RNvNtNtCs3oCotP8OZr6_5synod3cli7session14execute_status
FN:96,_RNvNtNtCs3oCotP8OZr6_5synod3cli7session15execute_capture
FN:538,_RNvNtNtCs3oCotP8OZr6_5synod3cli7session15map_store_error
FN:937,_RNvNtNtCs3oCotP8OZr6_5synod3cli7session16planning_summary
FN:547,_RNvNtNtCs3oCotP8OZr6_5synod3cli7session17map_runtime_error
FN:475,_RNvNtNtCs3oCotP8OZr6_5synod3cli7session17resolve_workspace
FN:521,_RNvNtNtCs3oCotP8OZr6_5synod3cli7session19load_active_session
FN:584,_RNvNtNtCs3oCotP8OZr6_5synod3cli7session20exit_status_for_task
FN:485,_RNvNtNtCs3oCotP8OZr6_5synod3cli7session22resolve_session_target
FN:896,_RNvNtNtCs3oCotP8OZr6_5synod3cli7session22suggested_next_command
FN:289,_RNvNtNtCs3oCotP8OZr6_5synod3cli7session23execute_run_with_target
FN:570,_RNvNtNtCs3oCotP8OZr6_5synod3cli7session23exit_status_for_session
FN:173,_RNvNtNtCs3oCotP8OZr6_5synod3cli7session24execute_flow_with_target
FN:409,_RNvNtNtCs3oCotP8OZr6_5synod3cli7session24execute_next_with_target
FN:208,_RNvNtNtCs3oCotP8OZr6_5synod3cli7session24execute_plan_with_target
FN:244,_RNvNtNtCs3oCotP8OZr6_5synod3cli7session24execute_step_with_target
FN:54,_RNvNtNtCs3oCotP8OZr6_5synod3cli7session25execute_start_with_target
FN:857,_RNvNtNtCs3oCotP8OZr6_5synod3cli7session25review_headline_from_task
FN:350,_RNvNtNtCs3oCotP8OZr6_5synod3cli7session26execute_status_with_target
FN:109,_RNvNtNtCs3oCotP8OZr6_5synod3cli7session27execute_capture_with_target
FN:850,_RNvNtNtCs3oCotP8OZr6_5synod3cli7session33requested_governance_runtime_text
FN:810,_RNvNtNtCs3oCotP8OZr6_5synod3cli7session40latest_workspace_compatibility_follow_up
FN:1126,_RNvNtNtNtCs3oCotP8OZr6_5synod3cli7session5tests14temp_workspace
FN:1132,_RNvNtNtNtCs3oCotP8OZr6_5synod3cli7session5tests25write_execution_workspace
FN:1245,_RNvNtNtNtCs3oCotP8OZr6_5synod3cli7session5tests28seed_fixture_planned_session
FN:1170,_RNvNtNtNtCs3oCotP8OZr6_5synod3cli7session5tests32write_review_execution_workspace
FN:1408,_RNvNtNtNtCs3oCotP8OZr6_5synod3cli7session5testss_47execute_run_status_and_next_cover_success_paths
FN:1561,_RNvNtNtNtCs3oCotP8OZr6_5synod3cli7session5testss_49execute_run_blocks_until_native_flow_is_confirmed
FN:1468,_RNvNtNtNtCs3oCotP8OZr6_5synod3cli7session5testss_54execute_run_status_and_inspect_surface_review_evidence
FN:1311,_RNvNtNtNtCs3oCotP8OZr6_5synod3cli7session5testss_57store_and_runtime_error_mapping_cover_translated_variants
FN:1274,_RNvNtNtNtCs3oCotP8OZr6_5synod3cli7session5testss_61resolve_workspace_and_status_helpers_cover_remaining_branches
FN:1356,_RNvNtNtNtCs3oCotP8OZr6_5synod3cli7session5testss_62session_command_error_helpers_cover_messages_and_next_commands
FN:1385,_RNvNtNtNtCs3oCotP8OZr6_5synod3cli7session5testss_67clustered_session_commands_resolve_the_primary_workspace_explicitly
FN:595,_RINvNtNtCs3oCotP8OZr6_5synod3cli7session17build_status_viewNtNtCs1OjIl8oxbrv_5alloc6string6StringEB6_
FN:595,_RINvNtNtCs3oCotP8OZr6_5synod3cli7session17build_status_viewReEB6_
FN:603,_RINvNtNtCs3oCotP8OZr6_5synod3cli7session32build_status_view_with_follow_upNtNtCs1OjIl8oxbrv_5alloc6string6StringEB6_
FN:603,_RINvNtNtCs3oCotP8OZr6_5synod3cli7session32build_status_view_with_follow_upReEB6_
FN:610,_RNCINvNtNtCs3oCotP8OZr6_5synod3cli7session32build_status_view_with_follow_upNtNtCs1OjIl8oxbrv_5alloc6string6StringE0B8_
FN:623,_RNCINvNtNtCs3oCotP8OZr6_5synod3cli7session32build_status_view_with_follow_upNtNtCs1OjIl8oxbrv_5alloc6string6StringEs0_0B8_
FN:627,_RNCINvNtNtCs3oCotP8OZr6_5synod3cli7session32build_status_view_with_follow_upNtNtCs1OjIl8oxbrv_5alloc6string6StringEs1_0B8_
FN:631,_RNCINvNtNtCs3oCotP8OZr6_5synod3cli7session32build_status_view_with_follow_upNtNtCs1OjIl8oxbrv_5alloc6string6StringEs2_0B8_
FN:632,_RNCINvNtNtCs3oCotP8OZr6_5synod3cli7session32build_status_view_with_follow_upNtNtCs1OjIl8oxbrv_5alloc6string6StringEs3_0B8_
FN:636,_RNCINvNtNtCs3oCotP8OZr6_5synod3cli7session32build_status_view_with_follow_upNtNtCs1OjIl8oxbrv_5alloc6string6StringEs4_0B8_
FN:637,_RNCINvNtNtCs3oCotP8OZr6_5synod3cli7session32build_status_view_with_follow_upNtNtCs1OjIl8oxbrv_5alloc6string6StringEs5_0B8_
FN:655,_RNCINvNtNtCs3oCotP8OZr6_5synod3cli7session32build_status_view_with_follow_upNtNtCs1OjIl8oxbrv_5alloc6string6StringEs7_0B8_
FN:656,_RNCINvNtNtCs3oCotP8OZr6_5synod3cli7session32build_status_view_with_follow_upNtNtCs1OjIl8oxbrv_5alloc6string6StringEs8_0B8_
FN:657,_RNCINvNtNtCs3oCotP8OZr6_5synod3cli7session32build_status_view_with_follow_upNtNtCs1OjIl8oxbrv_5alloc6string6StringEs9_0B8_
FN:619,_RNCINvNtNtCs3oCotP8OZr6_5synod3cli7session32build_status_view_with_follow_upNtNtCs1OjIl8oxbrv_5alloc6string6StringEs_0B8_
FN:658,_RNCINvNtNtCs3oCotP8OZr6_5synod3cli7session32build_status_view_with_follow_upNtNtCs1OjIl8oxbrv_5alloc6string6StringEsa_0B8_
FN:659,_RNCINvNtNtCs3oCotP8OZr6_5synod3cli7session32build_status_view_with_follow_upNtNtCs1OjIl8oxbrv_5alloc6string6StringEsb_0B8_
FN:663,_RNCINvNtNtCs3oCotP8OZr6_5synod3cli7session32build_status_view_with_follow_upNtNtCs1OjIl8oxbrv_5alloc6string6StringEsc_0B8_
FN:671,_RNCINvNtNtCs3oCotP8OZr6_5synod3cli7session32build_status_view_with_follow_upNtNtCs1OjIl8oxbrv_5alloc6string6StringEse_0B8_
FN:678,_RNCINvNtNtCs3oCotP8OZr6_5synod3cli7session32build_status_view_with_follow_upNtNtCs1OjIl8oxbrv_5alloc6string6StringEsi_0B8_
FN:686,_RNCINvNtNtCs3oCotP8OZr6_5synod3cli7session32build_status_view_with_follow_upNtNtCs1OjIl8oxbrv_5alloc6string6StringEsk_0B8_
FN:687,_RNCINvNtNtCs3oCotP8OZr6_5synod3cli7session32build_status_view_with_follow_upNtNtCs1OjIl8oxbrv_5alloc6string6StringEsl_0B8_
FN:688,_RNCINvNtNtCs3oCotP8OZr6_5synod3cli7session32build_status_view_with_follow_upNtNtCs1OjIl8oxbrv_5alloc6string6StringEsm_0B8_
FN:702,_RNCINvNtNtCs3oCotP8OZr6_5synod3cli7session32build_status_view_with_follow_upNtNtCs1OjIl8oxbrv_5alloc6string6StringEsn_0B8_
FN:711,_RNCINvNtNtCs3oCotP8OZr6_5synod3cli7session32build_status_view_with_follow_upNtNtCs1OjIl8oxbrv_5alloc6string6StringEso_0B8_
FN:715,_RNCINvNtNtCs3oCotP8OZr6_5synod3cli7session32build_status_view_with_follow_upNtNtCs1OjIl8oxbrv_5alloc6string6StringEsp_0B8_
FN:719,_RNCINvNtNtCs3oCotP8OZr6_5synod3cli7session32build_status_view_with_follow_upNtNtCs1OjIl8oxbrv_5alloc6string6StringEsq_0B8_
FN:724,_RNCINvNtNtCs3oCotP8OZr6_5synod3cli7session32build_status_view_with_follow_upNtNtCs1OjIl8oxbrv_5alloc6string6StringEsr_0B8_
FN:733,_RNCINvNtNtCs3oCotP8OZr6_5synod3cli7session32build_status_view_with_follow_upNtNtCs1OjIl8oxbrv_5alloc6string6StringEss_0B8_
FN:734,_RNCINvNtNtCs3oCotP8OZr6_5synod3cli7session32build_status_view_with_follow_upNtNtCs1OjIl8oxbrv_5alloc6string6StringEst_0B8_
FN:740,_RNCINvNtNtCs3oCotP8OZr6_5synod3cli7session32build_status_view_with_follow_upNtNtCs1OjIl8oxbrv_5alloc6string6StringEsu_0B8_
FN:746,_RNCINvNtNtCs3oCotP8OZr6_5synod3cli7session32build_status_view_with_follow_upNtNtCs1OjIl8oxbrv_5alloc6string6StringEsv_0B8_
FN:610,_RNCINvNtNtCs3oCotP8OZr6_5synod3cli7session32build_status_view_with_follow_upReE0B8_
FN:623,_RNCINvNtNtCs3oCotP8OZr6_5synod3cli7session32build_status_view_with_follow_upReEs0_0B8_
FN:627,_RNCINvNtNtCs3oCotP8OZr6_5synod3cli7session32build_status_view_with_follow_upReEs1_0B8_
FN:631,_RNCINvNtNtCs3oCotP8OZr6_5synod3cli7session32build_status_view_with_follow_upReEs2_0B8_
FN:632,_RNCINvNtNtCs3oCotP8OZr6_5synod3cli7session32build_status_view_with_follow_upReEs3_0B8_
FN:636,_RNCINvNtNtCs3oCotP8OZr6_5synod3cli7session32build_status_view_with_follow_upReEs4_0B8_
FN:637,_RNCINvNtNtCs3oCotP8OZr6_5synod3cli7session32build_status_view_with_follow_upReEs5_0B8_
FN:655,_RNCINvNtNtCs3oCotP8OZr6_5synod3cli7session32build_status_view_with_follow_upReEs7_0B8_
FN:656,_RNCINvNtNtCs3oCotP8OZr6_5synod3cli7session32build_status_view_with_follow_upReEs8_0B8_
FN:657,_RNCINvNtNtCs3oCotP8OZr6_5synod3cli7session32build_status_view_with_follow_upReEs9_0B8_
FN:619,_RNCINvNtNtCs3oCotP8OZr6_5synod3cli7session32build_status_view_with_follow_upReEs_0B8_
FN:658,_RNCINvNtNtCs3oCotP8OZr6_5synod3cli7session32build_status_view_with_follow_upReEsa_0B8_
FN:659,_RNCINvNtNtCs3oCotP8OZr6_5synod3cli7session32build_status_view_with_follow_upReEsb_0B8_
FN:663,_RNCINvNtNtCs3oCotP8OZr6_5synod3cli7session32build_status_view_with_follow_upReEsc_0B8_
FN:671,_RNCINvNtNtCs3oCotP8OZr6_5synod3cli7session32build_status_view_with_follow_upReEse_0B8_
FN:678,_RNCINvNtNtCs3oCotP8OZr6_5synod3cli7session32build_status_view_with_follow_upReEsi_0B8_
FN:686,_RNCINvNtNtCs3oCotP8OZr6_5synod3cli7session32build_status_view_with_follow_upReEsk_0B8_
FN:687,_RNCINvNtNtCs3oCotP8OZr6_5synod3cli7session32build_status_view_with_follow_upReEsl_0B8_
FN:688,_RNCINvNtNtCs3oCotP8OZr6_5synod3cli7session32build_status_view_with_follow_upReEsm_0B8_
FN:702,_RNCINvNtNtCs3oCotP8OZr6_5synod3cli7session32build_status_view_with_follow_upReEsn_0B8_
FN:711,_RNCINvNtNtCs3oCotP8OZr6_5synod3cli7session32build_status_view_with_follow_upReEso_0B8_
FN:715,_RNCINvNtNtCs3oCotP8OZr6_5synod3cli7session32build_status_view_with_follow_upReEsp_0B8_
FN:719,_RNCINvNtNtCs3oCotP8OZr6_5synod3cli7session32build_status_view_with_follow_upReEsq_0B8_
FN:724,_RNCINvNtNtCs3oCotP8OZr6_5synod3cli7session32build_status_view_with_follow_upReEsr_0B8_
FN:733,_RNCINvNtNtCs3oCotP8OZr6_5synod3cli7session32build_status_view_with_follow_upReEss_0B8_
FN:734,_RNCINvNtNtCs3oCotP8OZr6_5synod3cli7session32build_status_view_with_follow_upReEst_0B8_
FN:740,_RNCINvNtNtCs3oCotP8OZr6_5synod3cli7session32build_status_view_with_follow_upReEsu_0B8_
FN:746,_RNCINvNtNtCs3oCotP8OZr6_5synod3cli7session32build_status_view_with_follow_upReEsv_0B8_
FN:678,_RNCNCINvNtNtCs3oCotP8OZr6_5synod3cli7session32build_status_view_with_follow_upNtNtCs1OjIl8oxbrv_5alloc6string6StringEsi_00Ba_
FN:689,_RNCNCINvNtNtCs3oCotP8OZr6_5synod3cli7session32build_status_view_with_follow_upNtNtCs1OjIl8oxbrv_5alloc6string6StringEsm_00Ba_
FN:706,_RNCNCINvNtNtCs3oCotP8OZr6_5synod3cli7session32build_status_view_with_follow_upNtNtCs1OjIl8oxbrv_5alloc6string6StringEsn_00Ba_
FN:728,_RNCNCINvNtNtCs3oCotP8OZr6_5synod3cli7session32build_status_view_with_follow_upNtNtCs1OjIl8oxbrv_5alloc6string6StringEsr_00Ba_
FN:738,_RNCNCINvNtNtCs3oCotP8OZr6_5synod3cli7session32build_status_view_with_follow_upNtNtCs1OjIl8oxbrv_5alloc6string6StringEst_00Ba_
FN:744,_RNCNCINvNtNtCs3oCotP8OZr6_5synod3cli7session32build_status_view_with_follow_upNtNtCs1OjIl8oxbrv_5alloc6string6StringEsu_00Ba_
FN:750,_RNCNCINvNtNtCs3oCotP8OZr6_5synod3cli7session32build_status_view_with_follow_upNtNtCs1OjIl8oxbrv_5alloc6string6StringEsv_00Ba_
FN:678,_RNCNCINvNtNtCs3oCotP8OZr6_5synod3cli7session32build_status_view_with_follow_upReEsi_00Ba_
FN:689,_RNCNCINvNtNtCs3oCotP8OZr6_5synod3cli7session32build_status_view_with_follow_upReEsm_00Ba_
FN:706,_RNCNCINvNtNtCs3oCotP8OZr6_5synod3cli7session32build_status_view_with_follow_upReEsn_00Ba_
FN:728,_RNCNCINvNtNtCs3oCotP8OZr6_5synod3cli7session32build_status_view_with_follow_upReEsr_00Ba_
FN:738,_RNCNCINvNtNtCs3oCotP8OZr6_5synod3cli7session32build_status_view_with_follow_upReEst_00Ba_
FN:744,_RNCNCINvNtNtCs3oCotP8OZr6_5synod3cli7session32build_status_view_with_follow_upReEsu_00Ba_
FN:750,_RNCNCINvNtNtCs3oCotP8OZr6_5synod3cli7session32build_status_view_with_follow_upReEsv_00Ba_
FN:690,_RNCNCNCINvNtNtCs3oCotP8OZr6_5synod3cli7session32build_status_view_with_follow_upNtNtCs1OjIl8oxbrv_5alloc6string6StringEsm_000Bc_
FN:690,_RNCNCNCINvNtNtCs3oCotP8OZr6_5synod3cli7session32build_status_view_with_follow_upReEsm_000Bc_
FN:693,_RNCNCNCNCINvNtNtCs3oCotP8OZr6_5synod3cli7session32build_status_view_with_follow_upNtNtCs1OjIl8oxbrv_5alloc6string6StringEsm_0000Be_
FN:693,_RNCNCNCNCINvNtNtCs3oCotP8OZr6_5synod3cli7session32build_status_view_with_follow_upReEsm_0000Be_
FN:879,_RNCNCNvNtNtCs3oCotP8OZr6_5synod3cli7session25review_headline_from_tasks_00B9_
FN:897,_RNCNvNtNtCs3oCotP8OZr6_5synod3cli7session22suggested_next_command0B7_
FN:332,_RNCNvNtNtCs3oCotP8OZr6_5synod3cli7session23execute_run_with_target0B7_
FN:863,_RNCNvNtNtCs3oCotP8OZr6_5synod3cli7session25review_headline_from_task0B7_
FN:876,_RNCNvNtNtCs3oCotP8OZr6_5synod3cli7session25review_headline_from_tasks_0B7_
FN:815,_RNCNvNtNtCs3oCotP8OZr6_5synod3cli7session40latest_workspace_compatibility_follow_up0B7_
FN:826,_RNCNvNtNtCs3oCotP8OZr6_5synod3cli7session40latest_workspace_compatibility_follow_ups0_0B7_
FN:830,_RNCNvNtNtCs3oCotP8OZr6_5synod3cli7session40latest_workspace_compatibility_follow_ups1_0B7_
FN:822,_RNCNvNtNtCs3oCotP8OZr6_5synod3cli7session40latest_workspace_compatibility_follow_ups_0B7_
FNDA:0,_RNvNtNtCs3oCotP8OZr6_5synod3cli7session12execute_step
FNDA:11,_RNvMNtNtCs3oCotP8OZr6_5synod3cli7sessionNtB2_19SessionCommandError12next_command
FNDA:11,_RNvMNtNtCs3oCotP8OZr6_5synod3cli7sessionNtB2_19SessionCommandError7message
FNDA:4,_RNvNtNtCs3oCotP8OZr6_5synod3cli7session11execute_run
FNDA:1,_RNvNtNtCs3oCotP8OZr6_5synod3cli7session12execute_flow
FNDA:1,_RNvNtNtCs3oCotP8OZr6_5synod3cli7session12execute_next
FNDA:4,_RNvNtNtCs3oCotP8OZr6_5synod3cli7session12execute_plan
FNDA:11,_RNvNtNtCs3oCotP8OZr6_5synod3cli7session12render_error
FNDA:4,_RNvNtNtCs3oCotP8OZr6_5synod3cli7session13execute_start
FNDA:2,_RNvNtNtCs3oCotP8OZr6_5synod3cli7session14execute_status
FNDA:4,_RNvNtNtCs3oCotP8OZr6_5synod3cli7session15execute_capture
FNDA:2,_RNvNtNtCs3oCotP8OZr6_5synod3cli7session15map_store_error
FNDA:5,_RNvNtNtCs3oCotP8OZr6_5synod3cli7session16planning_summary
FNDA:7,_RNvNtNtCs3oCotP8OZr6_5synod3cli7session17map_runtime_error
FNDA:34,_RNvNtNtCs3oCotP8OZr6_5synod3cli7session17resolve_workspace
FNDA:28,_RNvNtNtCs3oCotP8OZr6_5synod3cli7session19load_active_session
FNDA:5,_RNvNtNtCs3oCotP8OZr6_5synod3cli7session20exit_status_for_task
FNDA:33,_RNvNtNtCs3oCotP8OZr6_5synod3cli7session22resolve_session_target
FNDA:16,_RNvNtNtCs3oCotP8OZr6_5synod3cli7session22suggested_next_command
FNDA:5,_RNvNtNtCs3oCotP8OZr6_5synod3cli7session23execute_run_with_target
FNDA:1,_RNvNtNtCs3oCotP8OZr6_5synod3cli7session23exit_status_for_session
FNDA:2,_RNvNtNtCs3oCotP8OZr6_5synod3cli7session24execute_flow_with_target
FNDA:3,_RNvNtNtCs3oCotP8OZr6_5synod3cli7session24execute_next_with_target
FNDA:6,_RNvNtNtCs3oCotP8OZr6_5synod3cli7session24execute_plan_with_target
FNDA:1,_RNvNtNtCs3oCotP8OZr6_5synod3cli7session24execute_step_with_target
FNDA:6,_RNvNtNtCs3oCotP8OZr6_5synod3cli7session25execute_start_with_target
FNDA:2,_RNvNtNtCs3oCotP8OZr6_5synod3cli7session25review_headline_from_task
FNDA:4,_RNvNtNtCs3oCotP8OZr6_5synod3cli7session26execute_status_with_target
FNDA:6,_RNvNtNtCs3oCotP8OZr6_5synod3cli7session27execute_capture_with_target
FNDA:0,_RNvNtNtCs3oCotP8OZr6_5synod3cli7session33requested_governance_runtime_text
FNDA:7,_RNvNtNtCs3oCotP8OZr6_5synod3cli7session40latest_workspace_compatibility_follow_up
FNDA:6,_RNvNtNtNtCs3oCotP8OZr6_5synod3cli7session5tests14temp_workspace
FNDA:4,_RNvNtNtNtCs3oCotP8OZr6_5synod3cli7session5tests25write_execution_workspace
FNDA:1,_RNvNtNtNtCs3oCotP8OZr6_5synod3cli7session5tests28seed_fixture_planned_session
FNDA:1,_RNvNtNtNtCs3oCotP8OZr6_5synod3cli7session5tests32write_review_execution_workspace
FNDA:1,_RNvNtNtNtCs3oCotP8OZr6_5synod3cli7session5testss_47execute_run_status_and_next_cover_success_paths
FNDA:1,_RNvNtNtNtCs3oCotP8OZr6_5synod3cli7session5testss_49execute_run_blocks_until_native_flow_is_confirmed
FNDA:1,_RNvNtNtNtCs3oCotP8OZr6_5synod3cli7session5testss_54execute_run_status_and_inspect_surface_review_evidence
FNDA:1,_RNvNtNtNtCs3oCotP8OZr6_5synod3cli7session5testss_57store_and_runtime_error_mapping_cover_translated_variants
FNDA:1,_RNvNtNtNtCs3oCotP8OZr6_5synod3cli7session5testss_61resolve_workspace_and_status_helpers_cover_remaining_branches
FNDA:1,_RNvNtNtNtCs3oCotP8OZr6_5synod3cli7session5testss_62session_command_error_helpers_cover_messages_and_next_commands
FNDA:1,_RNvNtNtNtCs3oCotP8OZr6_5synod3cli7session5testss_67clustered_session_commands_resolve_the_primary_workspace_explicitly
FNDA:13,_RINvNtNtCs3oCotP8OZr6_5synod3cli7session17build_status_viewNtNtCs1OjIl8oxbrv_5alloc6string6StringEB6_
FNDA:6,_RINvNtNtCs3oCotP8OZr6_5synod3cli7session17build_status_viewReEB6_
FNDA:15,_RINvNtNtCs3oCotP8OZr6_5synod3cli7session32build_status_view_with_follow_upNtNtCs1OjIl8oxbrv_5alloc6string6StringEB6_
FNDA:9,_RINvNtNtCs3oCotP8OZr6_5synod3cli7session32build_status_view_with_follow_upReEB6_
FNDA:13,_RNCINvNtNtCs3oCotP8OZr6_5synod3cli7session32build_status_view_with_follow_upNtNtCs1OjIl8oxbrv_5alloc6string6StringE0B8_
FNDA:13,_RNCINvNtNtCs3oCotP8OZr6_5synod3cli7session32build_status_view_with_follow_upNtNtCs1OjIl8oxbrv_5alloc6string6StringEs0_0B8_
FNDA:13,_RNCINvNtNtCs3oCotP8OZr6_5synod3cli7session32build_status_view_with_follow_upNtNtCs1OjIl8oxbrv_5alloc6string6StringEs1_0B8_
FNDA:1,_RNCINvNtNtCs3oCotP8OZr6_5synod3cli7session32build_status_view_with_follow_upNtNtCs1OjIl8oxbrv_5alloc6string6StringEs2_0B8_
FNDA:13,_RNCINvNtNtCs3oCotP8OZr6_5synod3cli7session32build_status_view_with_follow_upNtNtCs1OjIl8oxbrv_5alloc6string6StringEs3_0B8_
FNDA:13,_RNCINvNtNtCs3oCotP8OZr6_5synod3cli7session32build_status_view_with_follow_upNtNtCs1OjIl8oxbrv_5alloc6string6StringEs4_0B8_
FNDA:13,_RNCINvNtNtCs3oCotP8OZr6_5synod3cli7session32build_status_view_with_follow_upNtNtCs1OjIl8oxbrv_5alloc6string6StringEs5_0B8_
FNDA:0,_RNCINvNtNtCs3oCotP8OZr6_5synod3cli7session32build_status_view_with_follow_upNtNtCs1OjIl8oxbrv_5alloc6string6StringEs7_0B8_
FNDA:0,_RNCINvNtNtCs3oCotP8OZr6_5synod3cli7session32build_status_view_with_follow_upNtNtCs1OjIl8oxbrv_5alloc6string6StringEs8_0B8_
FNDA:0,_RNCINvNtNtCs3oCotP8OZr6_5synod3cli7session32build_status_view_with_follow_upNtNtCs1OjIl8oxbrv_5alloc6string6StringEs9_0B8_
FNDA:13,_RNCINvNtNtCs3oCotP8OZr6_5synod3cli7session32build_status_view_with_follow_upNtNtCs1OjIl8oxbrv_5alloc6string6StringEs_0B8_
FNDA:0,_RNCINvNtNtCs3oCotP8OZr6_5synod3cli7session32build_status_view_with_follow_upNtNtCs1OjIl8oxbrv_5alloc6string6StringEsa_0B8_
FNDA:6,_RNCINvNtNtCs3oCotP8OZr6_5synod3cli7session32build_status_view_with_follow_upNtNtCs1OjIl8oxbrv_5alloc6string6StringEsb_0B8_
FNDA:8,_RNCINvNtNtCs3oCotP8OZr6_5synod3cli7session32build_status_view_with_follow_upNtNtCs1OjIl8oxbrv_5alloc6string6StringEsc_0B8_
FNDA:6,_RNCINvNtNtCs3oCotP8OZr6_5synod3cli7session32build_status_view_with_follow_upNtNtCs1OjIl8oxbrv_5alloc6string6StringEse_0B8_
FNDA:1,_RNCINvNtNtCs3oCotP8OZr6_5synod3cli7session32build_status_view_with_follow_upNtNtCs1OjIl8oxbrv_5alloc6string6StringEsi_0B8_
FNDA:2,_RNCINvNtNtCs3oCotP8OZr6_5synod3cli7session32build_status_view_with_follow_upNtNtCs1OjIl8oxbrv_5alloc6string6StringEsk_0B8_
FNDA:2,_RNCINvNtNtCs3oCotP8OZr6_5synod3cli7session32build_status_view_with_follow_upNtNtCs1OjIl8oxbrv_5alloc6string6StringEsl_0B8_
FNDA:1,_RNCINvNtNtCs3oCotP8OZr6_5synod3cli7session32build_status_view_with_follow_upNtNtCs1OjIl8oxbrv_5alloc6string6StringEsm_0B8_
FNDA:1,_RNCINvNtNtCs3oCotP8OZr6_5synod3cli7session32build_status_view_with_follow_upNtNtCs1OjIl8oxbrv_5alloc6string6StringEsn_0B8_
FNDA:1,_RNCINvNtNtCs3oCotP8OZr6_5synod3cli7session32build_status_view_with_follow_upNtNtCs1OjIl8oxbrv_5alloc6string6StringEso_0B8_
FNDA:1,_RNCINvNtNtCs3oCotP8OZr6_5synod3cli7session32build_status_view_with_follow_upNtNtCs1OjIl8oxbrv_5alloc6string6StringEsp_0B8_
FNDA:1,_RNCINvNtNtCs3oCotP8OZr6_5synod3cli7session32build_status_view_with_follow_upNtNtCs1OjIl8oxbrv_5alloc6string6StringEsq_0B8_
FNDA:1,_RNCINvNtNtCs3oCotP8OZr6_5synod3cli7session32build_status_view_with_follow_upNtNtCs1OjIl8oxbrv_5alloc6string6StringEsr_0B8_
FNDA:1,_RNCINvNtNtCs3oCotP8OZr6_5synod3cli7session32build_status_view_with_follow_upNtNtCs1OjIl8oxbrv_5alloc6string6StringEss_0B8_
FNDA:1,_RNCINvNtNtCs3oCotP8OZr6_5synod3cli7session32build_status_view_with_follow_upNtNtCs1OjIl8oxbrv_5alloc6string6StringEst_0B8_
FNDA:1,_RNCINvNtNtCs3oCotP8OZr6_5synod3cli7session32build_status_view_with_follow_upNtNtCs1OjIl8oxbrv_5alloc6string6StringEsu_0B8_
FNDA:1,_RNCINvNtNtCs3oCotP8OZr6_5synod3cli7session32build_status_view_with_follow_upNtNtCs1OjIl8oxbrv_5alloc6string6StringEsv_0B8_
FNDA:3,_RNCINvNtNtCs3oCotP8OZr6_5synod3cli7session32build_status_view_with_follow_upReE0B8_
FNDA:3,_RNCINvNtNtCs3oCotP8OZr6_5synod3cli7session32build_status_view_with_follow_upReEs0_0B8_
FNDA:3,_RNCINvNtNtCs3oCotP8OZr6_5synod3cli7session32build_status_view_with_follow_upReEs1_0B8_
FNDA:1,_RNCINvNtNtCs3oCotP8OZr6_5synod3cli7session32build_status_view_with_follow_upReEs2_0B8_
FNDA:3,_RNCINvNtNtCs3oCotP8OZr6_5synod3cli7session32build_status_view_with_follow_upReEs3_0B8_
FNDA:3,_RNCINvNtNtCs3oCotP8OZr6_5synod3cli7session32build_status_view_with_follow_upReEs4_0B8_
FNDA:3,_RNCINvNtNtCs3oCotP8OZr6_5synod3cli7session32build_status_view_with_follow_upReEs5_0B8_
FNDA:0,_RNCINvNtNtCs3oCotP8OZr6_5synod3cli7session32build_status_view_with_follow_upReEs7_0B8_
FNDA:0,_RNCINvNtNtCs3oCotP8OZr6_5synod3cli7session32build_status_view_with_follow_upReEs8_0B8_
FNDA:0,_RNCINvNtNtCs3oCotP8OZr6_5synod3cli7session32build_status_view_with_follow_upReEs9_0B8_
FNDA:3,_RNCINvNtNtCs3oCotP8OZr6_5synod3cli7session32build_status_view_with_follow_upReEs_0B8_
FNDA:0,_RNCINvNtNtCs3oCotP8OZr6_5synod3cli7session32build_status_view_with_follow_upReEsa_0B8_
FNDA:3,_RNCINvNtNtCs3oCotP8OZr6_5synod3cli7session32build_status_view_with_follow_upReEsb_0B8_
FNDA:2,_RNCINvNtNtCs3oCotP8OZr6_5synod3cli7session32build_status_view_with_follow_upReEsc_0B8_
FNDA:3,_RNCINvNtNtCs3oCotP8OZr6_5synod3cli7session32build_status_view_with_follow_upReEse_0B8_
FNDA:1,_RNCINvNtNtCs3oCotP8OZr6_5synod3cli7session32build_status_view_with_follow_upReEsi_0B8_
FNDA:2,_RNCINvNtNtCs3oCotP8OZr6_5synod3cli7session32build_status_view_with_follow_upReEsk_0B8_
FNDA:2,_RNCINvNtNtCs3oCotP8OZr6_5synod3cli7session32build_status_view_with_follow_upReEsl_0B8_
FNDA:1,_RNCINvNtNtCs3oCotP8OZr6_5synod3cli7session32build_status_view_with_follow_upReEsm_0B8_
FNDA:1,_RNCINvNtNtCs3oCotP8OZr6_5synod3cli7session32build_status_view_with_follow_upReEsn_0B8_
FNDA:1,_RNCINvNtNtCs3oCotP8OZr6_5synod3cli7session32build_status_view_with_follow_upReEso_0B8_
FNDA:1,_RNCINvNtNtCs3oCotP8OZr6_5synod3cli7session32build_status_view_with_follow_upReEsp_0B8_
FNDA:1,_RNCINvNtNtCs3oCotP8OZr6_5synod3cli7session32build_status_view_with_follow_upReEsq_0B8_
FNDA:1,_RNCINvNtNtCs3oCotP8OZr6_5synod3cli7session32build_status_view_with_follow_upReEsr_0B8_
FNDA:1,_RNCINvNtNtCs3oCotP8OZr6_5synod3cli7session32build_status_view_with_follow_upReEss_0B8_
FNDA:1,_RNCINvNtNtCs3oCotP8OZr6_5synod3cli7session32build_status_view_with_follow_upReEst_0B8_
FNDA:1,_RNCINvNtNtCs3oCotP8OZr6_5synod3cli7session32build_status_view_with_follow_upReEsu_0B8_
FNDA:1,_RNCINvNtNtCs3oCotP8OZr6_5synod3cli7session32build_status_view_with_follow_upReEsv_0B8_
FNDA:1,_RNCNCINvNtNtCs3oCotP8OZr6_5synod3cli7session32build_status_view_with_follow_upNtNtCs1OjIl8oxbrv_5alloc6string6StringEsi_00Ba_
FNDA:0,_RNCNCINvNtNtCs3oCotP8OZr6_5synod3cli7session32build_status_view_with_follow_upNtNtCs1OjIl8oxbrv_5alloc6string6StringEsm_00Ba_
FNDA:0,_RNCNCINvNtNtCs3oCotP8OZr6_5synod3cli7session32build_status_view_with_follow_upNtNtCs1OjIl8oxbrv_5alloc6string6StringEsn_00Ba_
FNDA:0,_RNCNCINvNtNtCs3oCotP8OZr6_5synod3cli7session32build_status_view_with_follow_upNtNtCs1OjIl8oxbrv_5alloc6string6StringEsr_00Ba_
FNDA:0,_RNCNCINvNtNtCs3oCotP8OZr6_5synod3cli7session32build_status_view_with_follow_upNtNtCs1OjIl8oxbrv_5alloc6string6StringEst_00Ba_
FNDA:0,_RNCNCINvNtNtCs3oCotP8OZr6_5synod3cli7session32build_status_view_with_follow_upNtNtCs1OjIl8oxbrv_5alloc6string6StringEsu_00Ba_
FNDA:0,_RNCNCINvNtNtCs3oCotP8OZr6_5synod3cli7session32build_status_view_with_follow_upNtNtCs1OjIl8oxbrv_5alloc6string6StringEsv_00Ba_
FNDA:0,_RNCNCINvNtNtCs3oCotP8OZr6_5synod3cli7session32build_status_view_with_follow_upReEsi_00Ba_
FNDA:1,_RNCNCINvNtNtCs3oCotP8OZr6_5synod3cli7session32build_status_view_with_follow_upReEsm_00Ba_
FNDA:0,_RNCNCINvNtNtCs3oCotP8OZr6_5synod3cli7session32build_status_view_with_follow_upReEsn_00Ba_
FNDA:1,_RNCNCINvNtNtCs3oCotP8OZr6_5synod3cli7session32build_status_view_with_follow_upReEsr_00Ba_
FNDA:1,_RNCNCINvNtNtCs3oCotP8OZr6_5synod3cli7session32build_status_view_with_follow_upReEst_00Ba_
FNDA:1,_RNCNCINvNtNtCs3oCotP8OZr6_5synod3cli7session32build_status_view_with_follow_upReEsu_00Ba_
FNDA:1,_RNCNCINvNtNtCs3oCotP8OZr6_5synod3cli7session32build_status_view_with_follow_upReEsv_00Ba_
FNDA:0,_RNCNCNCINvNtNtCs3oCotP8OZr6_5synod3cli7session32build_status_view_with_follow_upNtNtCs1OjIl8oxbrv_5alloc6string6StringEsm_000Bc_
FNDA:1,_RNCNCNCINvNtNtCs3oCotP8OZr6_5synod3cli7session32build_status_view_with_follow_upReEsm_000Bc_
FNDA:0,_RNCNCNCNCINvNtNtCs3oCotP8OZr6_5synod3cli7session32build_status_view_with_follow_upNtNtCs1OjIl8oxbrv_5alloc6string6StringEsm_0000Be_
FNDA:1,_RNCNCNCNCINvNtNtCs3oCotP8OZr6_5synod3cli7session32build_status_view_with_follow_upReEsm_0000Be_
FNDA:0,_RNCNCNvNtNtCs3oCotP8OZr6_5synod3cli7session25review_headline_from_tasks_00B9_
FNDA:15,_RNCNvNtNtCs3oCotP8OZr6_5synod3cli7session22suggested_next_command0B7_
FNDA:0,_RNCNvNtNtCs3oCotP8OZr6_5synod3cli7session23execute_run_with_target0B7_
FNDA:1,_RNCNvNtNtCs3oCotP8OZr6_5synod3cli7session25review_headline_from_task0B7_
FNDA:0,_RNCNvNtNtCs3oCotP8OZr6_5synod3cli7session25review_headline_from_tasks_0B7_
FNDA:0,_RNCNvNtNtCs3oCotP8OZr6_5synod3cli7session40latest_workspace_compatibility_follow_up0B7_
FNDA:0,_RNCNvNtNtCs3oCotP8OZr6_5synod3cli7session40latest_workspace_compatibility_follow_ups0_0B7_
FNDA:0,_RNCNvNtNtCs3oCotP8OZr6_5synod3cli7session40latest_workspace_compatibility_follow_ups1_0B7_
FNDA:5,_RNCNvNtNtCs3oCotP8OZr6_5synod3cli7session40latest_workspace_compatibility_follow_ups_0B7_
FNF:90
FNH:77
DA:48,4
DA:49,4
DA:50,4
DA:51,4
DA:52,4
DA:54,6
DA:55,6
DA:56,6
DA:57,6
DA:58,6
DA:59,6
DA:60,6
DA:61,6
DA:62,6
DA:63,6
DA:64,6
DA:65,6
DA:66,6
DA:67,6
DA:68,6
DA:69,6
DA:70,6
DA:71,6
DA:72,6
DA:73,6
DA:74,6
DA:75,6
DA:76,6
DA:77,6
DA:78,6
DA:80,6
DA:83,6
DA:84,6
DA:85,6
DA:86,6
DA:87,6
DA:88,1
DA:90,5
DA:94,6
DA:96,4
DA:97,4
DA:98,4
DA:99,4
DA:100,4
DA:101,4
DA:102,4
DA:103,4
DA:104,4
DA:105,4
DA:106,4
DA:109,6
DA:110,6
DA:111,6
DA:112,6
DA:113,6
DA:114,6
DA:115,6
DA:116,6
DA:117,6
DA:118,6
DA:119,6
DA:120,6
DA:121,6
DA:122,6
DA:124,5
DA:125,5
DA:126,5
DA:127,5
DA:128,5
DA:130,5
DA:131,5
DA:132,5
DA:133,5
DA:134,5
DA:135,5
DA:136,5
DA:137,5
DA:138,5
DA:140,5
DA:141,0
DA:142,0
DA:143,5
DA:144,5
DA:146,0
DA:148,0
DA:153,5
DA:154,5
DA:155,5
DA:156,5
DA:157,5
DA:158,0
DA:160,5
DA:164,6
DA:166,1
DA:167,1
DA:168,1
DA:169,1
DA:170,1
DA:171,1
DA:173,2
DA:174,2
DA:175,2
DA:176,2
DA:177,2
DA:178,2
DA:179,2
DA:180,2
DA:181,2
DA:183,1
DA:184,1
DA:187,1
DA:188,1
DA:189,1
DA:190,1
DA:191,1
DA:192,0
DA:194,1
DA:198,2
DA:200,4
DA:201,4
DA:202,4
DA:203,4
DA:204,4
DA:205,4
DA:206,4
DA:208,6
DA:209,6
DA:210,6
DA:211,6
DA:212,6
DA:213,6
DA:214,6
DA:215,6
DA:216,6
DA:217,6
DA:219,5
DA:220,0
DA:221,5
DA:223,5
DA:224,5
DA:227,5
DA:228,5
DA:229,5
DA:230,5
DA:231,5
DA:232,0
DA:234,5
DA:238,6
DA:240,0
DA:241,0
DA:242,0
DA:244,1
DA:245,1
DA:246,1
DA:247,1
DA:248,1
DA:249,1
DA:250,1
DA:252,0
DA:253,0
DA:254,0
DA:256,0
DA:257,0
DA:258,0
DA:260,0
DA:261,0
DA:262,0
DA:263,0
DA:264,0
DA:265,0
DA:266,0
DA:267,0
DA:268,0
DA:269,0
DA:270,0
DA:272,0
DA:273,0
DA:275,0
DA:276,0
DA:277,0
DA:278,0
DA:279,0
DA:280,0
DA:281,0
DA:282,0
DA:283,1
DA:285,4
DA:286,4
DA:287,4
DA:289,5
DA:290,5
DA:291,5
DA:292,5
DA:293,5
DA:294,5
DA:295,5
DA:296,5
DA:298,5
DA:299,0
DA:300,5
DA:302,5
DA:303,0
DA:304,5
DA:306,4
DA:307,5
DA:309,4
DA:310,0
DA:311,4
DA:313,4
DA:314,1
DA:316,0
DA:317,0
DA:318,0
DA:319,0
DA:320,0
DA:321,0
DA:322,0
DA:323,0
DA:324,0
DA:325,4
DA:327,4
DA:328,4
DA:330,4
DA:331,4
DA:332,4
DA:333,4
DA:335,4
DA:336,4
DA:337,4
DA:338,4
DA:339,4
DA:340,4
DA:341,4
DA:342,5
DA:344,2
DA:345,2
DA:346,2
DA:347,2
DA:348,2
DA:350,4
DA:351,4
DA:352,4
DA:353,4
DA:354,4
DA:355,4
DA:356,4
DA:357,3
DA:358,3
DA:359,3
DA:360,3
DA:361,0
DA:362,3
DA:363,3
DA:364,3
DA:365,3
DA:366,0
DA:369,3
DA:370,3
DA:371,3
DA:372,3
DA:373,3
DA:374,0
DA:375,3
DA:376,0
DA:378,3
DA:380,3
DA:385,0
DA:386,1
DA:388,1
DA:391,0
DA:392,0
DA:393,0
DA:394,0
DA:395,0
DA:396,0
DA:397,0
DA:398,0
DA:399,0
DA:401,0
DA:403,4
DA:405,1
DA:406,1
DA:407,1
DA:409,3
DA:410,3
DA:411,3
DA:412,3
DA:413,3
DA:414,3
DA:415,2
DA:416,2
DA:417,2
DA:418,2
DA:419,2
DA:420,2
DA:421,2
DA:422,2
DA:423,2
DA:424,0
DA:427,2
DA:428,2
DA:429,2
DA:430,2
DA:431,2
DA:432,0
DA:434,0
DA:438,2
DA:442,2
DA:447,0
DA:448,1
DA:450,1
DA:453,0
DA:454,0
DA:455,0
DA:456,0
DA:457,0
DA:458,0
DA:459,0
DA:460,0
DA:461,0
DA:462,0
DA:463,0
DA:464,0
DA:466,0
DA:468,3
DA:470,11
DA:471,11
DA:472,11
DA:473,11
DA:475,34
DA:476,34
DA:477,34
DA:478,1
DA:479,0
DA:482,34
DA:483,34
DA:485,33
DA:486,33
DA:487,33
DA:488,33
DA:489,33
DA:490,33
DA:491,1
DA:492,1
DA:493,1
DA:494,0
DA:495,0
DA:496,0
DA:497,0
DA:499,1
DA:500,1
DA:501,1
DA:502,1
DA:503,1
DA:504,1
DA:505,1
DA:506,1
DA:507,1
DA:508,1
DA:509,1
DA:512,1
DA:513,32
DA:516,32
DA:517,32
DA:519,33
DA:521,28
DA:522,28
DA:523,28
DA:524,28
DA:525,6
DA:528,22
DA:529,0
DA:530,0
DA:531,0
DA:532,0
DA:533,22
DA:535,22
DA:536,28
DA:538,2
DA:539,2
DA:540,1
DA:541,1
DA:543,1
DA:545,2
DA:547,7
DA:548,7
DA:549,1
DA:550,0
DA:551,0
DA:553,1
DA:554,1
DA:555,1
DA:557,1
DA:558,1
DA:560,1
DA:561,1
DA:563,1
DA:564,1
DA:566,1
DA:568,7
DA:570,1
DA:571,1
DA:575,1
DA:580,0
DA:582,1
DA:584,5
DA:585,5
DA:587,1
DA:590,4
DA:593,5
DA:595,19
DA:596,19
DA:597,19
DA:598,19
DA:599,19
DA:600,19
DA:601,19
DA:603,24
DA:604,24
DA:605,24
DA:606,24
DA:607,24
DA:608,24
DA:609,24
DA:610,24
DA:613,24
DA:614,24
DA:615,24
DA:616,24
DA:617,24
DA:618,24
DA:619,24
DA:620,24
DA:621,24
DA:622,24
DA:623,24
DA:624,24
DA:625,24
DA:626,24
DA:627,24
DA:628,24
DA:629,24
DA:630,24
DA:631,24
DA:632,24
DA:633,24
DA:634,24
DA:635,24
DA:636,24
DA:637,24
DA:638,16
DA:639,16
DA:640,16
DA:641,24
DA:642,24
DA:643,24
DA:644,24
DA:645,24
DA:646,24
DA:647,24
DA:648,24
DA:649,24
DA:650,24
DA:651,24
DA:652,24
DA:653,24
DA:654,24
DA:655,24
DA:656,24
DA:657,24
DA:658,24
DA:659,24
DA:660,24
DA:661,24
DA:662,24
DA:663,24
DA:664,24
DA:665,24
DA:666,24
DA:667,24
DA:668,24
DA:669,24
DA:670,24
DA:671,24
DA:672,24
DA:673,24
DA:674,24
DA:675,24
DA:676,24
DA:677,24
DA:678,24
DA:679,24
DA:680,24
DA:681,24
DA:682,24
DA:683,24
DA:684,24
DA:685,24
DA:686,24
DA:687,24
DA:688,24
DA:689,2
DA:690,1
DA:691,1
DA:692,1
DA:693,1
DA:694,1
DA:695,1
DA:696,1
DA:697,2
DA:698,24
DA:699,24
DA:700,24
DA:701,24
DA:702,24
DA:703,2
DA:704,2
DA:705,2
DA:706,2
DA:707,2
DA:708,24
DA:709,24
DA:710,24
DA:711,24
DA:712,24
DA:713,24
DA:714,24
DA:715,24
DA:716,24
DA:717,24
DA:718,24
DA:719,24
DA:720,24
DA:721,24
DA:722,24
DA:723,24
DA:724,24
DA:725,2
DA:726,2
DA:727,2
DA:728,2
DA:729,2
DA:730,24
DA:731,24
DA:732,24
DA:733,24
DA:734,24
DA:735,2
DA:736,2
DA:737,2
DA:738,2
DA:739,2
DA:740,24
DA:741,2
DA:742,2
DA:743,2
DA:744,2
DA:745,2
DA:746,24
DA:747,2
DA:748,2
DA:749,2
DA:750,2
DA:751,2
DA:752,24
DA:753,24
DA:754,24
DA:755,24
DA:756,24
DA:757,24
DA:758,24
DA:759,24
DA:760,24
DA:761,24
DA:762,24
DA:763,24
DA:764,24
DA:765,24
DA:766,24
DA:767,24
DA:768,24
DA:769,24
DA:770,24
DA:771,24
DA:772,24
DA:773,24
DA:774,24
DA:775,24
DA:776,24
DA:777,24
DA:778,24
DA:779,24
DA:780,24
DA:781,24
DA:782,24
DA:783,24
DA:784,24
DA:785,24
DA:786,24
DA:787,24
DA:788,24
DA:789,24
DA:790,24
DA:791,24
DA:792,24
DA:793,24
DA:794,24
DA:795,24
DA:796,24
DA:797,24
DA:798,24
DA:799,24
DA:800,24
DA:801,24
DA:802,24
DA:803,24
DA:804,24
DA:805,24
DA:806,24
DA:808,24
DA:810,7
DA:811,7
DA:812,7
DA:813,7
DA:814,7
DA:815,7
DA:816,0
DA:817,0
DA:819,2
DA:822,5
DA:823,5
DA:824,0
DA:826,0
DA:827,0
DA:828,0
DA:829,0
DA:830,0
DA:831,0
DA:832,0
DA:835,0
DA:836,0
DA:837,0
DA:839,0
DA:840,0
DA:841,0
DA:842,0
DA:843,0
DA:844,0
DA:845,0
DA:846,0
DA:847,0
DA:848,7
DA:850,0
DA:851,0
DA:852,0
DA:853,0
DA:855,0
DA:857,2
DA:858,2
DA:859,2
DA:860,2
DA:861,2
DA:862,2
DA:863,2
DA:864,2
DA:865,1
DA:866,1
DA:867,1
DA:868,1
DA:869,1
DA:871,1
DA:872,1
DA:873,1
DA:874,1
DA:875,1
DA:876,1
DA:877,0
DA:878,0
DA:879,0
DA:880,0
DA:881,0
DA:882,0
DA:883,0
DA:884,0
DA:885,0
DA:886,0
DA:887,1
DA:889,1
DA:890,1
DA:892,0
DA:894,2
DA:896,16
DA:897,16
DA:898,0
DA:899,16
DA:901,16
DA:902,2
DA:904,0
DA:905,0
DA:906,0
DA:907,0
DA:909,16
DA:911,16
DA:912,0
DA:913,1
DA:915,5
DA:916,5
DA:917,5
DA:919,2
DA:920,3
DA:922,3
DA:923,3
DA:924,0
DA:926,0
DA:928,0
DA:932,9
DA:933,1
DA:935,16
DA:937,5
DA:938,5
DA:939,0
DA:942,5
DA:943,5
DA:944,5
DA:945,3
DA:949,2
DA:951,2
DA:955,0
DA:957,0
DA:958,0
DA:961,0
DA:963,0
DA:966,5
DA:1013,11
DA:1014,11
DA:1016,6
DA:1018,0
DA:1019,0
DA:1020,0
DA:1024,0
DA:1025,0
DA:1026,1
DA:1027,1
DA:1031,1
DA:1032,1
DA:1034,1
DA:1035,1
DA:1039,0
DA:1040,0
DA:1042,1
DA:1043,1
DA:1045,0
DA:1046,0
DA:1047,1
DA:1048,0
DA:1049,0
DA:1050,0
DA:1051,0
DA:1053,0
DA:1056,0
DA:1057,0
DA:1059,0
DA:1061,11
DA:1063,11
DA:1064,11
DA:1067,6
DA:1068,0
DA:1069,0
DA:1070,1
DA:1071,1
DA:1073,1
DA:1074,1
DA:1075,0
DA:1076,1
DA:1078,0
DA:1083,1
DA:1084,0
DA:1085,0
DA:1086,0
DA:1088,11
DA:1126,6
DA:1127,6
DA:1128,6
DA:1129,6
DA:1130,6
DA:1132,4
DA:1133,4
DA:1134,4
DA:1135,4
DA:1136,4
DA:1137,4
DA:1138,4
DA:1139,4
DA:1140,4
DA:1141,4
DA:1142,4
DA:1143,4
DA:1144,4
DA:1145,4
DA:1146,4
DA:1147,4
DA:1148,4
DA:1149,4
DA:1150,4
DA:1151,4
DA:1152,4
DA:1153,4
DA:1154,4
DA:1155,4
DA:1156,4
DA:1157,4
DA:1158,4
DA:1159,4
DA:1160,4
DA:1161,4
DA:1162,4
DA:1163,4
DA:1164,4
DA:1166,4
DA:1167,4
DA:1168,4
DA:1170,1
DA:1171,1
DA:1172,1
DA:1173,1
DA:1174,1
DA:1175,1
DA:1176,1
DA:1177,1
DA:1178,1
DA:1179,1
DA:1180,1
DA:1181,1
DA:1182,1
DA:1183,1
DA:1184,1
DA:1185,1
DA:1186,1
DA:1187,1
DA:1188,1
DA:1189,1
DA:1190,1
DA:1191,1
DA:1192,1
DA:1193,1
DA:1194,1
DA:1195,1
DA:1196,1
DA:1197,1
DA:1198,1
DA:1199,1
DA:1200,1
DA:1201,1
DA:1202,1
DA:1203,1
DA:1204,1
DA:1205,1
DA:1206,1
DA:1207,1
DA:1208,1
DA:1209,1
DA:1210,1
DA:1211,1
DA:1212,1
DA:1213,1
DA:1214,1
DA:1215,1
DA:1216,1
DA:1217,1
DA:1218,1
DA:1219,1
DA:1220,1
DA:1221,1
DA:1222,1
DA:1223,1
DA:1224,1
DA:1225,1
DA:1226,1
DA:1227,1
DA:1228,1
DA:1229,1
DA:1230,1
DA:1231,1
DA:1232,1
DA:1233,1
DA:1234,1
DA:1235,1
DA:1236,1
DA:1237,1
DA:1238,1
DA:1239,1
DA:1241,1
DA:1242,1
DA:1243,1
DA:1245,1
DA:1246,1
DA:1247,1
DA:1248,1
DA:1249,1
DA:1251,1
DA:1252,1
DA:1253,1
DA:1254,1
DA:1255,1
DA:1256,1
DA:1258,1
DA:1259,1
DA:1260,1
DA:1261,1
DA:1262,1
DA:1264,1
DA:1266,1
DA:1267,1
DA:1268,1
DA:1269,1
DA:1270,1
DA:1271,1
DA:1274,1
DA:1275,1
DA:1276,1
DA:1277,1
DA:1279,1
DA:1280,1
DA:1281,1
DA:1282,1
DA:1284,1
DA:1285,1
DA:1286,1
DA:1287,1
DA:1288,1
DA:1289,1
DA:1290,1
DA:1291,1
DA:1292,1
DA:1293,1
DA:1294,1
DA:1295,1
DA:1296,1
DA:1297,1
DA:1298,1
DA:1299,1
DA:1300,1
DA:1301,1
DA:1302,1
DA:1303,1
DA:1304,1
DA:1305,1
DA:1306,1
DA:1308,1
DA:1311,1
DA:1312,1
DA:1313,1
DA:1314,1
DA:1316,1
DA:1317,1
DA:1321,1
DA:1322,1
DA:1325,1
DA:1326,1
DA:1329,1
DA:1330,1
DA:1331,1
DA:1332,1
DA:1333,1
DA:1336,1
DA:1337,1
DA:1338,1
DA:1339,1
DA:1340,1
DA:1343,1
DA:1344,1
DA:1345,1
DA:1347,1
DA:1348,1
DA:1349,1
DA:1350,1
DA:1353,1
DA:1356,1
DA:1357,1
DA:1358,1
DA:1359,1
DA:1360,1
DA:1361,1
DA:1362,1
DA:1364,1
DA:1365,1
DA:1366,1
DA:1367,1
DA:1368,1
DA:1369,1
DA:1371,1
DA:1372,1
DA:1373,1
DA:1374,1
DA:1375,1
DA:1376,1
DA:1378,1
DA:1379,1
DA:1380,1
DA:1381,1
DA:1382,1
DA:1385,1
DA:1386,1
DA:1387,1
DA:1388,1
DA:1389,1
DA:1390,1
DA:1391,1
DA:1393,1
DA:1395,1
DA:1397,1
DA:1398,1
DA:1399,1
DA:1400,1
DA:1401,1
DA:1405,1
DA:1408,1
DA:1409,1
DA:1411,1
DA:1412,1
DA:1415,1
DA:1416,1
DA:1417,1
DA:1418,1
DA:1419,1
DA:1420,1
DA:1421,1
DA:1422,1
DA:1423,1
DA:1425,1
DA:1429,1
DA:1430,1
DA:1434,1
DA:1435,1
DA:1436,1
DA:1441,1
DA:1442,1
DA:1443,1
DA:1444,1
DA:1448,1
DA:1450,1
DA:1451,1
DA:1452,1
DA:1453,1
DA:1458,1
DA:1459,1
DA:1460,1
DA:1461,1
DA:1465,1
DA:1468,1
DA:1469,1
DA:1471,1
DA:1472,1
DA:1475,1
DA:1476,1
DA:1477,1
DA:1478,1
DA:1479,1
DA:1480,1
DA:1481,1
DA:1482,1
DA:1483,1
DA:1485,1
DA:1489,1
DA:1490,1
DA:1494,1
DA:1496,1
DA:1497,1
DA:1498,1
DA:1499,1
DA:1503,1
DA:1504,1
DA:1508,1
DA:1509,1
DA:1510,1
DA:1511,1
DA:1515,1
DA:1516,1
DA:1521,1
DA:1522,1
DA:1523,1
DA:1527,1
DA:1528,1
DA:1532,1
DA:1533,1
DA:1534,1
DA:1535,1
DA:1540,1
DA:1541,1
DA:1542,1
DA:1546,1
DA:1547,1
DA:1548,1
DA:1549,1
DA:1553,1
DA:1554,1
DA:1558,1
DA:1561,1
DA:1562,1
DA:1564,1
DA:1565,1
DA:1566,1
DA:1567,1
DA:1568,1
DA:1569,1
DA:1570,1
DA:1571,1
DA:1572,1
DA:1574,1
DA:1575,1
DA:1577,1
DA:1578,1
DA:1580,1
DA:1581,1
DA:1582,1
BRF:0
BRH:0
LF:1163
LH:979
end_of_record
SF:/Users/rt/workspace/synod/src/cli/workflow.rs
FN:1014,_RNvMNtNtNtCs3oCotP8OZr6_5synod3cli8workflow5testsNtB2_13TestWorkspace14write_registry
FN:1003,_RNvMNtNtNtCs3oCotP8OZr6_5synod3cli8workflow5testsNtB2_13TestWorkspace3new
FN:1010,_RNvMNtNtNtCs3oCotP8OZr6_5synod3cli8workflow5testsNtB2_13TestWorkspace4path
FN:1026,_RNvNtNtNtCs3oCotP8OZr6_5synod3cli8workflow5tests10build_task
FN:1053,_RNvNtNtNtCs3oCotP8OZr6_5synod3cli8workflow5tests12build_record
FN:1039,_RNvNtNtNtCs3oCotP8OZr6_5synod3cli8workflow5tests15build_goal_plan
FN:1062,_RNvNtNtNtCs3oCotP8OZr6_5synod3cli8workflow5tests15sample_workflow
FN:1133,_RNvNtNtNtCs3oCotP8OZr6_5synod3cli8workflow5tests17governance_bundle
FN:1111,_RNvNtNtNtCs3oCotP8OZr6_5synod3cli8workflow5tests20clarification_bundle
FN:1101,_RNvNtNtNtCs3oCotP8OZr6_5synod3cli8workflow5tests20workflow_with_phases
FN:1148,_RNvNtNtNtCs3oCotP8OZr6_5synod3cli8workflow5tests21governed_stage_record
FN:1687,_RNvNtNtNtCs3oCotP8OZr6_5synod3cli8workflow5testss_47workflow_helpers_cover_remaining_fallback_paths
FN:1169,_RNvNtNtNtCs3oCotP8OZr6_5synod3cli8workflow5testss_57execute_list_reports_registry_states_and_workflow_surface
FN:1195,_RNvNtNtNtCs3oCotP8OZr6_5synod3cli8workflow5testss_58load_active_workflow_session_requires_named_workflow_state
FN:1632,_RNvNtNtNtCs3oCotP8OZr6_5synod3cli8workflow5testss_60workflow_advance_covers_terminal_run_and_final_summary_paths
FN:1292,_RNvNtNtNtCs3oCotP8OZr6_5synod3cli8workflow5testss_60workflow_reports_cover_runtime_registry_and_status_rendering
FN:1227,_RNvNtNtNtCs3oCotP8OZr6_5synod3cli8workflow5testss_62workflow_next_command_covers_paused_terminal_and_default_paths
FN:1516,_RNvNtNtNtCs3oCotP8OZr6_5synod3cli8workflow5testss_63workflow_advance_covers_clarify_review_and_govern_blocked_paths
FN:1805,_RNvNtNtNtCs3oCotP8OZr6_5synod3cli8workflow5testss_63workflow_progress_and_status_helpers_cover_updates_and_commands
FN:1440,_RNvNtNtNtCs3oCotP8OZr6_5synod3cli8workflow5testss_72workflow_state_helpers_cover_conditions_reviews_governance_and_terminals
FN:1345,_RNvNtNtNtCs3oCotP8OZr6_5synod3cli8workflow5testss_76workflow_execute_commands_cover_missing_definition_and_active_conflict_paths
FN:26,_RNvNtNtCs3oCotP8OZr6_5synod3cli8workflow11execute_run
FN:74,_RNvNtNtCs3oCotP8OZr6_5synod3cli8workflow12execute_list
FN:125,_RNvNtNtCs3oCotP8OZr6_5synod3cli8workflow14execute_resume
FN:89,_RNvNtNtCs3oCotP8OZr6_5synod3cli8workflow14execute_status
FN:935,_RNvNtNtCs3oCotP8OZr6_5synod3cli8workflow15capture_command
FN:150,_RNvNtNtCs3oCotP8OZr6_5synod3cli8workflow15execute_inspect
FN:931,_RNvNtNtCs3oCotP8OZr6_5synod3cli8workflow15terminal_reason
FN:203,_RNvNtNtCs3oCotP8OZr6_5synod3cli8workflow16advance_workflow
FN:793,_RNvNtNtCs3oCotP8OZr6_5synod3cli8workflow16condition_is_met
FN:727,_RNvNtNtCs3oCotP8OZr6_5synod3cli8workflow17resolve_workspace
FN:776,_RNvNtNtCs3oCotP8OZr6_5synod3cli8workflow17should_skip_phase
FN:705,_RNvNtNtCs3oCotP8OZr6_5synod3cli8workflow18initialize_session
FN:820,_RNvNtNtCs3oCotP8OZr6_5synod3cli8workflow18next_pending_phase
FN:917,_RNvNtNtCs3oCotP8OZr6_5synod3cli8workflow18terminal_lifecycle
FN:880,_RNvNtNtCs3oCotP8OZr6_5synod3cli8workflow19governance_state_in
FN:634,_RNvNtNtCs3oCotP8OZr6_5synod3cli8workflow20default_next_command
FN:911,_RNvNtNtCs3oCotP8OZr6_5synod3cli8workflow20push_completed_phase
FN:646,_RNvNtNtCs3oCotP8OZr6_5synod3cli8workflow20workflow_exit_status
FN:835,_RNvNtNtCs3oCotP8OZr6_5synod3cli8workflow21latest_review_outcome
FN:827,_RNvNtNtCs3oCotP8OZr6_5synod3cli8workflow21latest_review_trigger
FN:613,_RNvNtNtCs3oCotP8OZr6_5synod3cli8workflow21workflow_next_command
FN:675,_RNvNtNtCs3oCotP8OZr6_5synod3cli8workflow22blocked_runtime_report
FN:875,_RNvNtNtCs3oCotP8OZr6_5synod3cli8workflow22govern_phase_completed
FN:537,_RNvNtNtCs3oCotP8OZr6_5synod3cli8workflow22render_workflow_report
FN:843,_RNvNtNtCs3oCotP8OZr6_5synod3cli8workflow23latest_governance_state
FN:763,_RNvNtNtCs3oCotP8OZr6_5synod3cli8workflow23refresh_routing_summary
FN:939,_RNvNtNtCs3oCotP8OZr6_5synod3cli8workflow23workflow_resume_command
FN:943,_RNvNtNtCs3oCotP8OZr6_5synod3cli8workflow23workflow_status_command
FN:753,_RNvNtNtCs3oCotP8OZr6_5synod3cli8workflow24load_workflow_definition
FN:884,_RNvNtNtCs3oCotP8OZr6_5synod3cli8workflow24update_workflow_progress
FN:947,_RNvNtNtCs3oCotP8OZr6_5synod3cli8workflow24workflow_inspect_command
FN:667,_RNvNtNtCs3oCotP8OZr6_5synod3cli8workflow25blocked_definition_report
FN:851,_RNvNtNtCs3oCotP8OZr6_5synod3cli8workflow25workflow_terminal_failure
FN:739,_RNvNtNtCs3oCotP8OZr6_5synod3cli8workflow28load_active_workflow_session
FN:847,_RNvNtNtCs3oCotP8OZr6_5synod3cli8workflow32latest_governance_blocked_reason
FN:551,_RNvNtNtCs3oCotP8OZr6_5synod3cli8workflow32render_workflow_discovery_report
FN:866,_RNvNtNtCs3oCotP8OZr6_5synod3cli8workflow32should_resume_governed_execution
FN:585,_RNvNtNtCs3oCotP8OZr6_5synod3cli8workflow37render_workflow_registry_error_report
FN:477,_RNCNCNvNtNtCs3oCotP8OZr6_5synod3cli8workflow16advance_workflows6_00B9_
FN:480,_RNCNCNvNtNtCs3oCotP8OZr6_5synod3cli8workflow16advance_workflows6_0s_0B9_
FN:860,_RNCNCNvNtNtCs3oCotP8OZr6_5synod3cli8workflow25workflow_terminal_failure00B9_
FN:52,_RNCNvNtNtCs3oCotP8OZr6_5synod3cli8workflow11execute_run0B7_
FN:932,_RNCNvNtNtCs3oCotP8OZr6_5synod3cli8workflow15terminal_reason0B7_
FN:211,_RNCNvNtNtCs3oCotP8OZr6_5synod3cli8workflow16advance_workflow0B7_
FN:270,_RNCNvNtNtCs3oCotP8OZr6_5synod3cli8workflow16advance_workflows0_0B7_
FN:302,_RNCNvNtNtCs3oCotP8OZr6_5synod3cli8workflow16advance_workflows1_0B7_
FN:303,_RNCNvNtNtCs3oCotP8OZr6_5synod3cli8workflow16advance_workflows2_0B7_
FN:304,_RNCNvNtNtCs3oCotP8OZr6_5synod3cli8workflow16advance_workflows3_0B7_
FN:347,_RNCNvNtNtCs3oCotP8OZr6_5synod3cli8workflow16advance_workflows4_0B7_
FN:413,_RNCNvNtNtCs3oCotP8OZr6_5synod3cli8workflow16advance_workflows5_0B7_
FN:472,_RNCNvNtNtCs3oCotP8OZr6_5synod3cli8workflow16advance_workflows6_0B7_
FN:238,_RNCNvNtNtCs3oCotP8OZr6_5synod3cli8workflow16advance_workflows_0B7_
FN:798,_RNCNvNtNtCs3oCotP8OZr6_5synod3cli8workflow16condition_is_met0B7_
FN:809,_RNCNvNtNtCs3oCotP8OZr6_5synod3cli8workflow16condition_is_mets0_0B7_
FN:814,_RNCNvNtNtCs3oCotP8OZr6_5synod3cli8workflow16condition_is_mets1_0B7_
FN:803,_RNCNvNtNtCs3oCotP8OZr6_5synod3cli8workflow16condition_is_mets_0B7_
FN:731,_RNCNvNtNtCs3oCotP8OZr6_5synod3cli8workflow17resolve_workspace0B7_
FN:736,_RNCNvNtNtCs3oCotP8OZr6_5synod3cli8workflow17resolve_workspaces_0B7_
FN:784,_RNCNvNtNtCs3oCotP8OZr6_5synod3cli8workflow17should_skip_phase0B7_
FN:824,_RNCNvNtNtCs3oCotP8OZr6_5synod3cli8workflow18next_pending_phase0B7_
FN:881,_RNCNvNtNtCs3oCotP8OZr6_5synod3cli8workflow19governance_state_in0B7_
FN:839,_RNCNvNtNtCs3oCotP8OZr6_5synod3cli8workflow21latest_review_outcome0B7_
FN:831,_RNCNvNtNtCs3oCotP8OZr6_5synod3cli8workflow21latest_review_trigger0B7_
FN:626,_RNCNvNtNtCs3oCotP8OZr6_5synod3cli8workflow21workflow_next_command0B7_
FN:631,_RNCNvNtNtCs3oCotP8OZr6_5synod3cli8workflow21workflow_next_commands_0B7_
FN:758,_RNCNvNtNtCs3oCotP8OZr6_5synod3cli8workflow24load_workflow_definition0B7_
FN:859,_RNCNvNtNtCs3oCotP8OZr6_5synod3cli8workflow25workflow_terminal_failure0B7_
FN:565,_RNCNvNtNtCs3oCotP8OZr6_5synod3cli8workflow32render_workflow_discovery_report0B7_
FN:1106,_RNCNvNtNtNtCs3oCotP8OZr6_5synod3cli8workflow5tests20workflow_with_phases0B9_
FN:1829,_RNCNvNtNtNtCs3oCotP8OZr6_5synod3cli8workflow5testss_63workflow_progress_and_status_helpers_cover_updates_and_commands0B9_
FN:1830,_RNCNvNtNtNtCs3oCotP8OZr6_5synod3cli8workflow5testss_63workflow_progress_and_status_helpers_cover_updates_and_commandss_0B9_
FN:1021,_RNvXs_NtNtNtCs3oCotP8OZr6_5synod3cli8workflow5testsNtB4_13TestWorkspaceNtNtNtCsl8K0bEFm1U0_4core3ops4drop4Drop4drop
FNDA:4,_RNvMNtNtNtCs3oCotP8OZr6_5synod3cli8workflow5testsNtB2_13TestWorkspace14write_registry
FNDA:12,_RNvMNtNtNtCs3oCotP8OZr6_5synod3cli8workflow5testsNtB2_13TestWorkspace3new
FNDA:69,_RNvMNtNtNtCs3oCotP8OZr6_5synod3cli8workflow5testsNtB2_13TestWorkspace4path
FNDA:12,_RNvNtNtNtCs3oCotP8OZr6_5synod3cli8workflow5tests10build_task
FNDA:12,_RNvNtNtNtCs3oCotP8OZr6_5synod3cli8workflow5tests12build_record
FNDA:14,_RNvNtNtNtCs3oCotP8OZr6_5synod3cli8workflow5tests15build_goal_plan
FNDA:11,_RNvNtNtNtCs3oCotP8OZr6_5synod3cli8workflow5tests15sample_workflow
FNDA:1,_RNvNtNtNtCs3oCotP8OZr6_5synod3cli8workflow5tests17governance_bundle
FNDA:4,_RNvNtNtNtCs3oCotP8OZr6_5synod3cli8workflow5tests20clarification_bundle
FNDA:8,_RNvNtNtNtCs3oCotP8OZr6_5synod3cli8workflow5tests20workflow_with_phases
FNDA:7,_RNvNtNtNtCs3oCotP8OZr6_5synod3cli8workflow5tests21governed_stage_record
FNDA:1,_RNvNtNtNtCs3oCotP8OZr6_5synod3cli8workflow5testss_47workflow_helpers_cover_remaining_fallback_paths
FNDA:1,_RNvNtNtNtCs3oCotP8OZr6_5synod3cli8workflow5testss_57execute_list_reports_registry_states_and_workflow_surface
FNDA:1,_RNvNtNtNtCs3oCotP8OZr6_5synod3cli8workflow5testss_58load_active_workflow_session_requires_named_workflow_state
FNDA:1,_RNvNtNtNtCs3oCotP8OZr6_5synod3cli8workflow5testss_60workflow_advance_covers_terminal_run_and_final_summary_paths
FNDA:1,_RNvNtNtNtCs3oCotP8OZr6_5synod3cli8workflow5testss_60workflow_reports_cover_runtime_registry_and_status_rendering
FNDA:1,_RNvNtNtNtCs3oCotP8OZr6_5synod3cli8workflow5testss_62workflow_next_command_covers_paused_terminal_and_default_paths
FNDA:1,_RNvNtNtNtCs3oCotP8OZr6_5synod3cli8workflow5testss_63workflow_advance_covers_clarify_review_and_govern_blocked_paths
FNDA:1,_RNvNtNtNtCs3oCotP8OZr6_5synod3cli8workflow5testss_63workflow_progress_and_status_helpers_cover_updates_and_commands
FNDA:1,_RNvNtNtNtCs3oCotP8OZr6_5synod3cli8workflow5testss_72workflow_state_helpers_cover_conditions_reviews_governance_and_terminals
FNDA:1,_RNvNtNtNtCs3oCotP8OZr6_5synod3cli8workflow5testss_76workflow_execute_commands_cover_missing_definition_and_active_conflict_paths
FNDA:2,_RNvNtNtCs3oCotP8OZr6_5synod3cli8workflow11execute_run
FNDA:2,_RNvNtNtCs3oCotP8OZr6_5synod3cli8workflow12execute_list
FNDA:1,_RNvNtNtCs3oCotP8OZr6_5synod3cli8workflow14execute_resume
FNDA:1,_RNvNtNtCs3oCotP8OZr6_5synod3cli8workflow14execute_status
FNDA:7,_RNvNtNtCs3oCotP8OZr6_5synod3cli8workflow15capture_command
FNDA:2,_RNvNtNtCs3oCotP8OZr6_5synod3cli8workflow15execute_inspect
FNDA:8,_RNvNtNtCs3oCotP8OZr6_5synod3cli8workflow15terminal_reason
FNDA:12,_RNvNtNtCs3oCotP8OZr6_5synod3cli8workflow16advance_workflow
FNDA:11,_RNvNtNtCs3oCotP8OZr6_5synod3cli8workflow16condition_is_met
FNDA:10,_RNvNtNtCs3oCotP8OZr6_5synod3cli8workflow17resolve_workspace
FNDA:15,_RNvNtNtCs3oCotP8OZr6_5synod3cli8workflow17should_skip_phase
FNDA:23,_RNvNtNtCs3oCotP8OZr6_5synod3cli8workflow18initialize_session
FNDA:3,_RNvNtNtCs3oCotP8OZr6_5synod3cli8workflow18next_pending_phase
FNDA:8,_RNvNtNtCs3oCotP8OZr6_5synod3cli8workflow18terminal_lifecycle
FNDA:8,_RNvNtNtCs3oCotP8OZr6_5synod3cli8workflow19governance_state_in
FNDA:4,_RNvNtNtCs3oCotP8OZr6_5synod3cli8workflow20default_next_command
FNDA:7,_RNvNtNtCs3oCotP8OZr6_5synod3cli8workflow20push_completed_phase
FNDA:6,_RNvNtNtCs3oCotP8OZr6_5synod3cli8workflow20workflow_exit_status
FNDA:4,_RNvNtNtCs3oCotP8OZr6_5synod3cli8workflow21latest_review_outcome
FNDA:5,_RNvNtNtCs3oCotP8OZr6_5synod3cli8workflow21latest_review_trigger
FNDA:7,_RNvNtNtCs3oCotP8OZr6_5synod3cli8workflow21workflow_next_command
FNDA:6,_RNvNtNtCs3oCotP8OZr6_5synod3cli8workflow22blocked_runtime_report
FNDA:5,_RNvNtNtCs3oCotP8OZr6_5synod3cli8workflow22govern_phase_completed
FNDA:2,_RNvNtNtCs3oCotP8OZr6_5synod3cli8workflow22render_workflow_report
FNDA:17,_RNvNtNtCs3oCotP8OZr6_5synod3cli8workflow23latest_governance_state
FNDA:3,_RNvNtNtCs3oCotP8OZr6_5synod3cli8workflow23refresh_routing_summary
FNDA:14,_RNvNtNtCs3oCotP8OZr6_5synod3cli8workflow23workflow_resume_command
FNDA:3,_RNvNtNtCs3oCotP8OZr6_5synod3cli8workflow23workflow_status_command
FNDA:5,_RNvNtNtCs3oCotP8OZr6_5synod3cli8workflow24load_workflow_definition
FNDA:26,_RNvNtNtCs3oCotP8OZr6_5synod3cli8workflow24update_workflow_progress
FNDA:19,_RNvNtNtCs3oCotP8OZr6_5synod3cli8workflow24workflow_inspect_command
FNDA:4,_RNvNtNtCs3oCotP8OZr6_5synod3cli8workflow25blocked_definition_report
FNDA:9,_RNvNtNtCs3oCotP8OZr6_5synod3cli8workflow25workflow_terminal_failure
FNDA:7,_RNvNtNtCs3oCotP8OZr6_5synod3cli8workflow28load_active_workflow_session
FNDA:5,_RNvNtNtCs3oCotP8OZr6_5synod3cli8workflow32latest_governance_blocked_reason
FNDA:1,_RNvNtNtCs3oCotP8OZr6_5synod3cli8workflow32render_workflow_discovery_report
FNDA:6,_RNvNtNtCs3oCotP8OZr6_5synod3cli8workflow32should_resume_governed_execution
FNDA:3,_RNvNtNtCs3oCotP8OZr6_5synod3cli8workflow37render_workflow_registry_error_report
FNDA:1,_RNCNCNvNtNtCs3oCotP8OZr6_5synod3cli8workflow16advance_workflows6_00B9_
FNDA:1,_RNCNCNvNtNtCs3oCotP8OZr6_5synod3cli8workflow16advance_workflows6_0s_0B9_
FNDA:1,_RNCNCNvNtNtCs3oCotP8OZr6_5synod3cli8workflow25workflow_terminal_failure00B9_
FNDA:0,_RNCNvNtNtCs3oCotP8OZr6_5synod3cli8workflow11execute_run0B7_
FNDA:5,_RNCNvNtNtCs3oCotP8OZr6_5synod3cli8workflow15terminal_reason0B7_
FNDA:0,_RNCNvNtNtCs3oCotP8OZr6_5synod3cli8workflow16advance_workflow0B7_
FNDA:1,_RNCNvNtNtCs3oCotP8OZr6_5synod3cli8workflow16advance_workflows0_0B7_
FNDA:0,_RNCNvNtNtCs3oCotP8OZr6_5synod3cli8workflow16advance_workflows1_0B7_
FNDA:0,_RNCNvNtNtCs3oCotP8OZr6_5synod3cli8workflow16advance_workflows2_0B7_
FNDA:0,_RNCNvNtNtCs3oCotP8OZr6_5synod3cli8workflow16advance_workflows3_0B7_
FNDA:2,_RNCNvNtNtCs3oCotP8OZr6_5synod3cli8workflow16advance_workflows4_0B7_
FNDA:2,_RNCNvNtNtCs3oCotP8OZr6_5synod3cli8workflow16advance_workflows5_0B7_
FNDA:4,_RNCNvNtNtCs3oCotP8OZr6_5synod3cli8workflow16advance_workflows6_0B7_
FNDA:0,_RNCNvNtNtCs3oCotP8OZr6_5synod3cli8workflow16advance_workflows_0B7_
FNDA:3,_RNCNvNtNtCs3oCotP8OZr6_5synod3cli8workflow16condition_is_met0B7_
FNDA:5,_RNCNvNtNtCs3oCotP8OZr6_5synod3cli8workflow16condition_is_mets0_0B7_
FNDA:1,_RNCNvNtNtCs3oCotP8OZr6_5synod3cli8workflow16condition_is_mets1_0B7_
FNDA:3,_RNCNvNtNtCs3oCotP8OZr6_5synod3cli8workflow16condition_is_mets_0B7_
FNDA:0,_RNCNvNtNtCs3oCotP8OZr6_5synod3cli8workflow17resolve_workspace0B7_
FNDA:1,_RNCNvNtNtCs3oCotP8OZr6_5synod3cli8workflow17resolve_workspaces_0B7_
FNDA:11,_RNCNvNtNtCs3oCotP8OZr6_5synod3cli8workflow17should_skip_phase0B7_
FNDA:5,_RNCNvNtNtCs3oCotP8OZr6_5synod3cli8workflow18next_pending_phase0B7_
FNDA:8,_RNCNvNtNtCs3oCotP8OZr6_5synod3cli8workflow19governance_state_in0B7_
FNDA:4,_RNCNvNtNtCs3oCotP8OZr6_5synod3cli8workflow21latest_review_outcome0B7_
FNDA:5,_RNCNvNtNtCs3oCotP8OZr6_5synod3cli8workflow21latest_review_trigger0B7_
FNDA:1,_RNCNvNtNtCs3oCotP8OZr6_5synod3cli8workflow21workflow_next_command0B7_
FNDA:1,_RNCNvNtNtCs3oCotP8OZr6_5synod3cli8workflow21workflow_next_commands_0B7_
FNDA:1,_RNCNvNtNtCs3oCotP8OZr6_5synod3cli8workflow24load_workflow_definition0B7_
FNDA:3,_RNCNvNtNtCs3oCotP8OZr6_5synod3cli8workflow25workflow_terminal_failure0B7_
FNDA:4,_RNCNvNtNtCs3oCotP8OZr6_5synod3cli8workflow32render_workflow_discovery_report0B7_
FNDA:24,_RNCNvNtNtNtCs3oCotP8OZr6_5synod3cli8workflow5tests20workflow_with_phases0B9_
FNDA:1,_RNCNvNtNtNtCs3oCotP8OZr6_5synod3cli8workflow5testss_63workflow_progress_and_status_helpers_cover_updates_and_commands0B9_
FNDA:1,_RNCNvNtNtNtCs3oCotP8OZr6_5synod3cli8workflow5testss_63workflow_progress_and_status_helpers_cover_updates_and_commandss_0B9_
FNDA:12,_RNvXs_NtNtNtCs3oCotP8OZr6_5synod3cli8workflow5testsNtB4_13TestWorkspaceNtNtNtCsl8K0bEFm1U0_4core3ops4drop4Drop4drop
FNF:93
FNH:86
DA:26,2
DA:27,2
DA:28,2
DA:29,2
DA:30,2
DA:31,2
DA:32,2
DA:33,2
DA:34,2
DA:35,0
DA:36,0
DA:40,2
DA:41,1
DA:42,1
DA:43,1
DA:44,1
DA:45,1
DA:48,1
DA:49,1
DA:50,1
DA:51,1
DA:52,1
DA:54,1
DA:55,1
DA:57,1
DA:58,1
DA:59,1
DA:60,1
DA:61,1
DA:62,1
DA:63,1
DA:64,1
DA:65,1
DA:66,0
DA:68,0
DA:69,0
DA:71,0
DA:72,2
DA:74,2
DA:75,2
DA:76,2
DA:77,2
DA:78,2
DA:80,2
DA:81,1
DA:82,1
DA:83,1
DA:84,1
DA:85,1
DA:87,2
DA:89,1
DA:90,1
DA:91,1
DA:92,1
DA:93,1
DA:94,1
DA:95,1
DA:96,1
DA:97,1
DA:98,0
DA:99,1
DA:100,1
DA:103,0
DA:104,0
DA:105,0
DA:106,0
DA:107,0
DA:108,0
DA:109,0
DA:111,0
DA:112,0
DA:113,0
DA:114,0
DA:115,0
DA:120,0
DA:123,1
DA:125,1
DA:126,1
DA:127,1
DA:128,1
DA:129,1
DA:130,1
DA:131,1
DA:132,1
DA:133,1
DA:134,0
DA:135,1
DA:136,1
DA:140,0
DA:141,0
DA:142,0
DA:144,0
DA:145,0
DA:147,0
DA:148,1
DA:150,2
DA:151,2
DA:152,2
DA:153,2
DA:154,2
DA:155,2
DA:156,2
DA:157,2
DA:158,2
DA:159,1
DA:160,1
DA:161,1
DA:164,1
DA:165,1
DA:166,1
DA:167,1
DA:168,1
DA:171,1
DA:172,1
DA:173,0
DA:175,0
DA:176,0
DA:178,0
DA:179,0
DA:180,0
DA:181,0
DA:182,0
DA:183,0
DA:184,0
DA:185,2
DA:203,12
DA:204,12
DA:205,12
DA:206,12
DA:207,12
DA:208,12
DA:209,12
DA:210,12
DA:211,12
DA:212,12
DA:214,12
DA:215,12
DA:216,12
DA:217,12
DA:218,12
DA:219,12
DA:220,12
DA:221,12
DA:224,13
DA:225,13
DA:226,0
DA:227,13
DA:229,13
DA:230,0
DA:231,0
DA:232,13
DA:234,13
DA:236,1
DA:237,1
DA:238,0
DA:240,0
DA:241,0
DA:242,0
DA:243,1
DA:245,1
DA:246,0
DA:247,0
DA:248,0
DA:249,0
DA:250,0
DA:251,0
DA:252,0
DA:253,0
DA:254,0
DA:255,0
DA:256,0
DA:258,0
DA:259,0
DA:260,0
DA:261,0
DA:262,1
DA:264,1
DA:267,2
DA:268,2
DA:269,2
DA:270,2
DA:271,2
DA:272,2
DA:273,1
DA:274,1
DA:275,1
DA:276,1
DA:277,1
DA:278,1
DA:279,1
DA:280,1
DA:281,1
DA:282,1
DA:283,1
DA:285,1
DA:286,1
DA:287,1
DA:288,1
DA:289,1
DA:291,1
DA:294,1
DA:295,0
DA:296,0
DA:297,0
DA:299,0
DA:300,0
DA:301,0
DA:302,0
DA:303,0
DA:304,0
DA:306,0
DA:307,0
DA:308,0
DA:309,0
DA:310,1
DA:312,1
DA:315,2
DA:316,0
DA:317,0
DA:318,0
DA:319,0
DA:320,0
DA:321,0
DA:322,0
DA:323,0
DA:325,0
DA:326,0
DA:327,0
DA:328,2
DA:330,2
DA:332,2
DA:333,2
DA:334,0
DA:335,2
DA:337,2
DA:338,0
DA:340,0
DA:341,2
DA:343,2
DA:344,2
DA:345,2
DA:346,2
DA:347,2
DA:348,2
DA:349,2
DA:350,2
DA:351,2
DA:353,0
DA:355,2
DA:358,2
DA:359,2
DA:360,2
DA:361,2
DA:362,2
DA:363,2
DA:364,2
DA:365,2
DA:368,2
DA:369,1
DA:373,1
DA:377,0
DA:382,0
DA:384,0
DA:385,0
DA:386,0
DA:387,0
DA:388,0
DA:389,0
DA:390,0
DA:391,0
DA:394,0
DA:395,0
DA:396,0
DA:397,0
DA:400,3
DA:401,0
DA:402,0
DA:403,3
DA:405,3
DA:406,3
DA:407,1
DA:408,2
DA:409,1
DA:411,1
DA:413,3
DA:414,2
DA:415,1
DA:417,1
DA:418,1
DA:420,2
DA:421,3
DA:422,1
DA:424,2
DA:426,3
DA:427,3
DA:428,3
DA:429,3
DA:430,3
DA:431,3
DA:432,3
DA:433,3
DA:435,3
DA:436,3
DA:437,3
DA:438,3
DA:441,4
DA:442,0
DA:443,0
DA:444,0
DA:445,0
DA:446,0
DA:447,0
DA:448,0
DA:449,0
DA:451,0
DA:452,0
DA:453,0
DA:454,4
DA:456,4
DA:457,0
DA:458,0
DA:459,4
DA:461,4
DA:462,4
DA:463,0
DA:464,0
DA:465,4
DA:466,4
DA:468,0
DA:470,4
DA:472,4
DA:473,4
DA:474,4
DA:475,0
DA:477,4
DA:478,1
DA:479,1
DA:480,2
DA:481,1
DA:482,1
DA:483,0
DA:484,0
DA:486,4
DA:487,4
DA:488,0
DA:490,4
DA:492,4
DA:493,4
DA:494,4
DA:495,4
DA:496,4
DA:497,4
DA:498,4
DA:499,4
DA:501,4
DA:502,4
DA:503,4
DA:504,4
DA:507,0
DA:508,0
DA:509,0
DA:510,0
DA:511,0
DA:512,0
DA:513,0
DA:514,0
DA:516,0
DA:517,0
DA:518,0
DA:519,0
DA:524,2
DA:525,2
DA:526,2
DA:527,2
DA:528,2
DA:529,2
DA:530,2
DA:531,2
DA:534,2
DA:535,12
DA:537,2
DA:538,2
DA:539,2
DA:540,2
DA:541,2
DA:542,2
DA:543,2
DA:545,2
DA:546,2
DA:547,2
DA:548,2
DA:549,2
DA:551,1
DA:552,1
DA:553,1
DA:554,1
DA:555,1
DA:556,1
DA:557,1
DA:560,1
DA:561,1
DA:562,1
DA:563,1
DA:565,4
DA:567,1
DA:568,1
DA:569,1
DA:570,1
DA:573,1
DA:575,1
DA:576,1
DA:579,1
DA:580,1
DA:581,1
DA:582,1
DA:583,1
DA:585,3
DA:586,3
DA:587,3
DA:588,3
DA:589,3
DA:590,2
DA:591,2
DA:593,2
DA:595,1
DA:598,3
DA:599,3
DA:600,3
DA:601,3
DA:602,3
DA:603,3
DA:604,3
DA:605,3
DA:606,3
DA:607,3
DA:608,3
DA:609,3
DA:610,3
DA:611,3
DA:613,7
DA:614,7
DA:615,7
DA:617,2
DA:618,1
DA:619,1
DA:621,1
DA:622,5
DA:624,5
DA:625,5
DA:626,1
DA:628,1
DA:629,4
DA:631,4
DA:632,7
DA:634,4
DA:635,4
DA:636,1
DA:637,3
DA:639,3
DA:640,2
DA:641,1
DA:643,1
DA:644,4
DA:646,6
DA:647,6
DA:648,5
DA:650,1
DA:655,4
DA:657,1
DA:659,5
DA:661,1
DA:663,4
DA:665,6
DA:667,4
DA:668,4
DA:669,4
DA:670,4
DA:671,4
DA:672,4
DA:673,4
DA:675,6
DA:676,6
DA:677,6
DA:678,6
DA:679,6
DA:680,6
DA:681,6
DA:682,6
DA:683,6
DA:684,6
DA:685,6
DA:687,6
DA:688,6
DA:689,6
DA:690,6
DA:691,6
DA:692,6
DA:693,6
DA:694,6
DA:695,6
DA:696,6
DA:697,6
DA:698,6
DA:699,6
DA:700,6
DA:701,6
DA:702,6
DA:703,6
DA:705,23
DA:706,23
DA:707,23
DA:708,23
DA:709,23
DA:710,23
DA:711,23
DA:712,23
DA:713,23
DA:714,23
DA:715,23
DA:716,23
DA:717,23
DA:718,23
DA:719,23
DA:720,23
DA:721,23
DA:722,23
DA:723,23
DA:724,23
DA:725,23
DA:727,10
DA:728,10
DA:729,9
DA:730,1
DA:731,1
DA:734,10
DA:735,10
DA:736,10
DA:737,10
DA:739,7
DA:740,7
DA:741,7
DA:742,7
DA:743,1
DA:746,6
DA:747,1
DA:748,5
DA:750,5
DA:751,7
DA:753,5
DA:754,5
DA:755,5
DA:756,5
DA:757,5
DA:758,2
DA:759,1
DA:760,1
DA:761,5
DA:763,3
DA:764,3
DA:765,3
DA:766,3
DA:767,2
DA:768,2
DA:769,3
DA:770,1
DA:771,1
DA:772,1
DA:773,2
DA:774,3
DA:776,15
DA:777,15
DA:778,15
DA:779,15
DA:780,15
DA:781,15
DA:782,15
DA:783,15
DA:784,15
DA:785,15
DA:787,7
DA:790,8
DA:791,15
DA:793,11
DA:794,11
DA:795,3
DA:796,3
DA:797,3
DA:798,3
DA:799,3
DA:800,3
DA:801,3
DA:802,3
DA:803,3
DA:804,3
DA:806,5
DA:807,5
DA:808,5
DA:809,5
DA:810,5
DA:811,1
DA:812,1
DA:813,1
DA:814,1
DA:815,1
DA:818,11
DA:820,3
DA:821,3
DA:822,3
DA:823,3
DA:824,5
DA:825,3
DA:827,5
DA:828,5
DA:829,5
DA:830,5
DA:831,5
DA:832,5
DA:833,5
DA:835,4
DA:836,4
DA:837,4
DA:838,4
DA:839,4
DA:840,4
DA:841,4
DA:843,17
DA:844,17
DA:845,17
DA:847,5
DA:848,5
DA:849,5
DA:851,9
DA:852,6
DA:853,9
DA:859,9
DA:860,3
DA:861,1
DA:862,1
DA:863,3
DA:864,9
DA:866,6
DA:867,6
DA:868,6
DA:869,6
DA:870,6
DA:871,6
DA:873,6
DA:875,5
DA:876,5
DA:877,1
DA:878,5
DA:880,8
DA:881,8
DA:882,8
DA:884,26
DA:885,26
DA:886,26
DA:887,26
DA:888,26
DA:889,26
DA:890,26
DA:891,26
DA:892,26
DA:893,26
DA:894,26
DA:895,26
DA:896,26
DA:897,26
DA:898,26
DA:899,26
DA:900,26
DA:901,26
DA:902,26
DA:903,26
DA:905,26
DA:906,26
DA:907,22
DA:908,22
DA:909,26
DA:911,7
DA:912,7
DA:913,6
DA:914,6
DA:915,7
DA:917,8
DA:918,8
DA:919,2
DA:923,3
DA:927,3
DA:929,8
DA:931,8
DA:932,8
DA:933,8
DA:935,7
DA:936,7
DA:937,7
DA:939,14
DA:940,14
DA:941,14
DA:943,3
DA:944,3
DA:945,3
DA:947,19
DA:948,19
DA:949,19
DA:1003,12
DA:1004,12
DA:1005,12
DA:1006,12
DA:1007,12
DA:1008,12
DA:1010,69
DA:1011,69
DA:1012,69
DA:1014,4
DA:1015,4
DA:1016,4
DA:1017,4
DA:1021,12
DA:1022,12
DA:1023,12
DA:1026,12
DA:1027,12
DA:1028,12
DA:1029,12
DA:1030,12
DA:1031,12
DA:1032,12
DA:1033,12
DA:1034,12
DA:1035,12
DA:1036,12
DA:1037,12
DA:1039,14
DA:1040,14
DA:1042,14
DA:1043,14
DA:1044,14
DA:1045,14
DA:1046,14
DA:1047,14
DA:1048,14
DA:1050,14
DA:1051,14
DA:1053,12
DA:1054,12
DA:1055,12
DA:1056,12
DA:1057,12
DA:1058,12
DA:1059,12
DA:1060,12
DA:1062,11
DA:1063,11
DA:1064,11
DA:1065,11
DA:1066,11
DA:1067,11
DA:1068,11
DA:1069,11
DA:1070,11
DA:1071,11
DA:1072,11
DA:1073,11
DA:1074,11
DA:1075,11
DA:1076,11
DA:1077,11
DA:1078,11
DA:1079,11
DA:1080,11
DA:1081,11
DA:1082,11
DA:1083,11
DA:1084,11
DA:1085,11
DA:1086,11
DA:1087,11
DA:1088,11
DA:1089,11
DA:1090,11
DA:1091,11
DA:1092,11
DA:1093,11
DA:1094,11
DA:1095,11
DA:1096,11
DA:1097,11
DA:1098,11
DA:1099,11
DA:1101,8
DA:1102,8
DA:1103,8
DA:1104,8
DA:1105,8
DA:1106,24
DA:1107,8
DA:1108,8
DA:1109,8
DA:1111,4
DA:1112,4
DA:1113,4
DA:1114,4
DA:1115,4
DA:1116,4
DA:1117,4
DA:1118,4
DA:1119,4
DA:1120,4
DA:1121,4
DA:1122,4
DA:1123,4
DA:1124,4
DA:1125,4
DA:1126,4
DA:1127,4
DA:1128,4
DA:1129,4
DA:1130,4
DA:1131,4
DA:1133,1
DA:1134,1
DA:1135,1
DA:1136,1
DA:1137,1
DA:1138,1
DA:1139,1
DA:1140,1
DA:1141,1
DA:1142,1
DA:1143,1
DA:1144,1
DA:1145,1
DA:1146,1
DA:1148,7
DA:1149,7
DA:1150,7
DA:1151,7
DA:1152,7
DA:1153,7
DA:1154,7
DA:1155,7
DA:1156,7
DA:1157,7
DA:1158,7
DA:1159,7
DA:1160,7
DA:1161,7
DA:1162,7
DA:1163,7
DA:1164,7
DA:1165,7
DA:1166,7
DA:1169,1
DA:1170,1
DA:1172,1
DA:1173,1
DA:1174,1
DA:1175,1
DA:1177,1
DA:1178,1
DA:1179,1
DA:1180,1
DA:1181,1
DA:1182,1
DA:1183,1
DA:1184,1
DA:1187,1
DA:1188,1
DA:1189,1
DA:1190,1
DA:1191,1
DA:1192,1
DA:1195,1
DA:1196,1
DA:1197,1
DA:1199,1
DA:1200,1
DA:1204,1
DA:1205,1
DA:1206,1
DA:1207,1
DA:1211,1
DA:1212,1
DA:1213,1
DA:1214,1
DA:1215,1
DA:1216,1
DA:1217,1
DA:1218,1
DA:1219,1
DA:1220,1
DA:1222,1
DA:1223,1
DA:1224,1
DA:1227,1
DA:1228,1
DA:1229,1
DA:1230,1
DA:1231,1
DA:1232,1
DA:1233,1
DA:1234,1
DA:1235,1
DA:1236,1
DA:1237,1
DA:1238,1
DA:1240,1
DA:1241,1
DA:1242,1
DA:1245,1
DA:1246,1
DA:1247,1
DA:1248,1
DA:1251,1
DA:1252,1
DA:1253,1
DA:1254,1
DA:1255,1
DA:1258,1
DA:1259,1
DA:1260,1
DA:1261,1
DA:1265,1
DA:1266,1
DA:1267,1
DA:1268,1
DA:1269,1
DA:1272,1
DA:1273,1
DA:1274,1
DA:1275,1
DA:1276,1
DA:1277,1
DA:1278,1
DA:1279,1
DA:1280,1
DA:1281,1
DA:1282,1
DA:1283,1
DA:1284,1
DA:1287,1
DA:1288,1
DA:1289,1
DA:1292,1
DA:1293,1
DA:1294,1
DA:1295,1
DA:1296,1
DA:1297,1
DA:1298,1
DA:1299,1
DA:1300,1
DA:1301,1
DA:1302,1
DA:1303,1
DA:1306,1
DA:1307,1
DA:1308,1
DA:1309,1
DA:1311,1
DA:1312,1
DA:1313,1
DA:1315,1
DA:1316,1
DA:1317,1
DA:1318,1
DA:1319,1
DA:1321,1
DA:1322,1
DA:1323,1
DA:1324,1
DA:1325,1
DA:1326,1
DA:1329,1
DA:1330,1
DA:1331,1
DA:1332,1
DA:1333,1
DA:1334,1
DA:1335,1
DA:1337,1
DA:1338,1
DA:1339,1
DA:1341,1
DA:1342,1
DA:1345,1
DA:1346,1
DA:1347,1
DA:1348,1
DA:1349,1
DA:1350,1
DA:1351,1
DA:1352,1
DA:1353,1
DA:1356,1
DA:1357,1
DA:1358,1
DA:1359,1
DA:1360,1
DA:1362,1
DA:1363,1
DA:1364,1
DA:1365,1
DA:1366,1
DA:1367,1
DA:1368,1
DA:1369,1
DA:1370,1
DA:1371,1
DA:1372,1
DA:1373,1
DA:1375,1
DA:1376,1
DA:1377,1
DA:1378,1
DA:1379,1
DA:1381,1
DA:1382,1
DA:1383,1
DA:1384,1
DA:1385,1
DA:1386,1
DA:1387,1
DA:1388,1
DA:1389,1
DA:1390,1
DA:1391,1
DA:1392,1
DA:1393,1
DA:1395,1
DA:1396,1
DA:1397,1
DA:1398,1
DA:1400,1
DA:1401,1
DA:1402,1
DA:1403,1
DA:1405,1
DA:1406,1
DA:1407,1
DA:1408,1
DA:1410,1
DA:1411,1
DA:1412,1
DA:1413,1
DA:1414,1
DA:1415,1
DA:1416,1
DA:1417,1
DA:1419,1
DA:1420,1
DA:1421,1
DA:1422,1
DA:1423,1
DA:1424,1
DA:1425,1
DA:1426,1
DA:1427,1
DA:1428,1
DA:1429,1
DA:1430,1
DA:1432,1
DA:1433,1
DA:1434,1
DA:1435,1
DA:1436,1
DA:1437,1
DA:1440,1
DA:1441,1
DA:1442,1
DA:1443,1
DA:1445,1
DA:1446,1
DA:1447,1
DA:1448,1
DA:1450,1
DA:1451,1
DA:1452,1
DA:1453,1
DA:1454,1
DA:1455,1
DA:1457,1
DA:1458,1
DA:1459,1
DA:1460,1
DA:1464,1
DA:1465,1
DA:1466,1
DA:1468,1
DA:1469,1
DA:1470,1
DA:1471,1
DA:1472,1
DA:1473,1
DA:1474,1
DA:1475,1
DA:1476,1
DA:1477,1
DA:1480,1
DA:1481,1
DA:1483,1
DA:1484,1
DA:1485,1
DA:1486,1
DA:1487,1
DA:1489,1
DA:1491,1
DA:1492,1
DA:1493,1
DA:1494,1
DA:1495,1
DA:1497,1
DA:1499,1
DA:1500,1
DA:1501,1
DA:1502,1
DA:1503,1
DA:1504,1
DA:1505,1
DA:1507,1
DA:1508,1
DA:1509,1
DA:1510,1
DA:1513,1
DA:1516,1
DA:1517,1
DA:1518,1
DA:1520,1
DA:1521,1
DA:1522,1
DA:1523,1
DA:1524,1
DA:1525,1
DA:1526,1
DA:1527,1
DA:1528,1
DA:1529,1
DA:1530,1
DA:1531,1
DA:1535,1
DA:1536,1
DA:1537,1
DA:1538,1
DA:1539,1
DA:1540,1
DA:1541,1
DA:1542,1
DA:1543,1
DA:1544,1
DA:1545,1
DA:1546,1
DA:1547,1
DA:1548,1
DA:1549,1
DA:1550,1
DA:1551,1
DA:1555,1
DA:1556,1
DA:1557,1
DA:1558,1
DA:1559,1
DA:1560,1
DA:1561,1
DA:1562,1
DA:1563,1
DA:1564,1
DA:1565,1
DA:1566,1
DA:1567,1
DA:1568,1
DA:1569,1
DA:1570,1
DA:1571,1
DA:1572,1
DA:1573,1
DA:1574,1
DA:1575,1
DA:1576,1
DA:1580,1
DA:1581,1
DA:1582,1
DA:1583,1
DA:1584,1
DA:1585,1
DA:1586,1
DA:1587,1
DA:1588,1
DA:1589,1
DA:1590,1
DA:1591,1
DA:1592,1
DA:1594,1
DA:1596,1
DA:1597,1
DA:1598,1
DA:1599,1
DA:1600,1
DA:1601,1
DA:1602,1
DA:1603,1
DA:1604,1
DA:1608,1
DA:1609,1
DA:1610,1
DA:1611,1
DA:1612,1
DA:1613,1
DA:1614,1
DA:1615,1
DA:1616,1
DA:1617,1
DA:1618,1
DA:1619,1
DA:1621,1
DA:1623,1
DA:1624,1
DA:1625,1
DA:1626,1
DA:1627,1
DA:1628,1
DA:1629,1
DA:1632,1
DA:1633,1
DA:1634,1
DA:1636,1
DA:1637,1
DA:1638,1
DA:1639,1
DA:1640,1
DA:1641,1
DA:1642,1
DA:1643,1
DA:1644,1
DA:1645,1
DA:1646,1
DA:1647,1
DA:1648,1
DA:1649,1
DA:1650,1
DA:1651,1
DA:1655,1
DA:1656,1
DA:1657,1
DA:1658,1
DA:1659,1
DA:1660,1
DA:1661,1
DA:1662,1
DA:1663,1
DA:1664,1
DA:1665,1
DA:1666,1
DA:1670,1
DA:1671,1
DA:1672,1
DA:1673,1
DA:1674,1
DA:1675,1
DA:1676,1
DA:1677,1
DA:1678,1
DA:1679,1
DA:1680,1
DA:1681,1
DA:1684,1
DA:1687,1
DA:1688,1
DA:1689,1
DA:1690,1
DA:1691,1
DA:1692,1
DA:1693,1
DA:1694,1
DA:1695,1
DA:1698,1
DA:1699,1
DA:1701,1
DA:1702,1
DA:1703,1
DA:1707,1
DA:1708,1
DA:1709,1
DA:1713,1
DA:1714,1
DA:1715,1
DA:1716,1
DA:1717,1
DA:1718,1
DA:1719,1
DA:1720,1
DA:1721,1
DA:1722,1
DA:1723,1
DA:1724,1
DA:1725,1
DA:1728,1
DA:1729,1
DA:1730,1
DA:1732,1
DA:1734,1
DA:1735,1
DA:1736,1
DA:1737,1
DA:1738,1
DA:1739,1
DA:1740,1
DA:1741,1
DA:1743,1
DA:1744,1
DA:1745,1
DA:1746,1
DA:1747,1
DA:1748,1
DA:1749,1
DA:1751,1
DA:1753,1
DA:1754,1
DA:1755,1
DA:1756,1
DA:1757,1
DA:1758,1
DA:1759,1
DA:1760,1
DA:1761,1
DA:1762,1
DA:1763,1
DA:1764,1
DA:1766,1
DA:1768,1
DA:1769,1
DA:1770,1
DA:1771,1
DA:1772,1
DA:1774,1
DA:1775,1
DA:1776,1
DA:1778,1
DA:1779,1
DA:1780,1
DA:1781,1
DA:1782,1
DA:1783,1
DA:1784,1
DA:1785,1
DA:1786,1
DA:1787,1
DA:1788,1
DA:1789,1
DA:1791,1
DA:1793,1
DA:1794,1
DA:1795,1
DA:1796,1
DA:1797,1
DA:1799,1
DA:1800,1
DA:1801,1
DA:1802,1
DA:1805,1
DA:1806,1
DA:1807,1
DA:1808,1
DA:1810,1
DA:1811,1
DA:1812,1
DA:1813,1
DA:1814,1
DA:1815,1
DA:1816,1
DA:1817,1
DA:1819,1
DA:1821,1
DA:1822,1
DA:1823,1
DA:1824,1
DA:1825,1
DA:1826,1
DA:1827,1
DA:1828,1
DA:1829,1
DA:1830,1
DA:1834,1
DA:1835,1
DA:1836,1
DA:1837,1
DA:1839,1
DA:1840,1
DA:1841,1
DA:1842,1
DA:1844,1
DA:1845,1
DA:1846,1
DA:1848,1
DA:1849,1
DA:1850,1
DA:1851,1
DA:1853,1
DA:1854,1
DA:1855,1
DA:1857,1
DA:1858,1
DA:1859,1
DA:1860,1
DA:1862,1
DA:1863,1
DA:1864,1
DA:1865,1
BRF:0
BRH:0
LF:1441
LH:1299
end_of_record
SF:/Users/rt/workspace/synod/src/domain/brief.rs
FN:98,_RNvMNtNtCs3oCotP8OZr6_5synod6domain5briefNtB2_19AuthoredBriefBundle12summary_text
FN:67,_RNvMNtNtCs3oCotP8OZr6_5synod6domain5briefNtB2_19AuthoredBriefBundle16render_goal_text
FN:128,_RNvMNtNtCs3oCotP8OZr6_5synod6domain5briefNtB2_19AuthoredBriefBundle20clarification_prompt
FN:90,_RNvMNtNtCs3oCotP8OZr6_5synod6domain5briefNtB2_19AuthoredBriefBundle21markdown_source_count
FN:111,_RNvMNtNtCs3oCotP8OZr6_5synod6domain5briefNtB2_19AuthoredBriefBundle21ordered_source_labels
FN:124,_RNvMNtNtCs3oCotP8OZr6_5synod6domain5briefNtB2_19AuthoredBriefBundle22clarification_headline
FN:116,_RNvMNtNtCs3oCotP8OZr6_5synod6domain5briefNtB2_19AuthoredBriefBundle26deduplicated_source_labels
FN:132,_RNvMNtNtCs3oCotP8OZr6_5synod6domain5briefNtB2_19AuthoredBriefBundle28clarification_missing_fields
FN:166,_RNvMs_NtNtCs3oCotP8OZr6_5synod6domain5briefNtB4_20InputSourceReference13display_label
FN:373,_RNvNtNtCs3oCotP8OZr6_5synod6domain5brief13trimmed_field
FN:544,_RNvNtNtCs3oCotP8OZr6_5synod6domain5brief16derive_flow_hint
FN:229,_RNvNtNtCs3oCotP8OZr6_5synod6domain5brief16normalize_inputs
FN:468,_RNvNtNtCs3oCotP8OZr6_5synod6domain5brief17derive_task_draft
FN:494,_RNvNtNtCs3oCotP8OZr6_5synod6domain5brief20extract_bounded_goal
FN:377,_RNvNtNtCs3oCotP8OZr6_5synod6domain5brief20push_markdown_source
FN:406,_RNvNtNtCs3oCotP8OZr6_5synod6domain5brief23resolve_markdown_source
FN:517,_RNvNtNtCs3oCotP8OZr6_5synod6domain5brief24clarification_for_bundle
FN:38,_RNvNtNtCs3oCotP8OZr6_5synod6domain5brief24default_resolution_state
FN:558,_RNvNtNtCs3oCotP8OZr6_5synod6domain5brief25referenced_markdown_paths
FN:335,_RNvNtNtCs3oCotP8OZr6_5synod6domain5brief27normalize_governance_intent
FN:575,_RNvNtNtCs3oCotP8OZr6_5synod6domain5brief29markdown_reference_from_token
FN:237,_RNvNtNtCs3oCotP8OZr6_5synod6domain5brief32normalize_inputs_with_governance
FN:536,_RNvNtNtCs3oCotP8OZr6_5synod6domain5brief40requires_unbounded_request_clarification
FN:120,_RNvMNtNtCs3oCotP8OZr6_5synod6domain5briefNtB2_19AuthoredBriefBundle14planning_ready
FN:510,_RNCNCNvNtNtCs3oCotP8OZr6_5synod6domain5brief20extract_bounded_goals_00B9_
FN:511,_RNCNCNvNtNtCs3oCotP8OZr6_5synod6domain5brief20extract_bounded_goals_0s_0B9_
FN:100,_RNCNvMNtNtCs3oCotP8OZr6_5synod6domain5briefNtB4_19AuthoredBriefBundle12summary_text0B8_
FN:129,_RNCNvMNtNtCs3oCotP8OZr6_5synod6domain5briefNtB4_19AuthoredBriefBundle20clarification_prompt0B8_
FN:93,_RNCNvMNtNtCs3oCotP8OZr6_5synod6domain5briefNtB4_19AuthoredBriefBundle21markdown_source_count0B8_
FN:133,_RNCNvMNtNtCs3oCotP8OZr6_5synod6domain5briefNtB4_19AuthoredBriefBundle28clarification_missing_fields0B8_
FN:374,_RNCNvNtNtCs3oCotP8OZr6_5synod6domain5brief13trimmed_field0B7_
FN:474,_RNCNvNtNtCs3oCotP8OZr6_5synod6domain5brief17derive_task_draft0B7_
FN:486,_RNCNvNtNtCs3oCotP8OZr6_5synod6domain5brief17derive_task_drafts_0B7_
FN:504,_RNCNvNtNtCs3oCotP8OZr6_5synod6domain5brief20extract_bounded_goal0B7_
FN:513,_RNCNvNtNtCs3oCotP8OZr6_5synod6domain5brief20extract_bounded_goals0_0B7_
FN:514,_RNCNvNtNtCs3oCotP8OZr6_5synod6domain5brief20extract_bounded_goals1_0B7_
FN:505,_RNCNvNtNtCs3oCotP8OZr6_5synod6domain5brief20extract_bounded_goals_0B7_
FN:388,_RNCNvNtNtCs3oCotP8OZr6_5synod6domain5brief20push_markdown_source0B7_
FN:422,_RNCNvNtNtCs3oCotP8OZr6_5synod6domain5brief23resolve_markdown_source0B7_
FN:444,_RNCNvNtNtCs3oCotP8OZr6_5synod6domain5brief23resolve_markdown_sources0_0B7_
FN:451,_RNCNvNtNtCs3oCotP8OZr6_5synod6domain5brief23resolve_markdown_sources1_0B7_
FN:458,_RNCNvNtNtCs3oCotP8OZr6_5synod6domain5brief23resolve_markdown_sources2_0B7_
FN:459,_RNCNvNtNtCs3oCotP8OZr6_5synod6domain5brief23resolve_markdown_sources3_0B7_
FN:462,_RNCNvNtNtCs3oCotP8OZr6_5synod6domain5brief23resolve_markdown_sources4_0B7_
FN:463,_RNCNvNtNtCs3oCotP8OZr6_5synod6domain5brief23resolve_markdown_sources5_0B7_
FN:435,_RNCNvNtNtCs3oCotP8OZr6_5synod6domain5brief23resolve_markdown_sources_0B7_
FN:530,_RNCNvNtNtCs3oCotP8OZr6_5synod6domain5brief24clarification_for_bundle0B7_
FN:244,_RNCNvNtNtCs3oCotP8OZr6_5synod6domain5brief32normalize_inputs_with_governance0B7_
FN:304,_RNCNvNtNtCs3oCotP8OZr6_5synod6domain5brief32normalize_inputs_with_governances0_0B7_
FN:256,_RNCNvNtNtCs3oCotP8OZr6_5synod6domain5brief32normalize_inputs_with_governances_0B7_
FN:606,_RNvNtNtNtCs3oCotP8OZr6_5synod6domain5brief5tests14temp_workspace
FN:670,_RNvNtNtNtCs3oCotP8OZr6_5synod6domain5brief5testss_20rejects_empty_source
FN:662,_RNvNtNtNtCs3oCotP8OZr6_5synod6domain5brief5testss_22rejects_missing_source
FN:679,_RNvNtNtNtCs3oCotP8OZr6_5synod6domain5brief5testss_24rejects_too_many_sources
FN:620,_RNvNtNtNtCs3oCotP8OZr6_5synod6domain5brief5testss_27normalizes_direct_text_only
FN:653,_RNvNtNtNtCs3oCotP8OZr6_5synod6domain5brief5testss_29rejects_unsupported_extension
FN:643,_RNvNtNtNtCs3oCotP8OZr6_5synod6domain5brief5testss_31rejects_brief_outside_workspace
FN:630,_RNvNtNtNtCs3oCotP8OZr6_5synod6domain5brief5testss_37ingests_markdown_brief_from_workspace
FN:694,_RNvNtNtNtCs3oCotP8OZr6_5synod6domain5brief5testss_40combines_direct_text_and_markdown_briefs
FN:613,_RNvNtNtNtCs3oCotP8OZr6_5synod6domain5brief5testss_41rejects_invocation_without_goal_or_briefs
FNDA:22,_RNvMNtNtCs3oCotP8OZr6_5synod6domain5briefNtB2_19AuthoredBriefBundle12summary_text
FNDA:8,_RNvMNtNtCs3oCotP8OZr6_5synod6domain5briefNtB2_19AuthoredBriefBundle16render_goal_text
FNDA:16,_RNvMNtNtCs3oCotP8OZr6_5synod6domain5briefNtB2_19AuthoredBriefBundle20clarification_prompt
FNDA:29,_RNvMNtNtCs3oCotP8OZr6_5synod6domain5briefNtB2_19AuthoredBriefBundle21markdown_source_count
FNDA:17,_RNvMNtNtCs3oCotP8OZr6_5synod6domain5briefNtB2_19AuthoredBriefBundle21ordered_source_labels
FNDA:21,_RNvMNtNtCs3oCotP8OZr6_5synod6domain5briefNtB2_19AuthoredBriefBundle22clarification_headline
FNDA:16,_RNvMNtNtCs3oCotP8OZr6_5synod6domain5briefNtB2_19AuthoredBriefBundle26deduplicated_source_labels
FNDA:16,_RNvMNtNtCs3oCotP8OZr6_5synod6domain5briefNtB2_19AuthoredBriefBundle28clarification_missing_fields
FNDA:17,_RNvMs_NtNtCs3oCotP8OZr6_5synod6domain5briefNtB4_20InputSourceReference13display_label
FNDA:15,_RNvNtNtCs3oCotP8OZr6_5synod6domain5brief13trimmed_field
FNDA:8,_RNvNtNtCs3oCotP8OZr6_5synod6domain5brief16derive_flow_hint
FNDA:9,_RNvNtNtCs3oCotP8OZr6_5synod6domain5brief16normalize_inputs
FNDA:8,_RNvNtNtCs3oCotP8OZr6_5synod6domain5brief17derive_task_draft
FNDA:8,_RNvNtNtCs3oCotP8OZr6_5synod6domain5brief20extract_bounded_goal
FNDA:6,_RNvNtNtCs3oCotP8OZr6_5synod6domain5brief20push_markdown_source
FNDA:6,_RNvNtNtCs3oCotP8OZr6_5synod6domain5brief23resolve_markdown_source
FNDA:8,_RNvNtNtCs3oCotP8OZr6_5synod6domain5brief24clarification_for_bundle
FNDA:0,_RNvNtNtCs3oCotP8OZr6_5synod6domain5brief24default_resolution_state
FNDA:7,_RNvNtNtCs3oCotP8OZr6_5synod6domain5brief25referenced_markdown_paths
FNDA:5,_RNvNtNtCs3oCotP8OZr6_5synod6domain5brief27normalize_governance_intent
FNDA:36,_RNvNtNtCs3oCotP8OZr6_5synod6domain5brief29markdown_reference_from_token
FNDA:14,_RNvNtNtCs3oCotP8OZr6_5synod6domain5brief32normalize_inputs_with_governance
FNDA:8,_RNvNtNtCs3oCotP8OZr6_5synod6domain5brief40requires_unbounded_request_clarification
FNDA:0,_RNvMNtNtCs3oCotP8OZr6_5synod6domain5briefNtB2_19AuthoredBriefBundle14planning_ready
FNDA:1,_RNCNCNvNtNtCs3oCotP8OZr6_5synod6domain5brief20extract_bounded_goals_00B9_
FNDA:1,_RNCNCNvNtNtCs3oCotP8OZr6_5synod6domain5brief20extract_bounded_goals_0s_0B9_
FNDA:22,_RNCNvMNtNtCs3oCotP8OZr6_5synod6domain5briefNtB4_19AuthoredBriefBundle12summary_text0B8_
FNDA:0,_RNCNvMNtNtCs3oCotP8OZr6_5synod6domain5briefNtB4_19AuthoredBriefBundle20clarification_prompt0B8_
FNDA:1,_RNCNvMNtNtCs3oCotP8OZr6_5synod6domain5briefNtB4_19AuthoredBriefBundle21markdown_source_count0B8_
FNDA:0,_RNCNvMNtNtCs3oCotP8OZr6_5synod6domain5briefNtB4_19AuthoredBriefBundle28clarification_missing_fields0B8_
FNDA:0,_RNCNvNtNtCs3oCotP8OZr6_5synod6domain5brief13trimmed_field0B7_
FNDA:0,_RNCNvNtNtCs3oCotP8OZr6_5synod6domain5brief17derive_task_draft0B7_
FNDA:9,_RNCNvNtNtCs3oCotP8OZr6_5synod6domain5brief17derive_task_drafts_0B7_
FNDA:1,_RNCNvNtNtCs3oCotP8OZr6_5synod6domain5brief20extract_bounded_goal0B7_
FNDA:1,_RNCNvNtNtCs3oCotP8OZr6_5synod6domain5brief20extract_bounded_goals0_0B7_
FNDA:0,_RNCNvNtNtCs3oCotP8OZr6_5synod6domain5brief20extract_bounded_goals1_0B7_
FNDA:1,_RNCNvNtNtCs3oCotP8OZr6_5synod6domain5brief20extract_bounded_goals_0B7_
FNDA:0,_RNCNvNtNtCs3oCotP8OZr6_5synod6domain5brief20push_markdown_source0B7_
FNDA:0,_RNCNvNtNtCs3oCotP8OZr6_5synod6domain5brief23resolve_markdown_source0B7_
FNDA:0,_RNCNvNtNtCs3oCotP8OZr6_5synod6domain5brief23resolve_markdown_sources0_0B7_
FNDA:0,_RNCNvNtNtCs3oCotP8OZr6_5synod6domain5brief23resolve_markdown_sources1_0B7_
FNDA:2,_RNCNvNtNtCs3oCotP8OZr6_5synod6domain5brief23resolve_markdown_sources2_0B7_
FNDA:0,_RNCNvNtNtCs3oCotP8OZr6_5synod6domain5brief23resolve_markdown_sources3_0B7_
FNDA:2,_RNCNvNtNtCs3oCotP8OZr6_5synod6domain5brief23resolve_markdown_sources4_0B7_
FNDA:0,_RNCNvNtNtCs3oCotP8OZr6_5synod6domain5brief23resolve_markdown_sources5_0B7_
FNDA:4,_RNCNvNtNtCs3oCotP8OZr6_5synod6domain5brief23resolve_markdown_sources_0B7_
FNDA:0,_RNCNvNtNtCs3oCotP8OZr6_5synod6domain5brief24clarification_for_bundle0B7_
FNDA:7,_RNCNvNtNtCs3oCotP8OZr6_5synod6domain5brief32normalize_inputs_with_governance0B7_
FNDA:2,_RNCNvNtNtCs3oCotP8OZr6_5synod6domain5brief32normalize_inputs_with_governances0_0B7_
FNDA:0,_RNCNvNtNtCs3oCotP8OZr6_5synod6domain5brief32normalize_inputs_with_governances_0B7_
FNDA:10,_RNvNtNtNtCs3oCotP8OZr6_5synod6domain5brief5tests14temp_workspace
FNDA:1,_RNvNtNtNtCs3oCotP8OZr6_5synod6domain5brief5testss_20rejects_empty_source
FNDA:1,_RNvNtNtNtCs3oCotP8OZr6_5synod6domain5brief5testss_22rejects_missing_source
FNDA:1,_RNvNtNtNtCs3oCotP8OZr6_5synod6domain5brief5testss_24rejects_too_many_sources
FNDA:1,_RNvNtNtNtCs3oCotP8OZr6_5synod6domain5brief5testss_27normalizes_direct_text_only
FNDA:1,_RNvNtNtNtCs3oCotP8OZr6_5synod6domain5brief5testss_29rejects_unsupported_extension
FNDA:1,_RNvNtNtNtCs3oCotP8OZr6_5synod6domain5brief5testss_31rejects_brief_outside_workspace
FNDA:1,_RNvNtNtNtCs3oCotP8OZr6_5synod6domain5brief5testss_37ingests_markdown_brief_from_workspace
FNDA:1,_RNvNtNtNtCs3oCotP8OZr6_5synod6domain5brief5testss_40combines_direct_text_and_markdown_briefs
FNDA:1,_RNvNtNtNtCs3oCotP8OZr6_5synod6domain5brief5testss_41rejects_invocation_without_goal_or_briefs
FNF:60
FNH:45
DA:38,0
DA:39,0
DA:40,0
DA:67,8
DA:68,8
DA:69,8
DA:70,7
DA:71,7
DA:73,9
DA:74,9
DA:75,7
DA:76,2
DA:77,2
DA:78,1
DA:79,1
DA:80,2
DA:81,2
DA:82,2
DA:83,2
DA:86,8
DA:87,8
DA:90,29
DA:91,29
DA:92,29
DA:93,29
DA:94,29
DA:95,29
DA:98,22
DA:99,22
DA:100,22
DA:101,22
DA:103,22
DA:104,22
DA:105,0
DA:106,0
DA:108,22
DA:111,17
DA:112,17
DA:113,17
DA:116,16
DA:117,16
DA:118,16
DA:120,0
DA:121,0
DA:122,0
DA:124,21
DA:125,21
DA:126,21
DA:128,16
DA:129,16
DA:130,16
DA:132,16
DA:133,16
DA:134,0
DA:135,0
DA:136,0
DA:137,16
DA:166,17
DA:167,17
DA:168,17
DA:169,0
DA:170,0
DA:173,17
DA:174,0
DA:175,17
DA:177,17
DA:229,9
DA:230,9
DA:231,9
DA:232,9
DA:233,9
DA:234,9
DA:235,9
DA:237,14
DA:238,14
DA:239,14
DA:240,14
DA:241,14
DA:242,14
DA:243,14
DA:244,14
DA:245,14
DA:246,14
DA:248,14
DA:249,1
DA:250,13
DA:252,13
DA:253,1
DA:254,12
DA:256,12
DA:257,0
DA:258,0
DA:260,12
DA:261,12
DA:263,12
DA:264,12
DA:265,12
DA:267,12
DA:268,7
DA:269,7
DA:270,7
DA:271,7
DA:272,7
DA:273,7
DA:274,7
DA:275,7
DA:276,7
DA:277,7
DA:279,12
DA:280,6
DA:281,6
DA:282,6
DA:283,6
DA:284,6
DA:285,6
DA:286,6
DA:287,6
DA:288,4
DA:291,8
DA:292,0
DA:293,0
DA:294,0
DA:295,0
DA:296,0
DA:297,0
DA:298,0
DA:299,0
DA:300,0
DA:303,8
DA:304,9
DA:305,8
DA:306,0
DA:307,8
DA:309,8
DA:310,8
DA:311,8
DA:312,8
DA:313,8
DA:314,8
DA:315,8
DA:316,8
DA:317,8
DA:318,8
DA:319,8
DA:320,8
DA:321,8
DA:323,8
DA:324,8
DA:325,0
DA:327,8
DA:329,8
DA:330,8
DA:332,8
DA:333,14
DA:335,5
DA:336,5
DA:337,5
DA:338,5
DA:339,5
DA:340,5
DA:341,5
DA:342,5
DA:343,5
DA:345,5
DA:346,5
DA:347,0
DA:349,0
DA:350,0
DA:351,0
DA:352,0
DA:353,0
DA:354,0
DA:355,0
DA:356,0
DA:357,0
DA:358,0
DA:359,0
DA:360,0
DA:361,0
DA:362,0
DA:363,0
DA:364,0
DA:365,0
DA:366,0
DA:367,0
DA:368,0
DA:370,0
DA:371,5
DA:373,15
DA:374,15
DA:375,15
DA:377,6
DA:378,6
DA:379,6
DA:380,6
DA:381,6
DA:382,6
DA:383,6
DA:384,6
DA:385,6
DA:386,6
DA:387,2
DA:388,0
DA:389,0
DA:390,0
DA:391,0
DA:392,2
DA:394,2
DA:395,2
DA:396,2
DA:397,2
DA:398,2
DA:399,2
DA:400,2
DA:401,2
DA:402,2
DA:403,2
DA:404,6
DA:406,6
DA:407,6
DA:408,6
DA:409,6
DA:410,6
DA:411,6
DA:413,0
DA:416,6
DA:417,1
DA:418,5
DA:420,5
DA:421,5
DA:422,5
DA:424,5
DA:425,0
DA:426,5
DA:428,5
DA:429,1
DA:430,1
DA:431,1
DA:432,1
DA:433,4
DA:435,4
DA:436,4
DA:437,4
DA:439,1
DA:443,3
DA:444,3
DA:445,3
DA:446,3
DA:447,0
DA:448,3
DA:450,3
DA:451,3
DA:452,3
DA:453,1
DA:454,2
DA:456,2
DA:457,2
DA:458,2
DA:459,2
DA:460,2
DA:461,2
DA:462,2
DA:463,2
DA:465,2
DA:466,6
DA:468,8
DA:469,8
DA:470,8
DA:471,8
DA:472,8
DA:473,8
DA:474,8
DA:478,8
DA:479,8
DA:480,8
DA:481,8
DA:482,8
DA:483,8
DA:484,8
DA:485,8
DA:486,9
DA:487,8
DA:488,8
DA:490,8
DA:492,8
DA:494,8
DA:495,8
DA:496,7
DA:498,7
DA:499,1
DA:501,1
DA:502,1
DA:503,1
DA:504,1
DA:505,1
DA:506,1
DA:507,1
DA:508,1
DA:509,1
DA:510,1
DA:511,1
DA:512,1
DA:513,1
DA:514,1
DA:515,8
DA:517,8
DA:518,8
DA:519,8
DA:520,8
DA:521,8
DA:522,8
DA:523,0
DA:526,0
DA:527,0
DA:528,0
DA:529,0
DA:530,0
DA:532,0
DA:534,8
DA:536,8
DA:537,8
DA:538,8
DA:539,8
DA:540,8
DA:541,8
DA:542,8
DA:544,8
DA:545,8
DA:546,8
DA:547,7
DA:548,1
DA:549,1
DA:550,0
DA:551,1
DA:552,1
DA:553,0
DA:554,1
DA:555,1
DA:556,8
DA:558,7
DA:559,7
DA:560,7
DA:562,36
DA:563,36
DA:564,36
DA:566,0
DA:567,0
DA:568,0
DA:569,0
DA:572,7
DA:573,7
DA:575,36
DA:576,36
DA:577,36
DA:578,36
DA:579,36
DA:580,0
DA:581,36
DA:583,36
DA:584,36
DA:585,0
DA:587,36
DA:589,36
DA:606,10
DA:607,10
DA:608,10
DA:609,10
DA:610,10
DA:613,1
DA:614,1
DA:615,1
DA:616,1
DA:617,1
DA:620,1
DA:621,1
DA:622,1
DA:623,1
DA:624,1
DA:625,1
DA:626,1
DA:627,1
DA:630,1
DA:631,1
DA:632,1
DA:633,1
DA:635,1
DA:636,1
DA:637,1
DA:638,1
DA:639,1
DA:640,1
DA:643,1
DA:644,1
DA:645,1
DA:646,1
DA:647,1
DA:648,1
DA:649,1
DA:650,1
DA:653,1
DA:654,1
DA:655,1
DA:656,1
DA:657,1
DA:658,1
DA:659,1
DA:662,1
DA:663,1
DA:664,1
DA:665,1
DA:666,1
DA:667,1
DA:670,1
DA:671,1
DA:672,1
DA:673,1
DA:674,1
DA:675,1
DA:676,1
DA:679,1
DA:680,1
DA:681,1
DA:682,11
DA:683,11
DA:684,11
DA:685,11
DA:686,11
DA:687,1
DA:688,1
DA:689,1
DA:691,1
DA:694,1
DA:695,1
DA:696,1
DA:697,1
DA:698,1
DA:700,1
DA:701,1
DA:702,1
DA:703,1
DA:704,1
DA:705,1
DA:706,1
DA:707,1
BRF:0
BRH:0
LF:471
LH:386
end_of_record
SF:/Users/rt/workspace/synod/src/domain/cluster.rs
FN:267,_RNCNvMs3_NtNtCs3oCotP8OZr6_5synod6domain7clusterNtB7_27ClusteredExecutionCondition8validate0Bb_
FN:271,_RNCNvMs3_NtNtCs3oCotP8OZr6_5synod6domain7clusterNtB7_27ClusteredExecutionCondition8validates_0Bb_
FN:181,_RNvMs1_NtNtCs3oCotP8OZr6_5synod6domain7clusterNtB5_28WorkspaceParticipationRecord8validate
FN:222,_RNvMs2_NtNtCs3oCotP8OZr6_5synod6domain7clusterNtB5_24ClusterFollowUpAuthority8validate
FN:262,_RNvMs3_NtNtCs3oCotP8OZr6_5synod6domain7clusterNtB5_27ClusteredExecutionCondition8validate
FN:300,_RNvMs4_NtNtCs3oCotP8OZr6_5synod6domain7clusterNtB5_20ClusterDeliveryStory8validate
FN:413,_RNCNvMs5_NtNtCs3oCotP8OZr6_5synod6domain7clusterNtB7_17ClusterConfigFile8validate0Bb_
FN:493,_RNvNtNtNtCs3oCotP8OZr6_5synod6domain7cluster5testss_45cluster_file_validation_rejects_default_state
FN:499,_RNvNtNtNtCs3oCotP8OZr6_5synod6domain7cluster5testss_65workspace_cluster_validation_accepts_two_members_with_one_primary
FN:25,_RNvMNtNtCs3oCotP8OZr6_5synod6domain7clusterNtB2_25ClusterMemberRegistration8validate
FN:114,_RNvMs0_NtNtCs3oCotP8OZr6_5synod6domain7clusterNtB5_24ClusterSessionProjection8validate
FN:411,_RNvMs5_NtNtCs3oCotP8OZr6_5synod6domain7clusterNtB5_17ClusterConfigFile8validate
FN:50,_RNvMs_NtNtCs3oCotP8OZr6_5synod6domain7clusterNtB4_16WorkspaceCluster8validate
FN:434,_RNvNtNtCs3oCotP8OZr6_5synod6domain7cluster15default_version
FN:419,_RNvXs6_NtNtCs3oCotP8OZr6_5synod6domain7clusterNtB5_17ClusterConfigFileNtNtCsl8K0bEFm1U0_4core7default7Default7default
FNDA:0,_RNCNvMs3_NtNtCs3oCotP8OZr6_5synod6domain7clusterNtB7_27ClusteredExecutionCondition8validate0Bb_
FNDA:0,_RNCNvMs3_NtNtCs3oCotP8OZr6_5synod6domain7clusterNtB7_27ClusteredExecutionCondition8validates_0Bb_
FNDA:0,_RNvMs1_NtNtCs3oCotP8OZr6_5synod6domain7clusterNtB5_28WorkspaceParticipationRecord8validate
FNDA:0,_RNvMs2_NtNtCs3oCotP8OZr6_5synod6domain7clusterNtB5_24ClusterFollowUpAuthority8validate
FNDA:0,_RNvMs3_NtNtCs3oCotP8OZr6_5synod6domain7clusterNtB5_27ClusteredExecutionCondition8validate
FNDA:0,_RNvMs4_NtNtCs3oCotP8OZr6_5synod6domain7clusterNtB5_20ClusterDeliveryStory8validate
FNDA:0,_RNCNvMs5_NtNtCs3oCotP8OZr6_5synod6domain7clusterNtB7_17ClusterConfigFile8validate0Bb_
FNDA:1,_RNvNtNtNtCs3oCotP8OZr6_5synod6domain7cluster5testss_45cluster_file_validation_rejects_default_state
FNDA:1,_RNvNtNtNtCs3oCotP8OZr6_5synod6domain7cluster5testss_65workspace_cluster_validation_accepts_two_members_with_one_primary
FNDA:12,_RNvMNtNtCs3oCotP8OZr6_5synod6domain7clusterNtB2_25ClusterMemberRegistration8validate
FNDA:3,_RNvMs0_NtNtCs3oCotP8OZr6_5synod6domain7clusterNtB5_24ClusterSessionProjection8validate
FNDA:6,_RNvMs5_NtNtCs3oCotP8OZr6_5synod6domain7clusterNtB5_17ClusterConfigFile8validate
FNDA:7,_RNvMs_NtNtCs3oCotP8OZr6_5synod6domain7clusterNtB4_16WorkspaceCluster8validate
FNDA:3,_RNvNtNtCs3oCotP8OZr6_5synod6domain7cluster15default_version
FNDA:3,_RNvXs6_NtNtCs3oCotP8OZr6_5synod6domain7clusterNtB5_17ClusterConfigFileNtNtCsl8K0bEFm1U0_4core7default7Default7default
FNF:15
FNH:8
DA:25,12
DA:26,12
DA:27,0
DA:28,12
DA:30,12
DA:31,1
DA:33,0
DA:34,12
DA:36,12
DA:37,12
DA:50,7
DA:51,7
DA:52,1
DA:53,6
DA:55,6
DA:56,0
DA:57,6
DA:59,6
DA:60,0
DA:61,6
DA:63,6
DA:64,0
DA:65,0
DA:66,0
DA:67,0
DA:68,6
DA:70,6
DA:71,6
DA:72,6
DA:74,12
DA:75,12
DA:77,12
DA:78,12
DA:79,0
DA:80,12
DA:82,12
DA:83,6
DA:84,6
DA:85,6
DA:86,6
DA:87,6
DA:90,6
DA:91,0
DA:92,6
DA:94,6
DA:95,0
DA:96,0
DA:97,0
DA:98,6
DA:100,6
DA:101,7
DA:114,3
DA:115,3
DA:116,0
DA:117,3
DA:119,3
DA:120,0
DA:121,3
DA:123,3
DA:124,0
DA:125,3
DA:127,3
DA:128,0
DA:129,3
DA:131,3
DA:132,3
DA:133,6
DA:134,6
DA:135,6
DA:136,0
DA:137,6
DA:138,6
DA:139,0
DA:140,6
DA:141,6
DA:142,3
DA:143,3
DA:146,3
DA:147,0
DA:148,0
DA:149,0
DA:150,3
DA:152,3
DA:153,3
DA:181,0
DA:182,0
DA:183,0
DA:184,0
DA:186,0
DA:187,0
DA:188,0
DA:190,0
DA:191,0
DA:222,0
DA:223,0
DA:224,0
DA:225,0
DA:227,0
DA:228,0
DA:229,0
DA:231,0
DA:232,0
DA:233,0
DA:235,0
DA:236,0
DA:262,0
DA:263,0
DA:264,0
DA:265,0
DA:267,0
DA:268,0
DA:269,0
DA:271,0
DA:272,0
DA:273,0
DA:275,0
DA:276,0
DA:278,0
DA:279,0
DA:281,0
DA:282,0
DA:300,0
DA:301,0
DA:302,0
DA:303,0
DA:305,0
DA:306,0
DA:307,0
DA:309,0
DA:310,0
DA:311,0
DA:313,0
DA:314,0
DA:315,0
DA:317,0
DA:318,0
DA:319,0
DA:321,0
DA:323,0
DA:324,0
DA:325,0
DA:326,0
DA:327,0
DA:328,0
DA:329,0
DA:330,0
DA:331,0
DA:332,0
DA:333,0
DA:334,0
DA:335,0
DA:336,0
DA:337,0
DA:338,0
DA:339,0
DA:342,0
DA:343,0
DA:344,0
DA:345,0
DA:346,0
DA:348,0
DA:349,0
DA:350,0
DA:351,0
DA:352,0
DA:354,0
DA:355,0
DA:356,0
DA:357,0
DA:358,0
DA:359,0
DA:360,0
DA:361,0
DA:362,0
DA:363,0
DA:364,0
DA:365,0
DA:366,0
DA:369,0
DA:370,0
DA:411,6
DA:412,6
DA:413,5
DA:414,5
DA:415,6
DA:419,3
DA:420,3
DA:421,3
DA:422,3
DA:423,3
DA:424,3
DA:425,3
DA:426,3
DA:427,3
DA:428,3
DA:429,3
DA:430,3
DA:431,3
DA:434,3
DA:435,3
DA:436,3
DA:493,1
DA:494,1
DA:495,1
DA:496,1
DA:499,1
DA:500,1
DA:501,1
DA:502,1
DA:503,1
DA:504,1
DA:505,1
DA:506,1
DA:507,1
DA:508,1
DA:509,1
DA:510,1
DA:511,1
DA:512,1
DA:513,1
DA:514,1
DA:515,1
DA:516,1
DA:517,1
DA:519,1
DA:520,1
BRF:0
BRH:0
LF:229
LH:108
end_of_record
SF:/Users/rt/workspace/synod/src/domain/configuration.rs
FN:365,_RNvNtNtNtCs3oCotP8OZr6_5synod6domain13configuration5testss_40review_role_falls_back_to_review_default
FN:336,_RNvNtNtNtCs3oCotP8OZr6_5synod6domain13configuration5testss_45cli_precedence_wins_over_workspace_and_global
FN:29,_RNvXs_NtNtCs3oCotP8OZr6_5synod6domain13configurationNtB4_11RuntimeKindNtNtCsl8K0bEFm1U0_4core3fmt7Display3fmt
FN:18,_RNvMNtNtCs3oCotP8OZr6_5synod6domain13configurationNtB2_11RuntimeKind6as_str
FN:75,_RNvMs0_NtNtCs3oCotP8OZr6_5synod6domain13configurationNtB5_10ModelRoute8validate
FN:137,_RNvMs1_NtNtCs3oCotP8OZr6_5synod6domain13configurationNtB5_13RoutingConfig10unset_slot
FN:128,_RNvMs1_NtNtCs3oCotP8OZr6_5synod6domain13configurationNtB5_13RoutingConfig8set_slot
FN:102,_RNvMs1_NtNtCs3oCotP8OZr6_5synod6domain13configurationNtB5_13RoutingConfig8validate
FN:277,_RNvNtNtCs3oCotP8OZr6_5synod6domain13configuration14resolve_single
FN:161,_RNvNtNtCs3oCotP8OZr6_5synod6domain13configuration15default_version
FN:307,_RNvNtNtCs3oCotP8OZr6_5synod6domain13configuration17built_in_defaults
FN:200,_RNvNtNtCs3oCotP8OZr6_5synod6domain13configuration25resolve_effective_routing
FN:156,_RNvXs2_NtNtCs3oCotP8OZr6_5synod6domain13configurationNtB5_10ConfigFileNtNtCsl8K0bEFm1U0_4core7default7Default7default
FN:210,_RNCNvNtNtCs3oCotP8OZr6_5synod6domain13configuration25resolve_effective_routing0B7_
FN:212,_RNCNvNtNtCs3oCotP8OZr6_5synod6domain13configuration25resolve_effective_routings0_0B7_
FN:217,_RNCNvNtNtCs3oCotP8OZr6_5synod6domain13configuration25resolve_effective_routings1_0B7_
FN:218,_RNCNvNtNtCs3oCotP8OZr6_5synod6domain13configuration25resolve_effective_routings2_0B7_
FN:219,_RNCNvNtNtCs3oCotP8OZr6_5synod6domain13configuration25resolve_effective_routings3_0B7_
FN:224,_RNCNvNtNtCs3oCotP8OZr6_5synod6domain13configuration25resolve_effective_routings4_0B7_
FN:225,_RNCNvNtNtCs3oCotP8OZr6_5synod6domain13configuration25resolve_effective_routings5_0B7_
FN:226,_RNCNvNtNtCs3oCotP8OZr6_5synod6domain13configuration25resolve_effective_routings6_0B7_
FN:231,_RNCNvNtNtCs3oCotP8OZr6_5synod6domain13configuration25resolve_effective_routings7_0B7_
FN:232,_RNCNvNtNtCs3oCotP8OZr6_5synod6domain13configuration25resolve_effective_routings8_0B7_
FN:233,_RNCNvNtNtCs3oCotP8OZr6_5synod6domain13configuration25resolve_effective_routings9_0B7_
FN:211,_RNCNvNtNtCs3oCotP8OZr6_5synod6domain13configuration25resolve_effective_routings_0B7_
FN:238,_RNCNvNtNtCs3oCotP8OZr6_5synod6domain13configuration25resolve_effective_routingsa_0B7_
FN:239,_RNCNvNtNtCs3oCotP8OZr6_5synod6domain13configuration25resolve_effective_routingsb_0B7_
FN:240,_RNCNvNtNtCs3oCotP8OZr6_5synod6domain13configuration25resolve_effective_routingsc_0B7_
FN:249,_RNCNvNtNtCs3oCotP8OZr6_5synod6domain13configuration25resolve_effective_routingsd_0B7_
FN:250,_RNCNvNtNtCs3oCotP8OZr6_5synod6domain13configuration25resolve_effective_routingse_0B7_
FN:251,_RNCNvNtNtCs3oCotP8OZr6_5synod6domain13configuration25resolve_effective_routingsf_0B7_
FN:259,_RNCNvNtNtCs3oCotP8OZr6_5synod6domain13configuration25resolve_effective_routingsg_0B7_
FN:260,_RNCNvNtNtCs3oCotP8OZr6_5synod6domain13configuration25resolve_effective_routingsh_0B7_
FN:261,_RNCNvNtNtCs3oCotP8OZr6_5synod6domain13configuration25resolve_effective_routingsi_0B7_
FNDA:1,_RNvNtNtNtCs3oCotP8OZr6_5synod6domain13configuration5testss_40review_role_falls_back_to_review_default
FNDA:1,_RNvNtNtNtCs3oCotP8OZr6_5synod6domain13configuration5testss_45cli_precedence_wins_over_workspace_and_global
FNDA:0,_RNvXs_NtNtCs3oCotP8OZr6_5synod6domain13configurationNtB4_11RuntimeKindNtNtCsl8K0bEFm1U0_4core3fmt7Display3fmt
FNDA:429,_RNvMNtNtCs3oCotP8OZr6_5synod6domain13configurationNtB2_11RuntimeKind6as_str
FNDA:3,_RNvMs0_NtNtCs3oCotP8OZr6_5synod6domain13configurationNtB5_10ModelRoute8validate
FNDA:0,_RNvMs1_NtNtCs3oCotP8OZr6_5synod6domain13configurationNtB5_13RoutingConfig10unset_slot
FNDA:0,_RNvMs1_NtNtCs3oCotP8OZr6_5synod6domain13configurationNtB5_13RoutingConfig8set_slot
FNDA:8,_RNvMs1_NtNtCs3oCotP8OZr6_5synod6domain13configurationNtB5_13RoutingConfig8validate
FNDA:220,_RNvNtNtCs3oCotP8OZr6_5synod6domain13configuration14resolve_single
FNDA:1,_RNvNtNtCs3oCotP8OZr6_5synod6domain13configuration15default_version
FNDA:44,_RNvNtNtCs3oCotP8OZr6_5synod6domain13configuration17built_in_defaults
FNDA:44,_RNvNtNtCs3oCotP8OZr6_5synod6domain13configuration25resolve_effective_routing
FNDA:1,_RNvXs2_NtNtCs3oCotP8OZr6_5synod6domain13configurationNtB5_10ConfigFileNtNtCsl8K0bEFm1U0_4core7default7Default7default
FNDA:2,_RNCNvNtNtCs3oCotP8OZr6_5synod6domain13configuration25resolve_effective_routing0B7_
FNDA:2,_RNCNvNtNtCs3oCotP8OZr6_5synod6domain13configuration25resolve_effective_routings0_0B7_
FNDA:2,_RNCNvNtNtCs3oCotP8OZr6_5synod6domain13configuration25resolve_effective_routings1_0B7_
FNDA:1,_RNCNvNtNtCs3oCotP8OZr6_5synod6domain13configuration25resolve_effective_routings2_0B7_
FNDA:2,_RNCNvNtNtCs3oCotP8OZr6_5synod6domain13configuration25resolve_effective_routings3_0B7_
FNDA:2,_RNCNvNtNtCs3oCotP8OZr6_5synod6domain13configuration25resolve_effective_routings4_0B7_
FNDA:1,_RNCNvNtNtCs3oCotP8OZr6_5synod6domain13configuration25resolve_effective_routings5_0B7_
FNDA:2,_RNCNvNtNtCs3oCotP8OZr6_5synod6domain13configuration25resolve_effective_routings6_0B7_
FNDA:2,_RNCNvNtNtCs3oCotP8OZr6_5synod6domain13configuration25resolve_effective_routings7_0B7_
FNDA:1,_RNCNvNtNtCs3oCotP8OZr6_5synod6domain13configuration25resolve_effective_routings8_0B7_
FNDA:2,_RNCNvNtNtCs3oCotP8OZr6_5synod6domain13configuration25resolve_effective_routings9_0B7_
FNDA:1,_RNCNvNtNtCs3oCotP8OZr6_5synod6domain13configuration25resolve_effective_routings_0B7_
FNDA:2,_RNCNvNtNtCs3oCotP8OZr6_5synod6domain13configuration25resolve_effective_routingsa_0B7_
FNDA:1,_RNCNvNtNtCs3oCotP8OZr6_5synod6domain13configuration25resolve_effective_routingsb_0B7_
FNDA:2,_RNCNvNtNtCs3oCotP8OZr6_5synod6domain13configuration25resolve_effective_routingsc_0B7_
FNDA:2,_RNCNvNtNtCs3oCotP8OZr6_5synod6domain13configuration25resolve_effective_routingsd_0B7_
FNDA:1,_RNCNvNtNtCs3oCotP8OZr6_5synod6domain13configuration25resolve_effective_routingse_0B7_
FNDA:2,_RNCNvNtNtCs3oCotP8OZr6_5synod6domain13configuration25resolve_effective_routingsf_0B7_
FNDA:0,_RNCNvNtNtCs3oCotP8OZr6_5synod6domain13configuration25resolve_effective_routingsg_0B7_
FNDA:0,_RNCNvNtNtCs3oCotP8OZr6_5synod6domain13configuration25resolve_effective_routingsh_0B7_
FNDA:0,_RNCNvNtNtCs3oCotP8OZr6_5synod6domain13configuration25resolve_effective_routingsi_0B7_
FNF:34
FNH:28
DA:18,429
DA:19,429
DA:20,86
DA:21,256
DA:22,86
DA:23,1
DA:25,429
DA:29,0
DA:30,0
DA:31,0
DA:75,3
DA:76,3
DA:77,1
DA:78,2
DA:79,2
DA:80,3
DA:102,8
DA:103,8
DA:104,8
DA:105,8
DA:106,8
DA:107,8
DA:108,8
DA:109,8
DA:110,8
DA:111,8
DA:113,3
DA:116,7
DA:117,0
DA:118,0
DA:119,0
DA:120,0
DA:121,0
DA:122,0
DA:125,7
DA:126,8
DA:128,0
DA:129,0
DA:130,0
DA:131,0
DA:132,0
DA:133,0
DA:135,0
DA:137,0
DA:138,0
DA:139,0
DA:140,0
DA:141,0
DA:142,0
DA:144,0
DA:156,1
DA:157,1
DA:158,1
DA:161,1
DA:162,1
DA:163,1
DA:200,44
DA:201,44
DA:202,44
DA:203,44
DA:204,44
DA:205,44
DA:206,44
DA:208,44
DA:209,44
DA:210,44
DA:211,44
DA:212,44
DA:213,44
DA:215,44
DA:216,44
DA:217,44
DA:218,44
DA:219,44
DA:220,44
DA:222,44
DA:223,44
DA:224,44
DA:225,44
DA:226,44
DA:227,44
DA:229,44
DA:230,44
DA:231,44
DA:232,44
DA:233,44
DA:234,44
DA:236,44
DA:237,44
DA:238,44
DA:239,44
DA:240,44
DA:241,44
DA:244,44
DA:245,44
DA:246,44
DA:247,44
DA:248,44
DA:249,44
DA:250,44
DA:251,44
DA:252,0
DA:253,0
DA:254,0
DA:256,44
DA:257,0
DA:258,0
DA:259,0
DA:260,0
DA:261,0
DA:262,0
DA:264,0
DA:267,44
DA:268,44
DA:269,44
DA:270,44
DA:271,44
DA:272,44
DA:273,44
DA:274,44
DA:275,44
DA:277,220
DA:278,220
DA:279,220
DA:280,220
DA:281,220
DA:282,220
DA:283,220
DA:284,220
DA:285,1
DA:286,219
DA:287,219
DA:288,1
DA:289,218
DA:290,218
DA:291,0
DA:292,218
DA:293,218
DA:294,0
DA:295,218
DA:296,218
DA:297,220
DA:307,44
DA:308,44
DA:309,44
DA:310,44
DA:311,44
DA:312,44
DA:313,44
DA:314,44
DA:315,44
DA:316,44
DA:317,44
DA:318,44
DA:336,1
DA:337,1
DA:338,1
DA:339,1
DA:340,1
DA:341,1
DA:342,1
DA:343,1
DA:344,1
DA:345,1
DA:346,1
DA:347,1
DA:348,1
DA:349,1
DA:350,1
DA:351,1
DA:352,1
DA:353,1
DA:354,1
DA:355,1
DA:356,1
DA:357,1
DA:359,1
DA:360,1
DA:361,1
DA:362,1
DA:365,1
DA:366,1
DA:367,1
DA:368,1
DA:369,1
DA:370,1
DA:371,1
DA:372,1
DA:373,1
DA:374,1
DA:376,1
DA:377,1
DA:378,1
DA:379,1
BRF:0
BRH:0
LF:215
LH:177
end_of_record
SF:/Users/rt/workspace/synod/src/domain/decision.rs
FN:62,_RINvMs_NtNtCs3oCotP8OZr6_5synod6domain8decisionNtB5_11EvidenceRef4filepEB9_
FN:58,_RINvMs_NtNtCs3oCotP8OZr6_5synod6domain8decisionNtB5_11EvidenceRef5tracepEB9_
FN:35,_RNvMNtNtCs3oCotP8OZr6_5synod6domain8decisionNtB2_14DecisionStatus11is_terminal
FN:119,_RNvMs0_NtNtCs3oCotP8OZr6_5synod6domain8decisionNtB5_8Decision8validate
FN:98,_RINvMs0_NtNtCs3oCotP8OZr6_5synod6domain8decisionNtB6_8Decision3newNtNtCs1OjIl8oxbrv_5alloc6string6StringB12_B12_EBa_
FN:98,_RINvMs0_NtNtCs3oCotP8OZr6_5synod6domain8decisionNtB6_8Decision3newReNtNtCs1OjIl8oxbrv_5alloc6string6StringB12_EBa_
FN:70,_RINvMs_NtNtCs3oCotP8OZr6_5synod6domain8decisionNtB5_11EvidenceRef11tool_outputRNtNtCs1OjIl8oxbrv_5alloc6string6StringEB9_
FN:66,_RINvMs_NtNtCs3oCotP8OZr6_5synod6domain8decisionNtB5_11EvidenceRef5canonINtNtCs1OjIl8oxbrv_5alloc6borrow3CoweEEB9_
FN:162,_RNvMs0_NtNtCs3oCotP8OZr6_5synod6domain8decisionNtB5_8Decision11mark_failed
FN:148,_RNvMs0_NtNtCs3oCotP8OZr6_5synod6domain8decisionNtB5_8Decision13mark_verified
FN:176,_RNvMs0_NtNtCs3oCotP8OZr6_5synod6domain8decisionNtB5_8Decision14mark_recovered
FN:136,_RNvMs0_NtNtCs3oCotP8OZr6_5synod6domain8decisionNtB5_8Decision15mark_dispatched
FN:189,_RNvMs0_NtNtCs3oCotP8OZr6_5synod6domain8decisionNtB5_8Decision23as_tool_output_evidence
FNDA:0,_RINvMs_NtNtCs3oCotP8OZr6_5synod6domain8decisionNtB5_11EvidenceRef4filepEB9_
FNDA:0,_RINvMs_NtNtCs3oCotP8OZr6_5synod6domain8decisionNtB5_11EvidenceRef5tracepEB9_
FNDA:0,_RNvMNtNtCs3oCotP8OZr6_5synod6domain8decisionNtB2_14DecisionStatus11is_terminal
FNDA:0,_RNvMs0_NtNtCs3oCotP8OZr6_5synod6domain8decisionNtB5_8Decision8validate
FNDA:12,_RINvMs0_NtNtCs3oCotP8OZr6_5synod6domain8decisionNtB6_8Decision3newNtNtCs1OjIl8oxbrv_5alloc6string6StringB12_B12_EBa_
FNDA:2,_RINvMs0_NtNtCs3oCotP8OZr6_5synod6domain8decisionNtB6_8Decision3newReNtNtCs1OjIl8oxbrv_5alloc6string6StringB12_EBa_
FNDA:12,_RINvMs_NtNtCs3oCotP8OZr6_5synod6domain8decisionNtB5_11EvidenceRef11tool_outputRNtNtCs1OjIl8oxbrv_5alloc6string6StringEB9_
FNDA:0,_RINvMs_NtNtCs3oCotP8OZr6_5synod6domain8decisionNtB5_11EvidenceRef5canonINtNtCs1OjIl8oxbrv_5alloc6borrow3CoweEEB9_
FNDA:0,_RNvMs0_NtNtCs3oCotP8OZr6_5synod6domain8decisionNtB5_8Decision11mark_failed
FNDA:14,_RNvMs0_NtNtCs3oCotP8OZr6_5synod6domain8decisionNtB5_8Decision13mark_verified
FNDA:0,_RNvMs0_NtNtCs3oCotP8OZr6_5synod6domain8decisionNtB5_8Decision14mark_recovered
FNDA:14,_RNvMs0_NtNtCs3oCotP8OZr6_5synod6domain8decisionNtB5_8Decision15mark_dispatched
FNDA:12,_RNvMs0_NtNtCs3oCotP8OZr6_5synod6domain8decisionNtB5_8Decision23as_tool_output_evidence
FNF:12
FNH:5
DA:35,0
DA:36,0
DA:37,0
DA:58,0
DA:59,0
DA:60,0
DA:62,0
DA:63,0
DA:64,0
DA:66,0
DA:67,0
DA:68,0
DA:70,12
DA:71,12
DA:72,12
DA:98,14
DA:99,14
DA:100,14
DA:101,14
DA:102,14
DA:103,14
DA:104,14
DA:105,14
DA:106,14
DA:107,14
DA:108,14
DA:109,14
DA:110,14
DA:111,14
DA:112,14
DA:113,14
DA:114,14
DA:115,14
DA:116,14
DA:117,14
DA:119,0
DA:120,0
DA:121,0
DA:122,0
DA:123,0
DA:124,0
DA:125,0
DA:126,0
DA:127,0
DA:128,0
DA:129,0
DA:130,0
DA:131,0
DA:132,0
DA:133,0
DA:136,14
DA:137,14
DA:138,0
DA:139,0
DA:140,0
DA:141,0
DA:142,14
DA:143,14
DA:144,14
DA:145,14
DA:148,14
DA:149,14
DA:150,0
DA:151,0
DA:152,0
DA:153,0
DA:154,14
DA:155,14
DA:156,14
DA:157,14
DA:158,14
DA:159,14
DA:162,0
DA:163,0
DA:164,0
DA:165,0
DA:166,0
DA:167,0
DA:168,0
DA:169,0
DA:170,0
DA:171,0
DA:172,0
DA:173,0
DA:176,0
DA:177,0
DA:178,0
DA:179,0
DA:180,0
DA:181,0
DA:182,0
DA:183,0
DA:184,0
DA:185,0
DA:186,0
DA:189,12
DA:190,12
DA:191,12
BRF:0
BRH:0
LF:98
LH:40
end_of_record
SF:/Users/rt/workspace/synod/src/domain/execution.rs
FN:305,_RNCNvMs4_NtNtCs3oCotP8OZr6_5synod6domain9executionNtB7_25WorkspaceExecutionProfile8validate0Bb_
FN:379,_RNCNvNtNtCs3oCotP8OZr6_5synod6domain9execution21is_workspace_relative0B7_
FN:27,_RNvMNtNtCs3oCotP8OZr6_5synod6domain9executionNtB2_16ExecutionCommand8rendered
FN:19,_RNvMNtNtCs3oCotP8OZr6_5synod6domain9executionNtB2_16ExecutionCommand8validate
FN:62,_RNvMs0_NtNtCs3oCotP8OZr6_5synod6domain9executionNtB5_15WorkspaceChange8validate
FN:91,_RNvMs1_NtNtCs3oCotP8OZr6_5synod6domain9executionNtB5_26ExecutionAttemptDefinition8validate
FN:120,_RNvMs2_NtNtCs3oCotP8OZr6_5synod6domain9executionNtB5_18AdaptiveChangeKind6as_str
FN:175,_RNvMs3_NtNtCs3oCotP8OZr6_5synod6domain9executionNtB5_24AdaptiveExecutionProfile22effective_change_kinds
FN:145,_RNvMs3_NtNtCs3oCotP8OZr6_5synod6domain9executionNtB5_24AdaptiveExecutionProfile8validate
FN:291,_RNvMs4_NtNtCs3oCotP8OZr6_5synod6domain9executionNtB5_25WorkspaceExecutionProfile8validate
FN:45,_RNvMs_NtNtCs3oCotP8OZr6_5synod6domain9executionNtB4_20ExecutionFailureMode14recoverability
FN:361,_RNvNtNtCs3oCotP8OZr6_5synod6domain9execution20default_failure_mode
FN:373,_RNvNtNtCs3oCotP8OZr6_5synod6domain9execution21is_workspace_relative
FN:365,_RNvNtNtCs3oCotP8OZr6_5synod6domain9execution28default_max_selected_targets
FN:369,_RNvNtNtCs3oCotP8OZr6_5synod6domain9execution30default_max_generated_attempts
FNDA:0,_RNCNvMs4_NtNtCs3oCotP8OZr6_5synod6domain9executionNtB7_25WorkspaceExecutionProfile8validate0Bb_
FNDA:226,_RNCNvNtNtCs3oCotP8OZr6_5synod6domain9execution21is_workspace_relative0B7_
FNDA:0,_RNvMNtNtCs3oCotP8OZr6_5synod6domain9executionNtB2_16ExecutionCommand8rendered
FNDA:52,_RNvMNtNtCs3oCotP8OZr6_5synod6domain9executionNtB2_16ExecutionCommand8validate
FNDA:55,_RNvMs0_NtNtCs3oCotP8OZr6_5synod6domain9executionNtB5_15WorkspaceChange8validate
FNDA:55,_RNvMs1_NtNtCs3oCotP8OZr6_5synod6domain9executionNtB5_26ExecutionAttemptDefinition8validate
FNDA:8,_RNvMs2_NtNtCs3oCotP8OZr6_5synod6domain9executionNtB5_18AdaptiveChangeKind6as_str
FNDA:0,_RNvMs3_NtNtCs3oCotP8OZr6_5synod6domain9executionNtB5_24AdaptiveExecutionProfile22effective_change_kinds
FNDA:0,_RNvMs3_NtNtCs3oCotP8OZr6_5synod6domain9executionNtB5_24AdaptiveExecutionProfile8validate
FNDA:52,_RNvMs4_NtNtCs3oCotP8OZr6_5synod6domain9executionNtB5_25WorkspaceExecutionProfile8validate
FNDA:1,_RNvMs_NtNtCs3oCotP8OZr6_5synod6domain9executionNtB4_20ExecutionFailureMode14recoverability
FNDA:0,_RNvNtNtCs3oCotP8OZr6_5synod6domain9execution20default_failure_mode
FNDA:116,_RNvNtNtCs3oCotP8OZr6_5synod6domain9execution21is_workspace_relative
FNDA:0,_RNvNtNtCs3oCotP8OZr6_5synod6domain9execution28default_max_selected_targets
FNDA:0,_RNvNtNtCs3oCotP8OZr6_5synod6domain9execution30default_max_generated_attempts
FNF:15
FNH:8
DA:19,52
DA:20,52
DA:21,0
DA:22,52
DA:24,52
DA:25,52
DA:27,0
DA:28,0
DA:29,0
DA:31,0
DA:33,0
DA:45,1
DA:46,1
DA:47,1
DA:48,0
DA:49,0
DA:51,1
DA:62,55
DA:63,55
DA:64,0
DA:65,55
DA:67,55
DA:68,0
DA:69,55
DA:71,55
DA:72,0
DA:73,55
DA:75,55
DA:76,55
DA:91,55
DA:92,55
DA:93,0
DA:94,55
DA:96,55
DA:97,0
DA:98,55
DA:100,55
DA:101,55
DA:104,55
DA:105,55
DA:120,8
DA:121,8
DA:122,1
DA:123,0
DA:124,0
DA:125,4
DA:126,1
DA:127,2
DA:129,8
DA:145,0
DA:146,0
DA:147,0
DA:148,0
DA:150,0
DA:151,0
DA:152,0
DA:154,0
DA:155,0
DA:156,0
DA:158,0
DA:159,0
DA:160,0
DA:161,0
DA:162,0
DA:163,0
DA:165,0
DA:166,0
DA:167,0
DA:168,0
DA:169,0
DA:172,0
DA:173,0
DA:175,0
DA:176,0
DA:177,0
DA:178,0
DA:179,0
DA:180,0
DA:181,0
DA:182,0
DA:183,0
DA:186,0
DA:188,0
DA:291,52
DA:292,52
DA:293,0
DA:294,52
DA:296,61
DA:297,61
DA:298,0
DA:299,61
DA:302,52
DA:303,52
DA:304,52
DA:305,52
DA:307,52
DA:308,0
DA:309,52
DA:311,52
DA:312,55
DA:313,55
DA:314,55
DA:315,0
DA:316,55
DA:319,52
DA:320,0
DA:321,52
DA:323,52
DA:324,12
DA:325,40
DA:327,52
DA:328,13
DA:329,39
DA:331,52
DA:332,52
DA:361,0
DA:362,0
DA:363,0
DA:365,0
DA:366,0
DA:367,0
DA:369,0
DA:370,0
DA:371,0
DA:373,116
DA:374,116
DA:375,116
DA:376,0
DA:377,116
DA:379,226
DA:380,116
BRF:0
BRH:0
LF:133
LH:68
end_of_record
SF:/Users/rt/workspace/synod/src/domain/flow.rs
FN:119,_RNCNvMs_NtNtCs3oCotP8OZr6_5synod6domain4flowNtB6_16SessionFlowState7advance0Ba_
FN:116,_RNvMs_NtNtCs3oCotP8OZr6_5synod6domain4flowNtB4_16SessionFlowState7advance
FN:68,_RNvNtNtCs3oCotP8OZr6_5synod6domain4flow20supported_flow_names
FN:87,_RNCNvMs_NtNtCs3oCotP8OZr6_5synod6domain4flowNtB6_16SessionFlowState8validate0Ba_
FN:97,_RNCNvMs_NtNtCs3oCotP8OZr6_5synod6domain4flowNtB6_16SessionFlowState8validates_0Ba_
FN:65,_RNCNvNtNtCs3oCotP8OZr6_5synod6domain4flow13built_in_flow0B7_
FN:197,_RNCNvNtNtCs3oCotP8OZr6_5synod6domain4flow21attach_stage_metadata0B7_
FN:202,_RNCNvNtNtCs3oCotP8OZr6_5synod6domain4flow21attach_stage_metadatas_0B7_
FN:27,_RNvMNtNtCs3oCotP8OZr6_5synod6domain4flowNtB2_14FlowDefinition13initial_state
FN:23,_RNvMNtNtCs3oCotP8OZr6_5synod6domain4flowNtB2_14FlowDefinition5stage
FN:149,_RNvMs0_NtNtCs3oCotP8OZr6_5synod6domain4flowNtB5_16FlowStepMetadata10from_value
FN:180,_RNvMs0_NtNtCs3oCotP8OZr6_5synod6domain4flowNtB5_16FlowStepMetadata8validate
FN:141,_RNvMs0_NtNtCs3oCotP8OZr6_5synod6domain4flowNtB5_16FlowStepMetadata9from_step
FN:85,_RNvMs_NtNtCs3oCotP8OZr6_5synod6domain4flowNtB4_16SessionFlowState8validate
FN:64,_RNvNtNtCs3oCotP8OZr6_5synod6domain4flow13built_in_flow
FN:191,_RNvNtNtCs3oCotP8OZr6_5synod6domain4flow21attach_stage_metadata
FN:72,_RNvNtNtCs3oCotP8OZr6_5synod6domain4flow24supported_flow_names_csv
FNDA:0,_RNCNvMs_NtNtCs3oCotP8OZr6_5synod6domain4flowNtB6_16SessionFlowState7advance0Ba_
FNDA:0,_RNvMs_NtNtCs3oCotP8OZr6_5synod6domain4flowNtB4_16SessionFlowState7advance
FNDA:0,_RNvNtNtCs3oCotP8OZr6_5synod6domain4flow20supported_flow_names
FNDA:0,_RNCNvMs_NtNtCs3oCotP8OZr6_5synod6domain4flowNtB6_16SessionFlowState8validate0Ba_
FNDA:0,_RNCNvMs_NtNtCs3oCotP8OZr6_5synod6domain4flowNtB6_16SessionFlowState8validates_0Ba_
FNDA:212,_RNCNvNtNtCs3oCotP8OZr6_5synod6domain4flow13built_in_flow0B7_
FNDA:0,_RNCNvNtNtCs3oCotP8OZr6_5synod6domain4flow21attach_stage_metadata0B7_
FNDA:0,_RNCNvNtNtCs3oCotP8OZr6_5synod6domain4flow21attach_stage_metadatas_0B7_
FNDA:21,_RNvMNtNtCs3oCotP8OZr6_5synod6domain4flowNtB2_14FlowDefinition13initial_state
FNDA:234,_RNvMNtNtCs3oCotP8OZr6_5synod6domain4flowNtB2_14FlowDefinition5stage
FNDA:68,_RNvMs0_NtNtCs3oCotP8OZr6_5synod6domain4flowNtB5_16FlowStepMetadata10from_value
FNDA:68,_RNvMs0_NtNtCs3oCotP8OZr6_5synod6domain4flowNtB5_16FlowStepMetadata8validate
FNDA:67,_RNvMs0_NtNtCs3oCotP8OZr6_5synod6domain4flowNtB5_16FlowStepMetadata9from_step
FNDA:115,_RNvMs_NtNtCs3oCotP8OZr6_5synod6domain4flowNtB4_16SessionFlowState8validate
FNDA:203,_RNvNtNtCs3oCotP8OZr6_5synod6domain4flow13built_in_flow
FNDA:117,_RNvNtNtCs3oCotP8OZr6_5synod6domain4flow21attach_stage_metadata
FNDA:0,_RNvNtNtCs3oCotP8OZr6_5synod6domain4flow24supported_flow_names_csv
FNF:17
FNH:9
DA:23,234
DA:24,234
DA:25,234
DA:27,21
DA:28,21
DA:29,21
DA:30,21
DA:31,21
DA:32,21
DA:33,21
DA:34,21
DA:64,203
DA:65,212
DA:66,203
DA:68,0
DA:69,0
DA:70,0
DA:72,0
DA:73,0
DA:74,0
DA:85,115
DA:86,115
DA:87,115
DA:89,115
DA:90,0
DA:91,0
DA:92,0
DA:93,0
DA:94,0
DA:95,115
DA:97,115
DA:98,0
DA:99,0
DA:100,0
DA:101,0
DA:102,0
DA:103,0
DA:105,115
DA:106,0
DA:107,0
DA:108,0
DA:109,0
DA:110,0
DA:111,115
DA:113,115
DA:114,115
DA:116,0
DA:117,0
DA:118,0
DA:119,0
DA:121,0
DA:122,0
DA:123,0
DA:126,0
DA:127,0
DA:128,0
DA:129,0
DA:141,67
DA:142,67
DA:143,12
DA:146,55
DA:147,67
DA:149,68
DA:150,68
DA:151,0
DA:152,68
DA:154,68
DA:155,68
DA:156,68
DA:157,68
DA:158,68
DA:159,68
DA:160,68
DA:161,68
DA:162,68
DA:163,68
DA:164,68
DA:165,68
DA:166,68
DA:167,68
DA:169,68
DA:170,68
DA:171,68
DA:172,68
DA:175,68
DA:176,68
DA:177,68
DA:178,68
DA:180,68
DA:181,68
DA:182,68
DA:183,68
DA:184,68
DA:185,68
DA:186,68
DA:187,68
DA:188,68
DA:191,117
DA:192,117
DA:193,117
DA:194,117
DA:195,117
DA:196,117
DA:197,0
DA:198,0
DA:199,0
DA:200,0
DA:202,117
DA:203,0
DA:204,0
DA:205,117
DA:206,117
DA:207,117
DA:208,117
DA:209,117
DA:210,117
DA:211,117
DA:214,117
DA:215,117
BRF:0
BRH:0
LF:127
LH:80
end_of_record
SF:/Users/rt/workspace/synod/src/domain/flow_policy.rs
FN:82,_RNCNvMs_NtNtCs3oCotP8OZr6_5synod6domain11flow_policyNtB6_10FlowPolicy10is_allowed0Ba_
FN:45,_RNCNvMs_NtNtCs3oCotP8OZr6_5synod6domain11flow_policyNtB6_10FlowPolicy12from_builtin0Ba_
FN:54,_RNCNvMs_NtNtCs3oCotP8OZr6_5synod6domain11flow_policyNtB6_10FlowPolicy15from_definition0Ba_
FN:77,_RNCNvMs_NtNtCs3oCotP8OZr6_5synod6domain11flow_policyNtB6_10FlowPolicy14stage_progress0Ba_
FN:73,_RNCNvMs_NtNtCs3oCotP8OZr6_5synod6domain11flow_policyNtB6_10FlowPolicy16current_stage_id0Ba_
FN:96,_RNvMs_NtNtCs3oCotP8OZr6_5synod6domain11flow_policyNtB4_10FlowPolicy14is_final_stage
FN:76,_RNvMs_NtNtCs3oCotP8OZr6_5synod6domain11flow_policyNtB4_10FlowPolicy14stage_progress
FN:72,_RNvMs_NtNtCs3oCotP8OZr6_5synod6domain11flow_policyNtB4_10FlowPolicy16current_stage_id
FN:28,_RNvMNtNtCs3oCotP8OZr6_5synod6domain11flow_policyNtB2_11StagePolicy6allows
FN:81,_RNvMs_NtNtCs3oCotP8OZr6_5synod6domain11flow_policyNtB4_10FlowPolicy10is_allowed
FN:43,_RNvMs_NtNtCs3oCotP8OZr6_5synod6domain11flow_policyNtB4_10FlowPolicy12from_builtin
FN:86,_RNvMs_NtNtCs3oCotP8OZr6_5synod6domain11flow_policyNtB4_10FlowPolicy13advance_stage
FN:68,_RNvMs_NtNtCs3oCotP8OZr6_5synod6domain11flow_policyNtB4_10FlowPolicy13current_stage
FN:50,_RNvMs_NtNtCs3oCotP8OZr6_5synod6domain11flow_policyNtB4_10FlowPolicy15from_definition
FN:100,_RNvMs_NtNtCs3oCotP8OZr6_5synod6domain11flow_policyNtB4_10FlowPolicy8validate
FN:125,_RNvNtNtCs3oCotP8OZr6_5synod6domain11flow_policy27allowed_decisions_for_stage
FNDA:12,_RNCNvMs_NtNtCs3oCotP8OZr6_5synod6domain11flow_policyNtB6_10FlowPolicy10is_allowed0Ba_
FNDA:0,_RNCNvMs_NtNtCs3oCotP8OZr6_5synod6domain11flow_policyNtB6_10FlowPolicy12from_builtin0Ba_
FNDA:21,_RNCNvMs_NtNtCs3oCotP8OZr6_5synod6domain11flow_policyNtB6_10FlowPolicy15from_definition0Ba_
FNDA:0,_RNCNvMs_NtNtCs3oCotP8OZr6_5synod6domain11flow_policyNtB6_10FlowPolicy14stage_progress0Ba_
FNDA:0,_RNCNvMs_NtNtCs3oCotP8OZr6_5synod6domain11flow_policyNtB6_10FlowPolicy16current_stage_id0Ba_
FNDA:0,_RNvMs_NtNtCs3oCotP8OZr6_5synod6domain11flow_policyNtB4_10FlowPolicy14is_final_stage
FNDA:0,_RNvMs_NtNtCs3oCotP8OZr6_5synod6domain11flow_policyNtB4_10FlowPolicy14stage_progress
FNDA:0,_RNvMs_NtNtCs3oCotP8OZr6_5synod6domain11flow_policyNtB4_10FlowPolicy16current_stage_id
FNDA:12,_RNvMNtNtCs3oCotP8OZr6_5synod6domain11flow_policyNtB2_11StagePolicy6allows
FNDA:12,_RNvMs_NtNtCs3oCotP8OZr6_5synod6domain11flow_policyNtB4_10FlowPolicy10is_allowed
FNDA:7,_RNvMs_NtNtCs3oCotP8OZr6_5synod6domain11flow_policyNtB4_10FlowPolicy12from_builtin
FNDA:12,_RNvMs_NtNtCs3oCotP8OZr6_5synod6domain11flow_policyNtB4_10FlowPolicy13advance_stage
FNDA:12,_RNvMs_NtNtCs3oCotP8OZr6_5synod6domain11flow_policyNtB4_10FlowPolicy13current_stage
FNDA:7,_RNvMs_NtNtCs3oCotP8OZr6_5synod6domain11flow_policyNtB4_10FlowPolicy15from_definition
FNDA:12,_RNvMs_NtNtCs3oCotP8OZr6_5synod6domain11flow_policyNtB4_10FlowPolicy8validate
FNDA:21,_RNvNtNtCs3oCotP8OZr6_5synod6domain11flow_policy27allowed_decisions_for_stage
FNF:16
FNH:10
DA:28,12
DA:29,12
DA:30,12
DA:43,7
DA:44,7
DA:45,7
DA:46,7
DA:47,7
DA:50,7
DA:51,7
DA:52,7
DA:53,7
DA:54,21
DA:55,21
DA:56,21
DA:57,21
DA:58,21
DA:59,21
DA:60,21
DA:61,21
DA:62,7
DA:64,7
DA:65,7
DA:68,12
DA:69,12
DA:70,12
DA:72,0
DA:73,0
DA:74,0
DA:76,0
DA:77,0
DA:78,0
DA:81,12
DA:82,12
DA:83,12
DA:86,12
DA:87,12
DA:88,12
DA:89,4
DA:90,8
DA:91,8
DA:92,8
DA:93,12
DA:96,0
DA:97,0
DA:98,0
DA:100,12
DA:101,12
DA:102,0
DA:103,12
DA:104,12
DA:105,0
DA:106,12
DA:107,12
DA:108,0
DA:109,0
DA:110,0
DA:111,0
DA:112,12
DA:113,36
DA:114,36
DA:115,0
DA:116,0
DA:117,0
DA:118,36
DA:120,12
DA:121,12
DA:125,21
DA:126,21
DA:128,21
DA:129,12
DA:130,6
DA:132,3
DA:133,2
DA:134,1
DA:136,0
DA:137,0
DA:138,0
DA:139,0
DA:140,0
DA:143,0
DA:144,0
DA:145,0
DA:146,0
DA:147,0
DA:148,0
DA:151,21
BRF:0
BRH:0
LF:92
LH:60
end_of_record
SF:/Users/rt/workspace/synod/src/domain/follow_through.rs
FN:192,_RNvNtNtNtCs3oCotP8OZr6_5synod6domain14follow_through5testss_43derives_recovery_guidance_from_session_view
FN:26,_RNvMNtNtCs3oCotP8OZr6_5synod6domain14follow_throughNtB2_23FollowThroughProjection16projection_lines
FN:43,_RNvMNtNtCs3oCotP8OZr6_5synod6domain14follow_throughNtB2_23FollowThroughProjection17from_session_view
FN:127,_RNvMNtNtCs3oCotP8OZr6_5synod6domain14follow_throughNtB2_23FollowThroughProjection18from_trace_summary
FN:173,_RNvMNtNtCs3oCotP8OZr6_5synod6domain14follow_throughNtB2_23FollowThroughProjection28from_compatibility_follow_up
FN:19,_RNvMNtNtCs3oCotP8OZr6_5synod6domain14follow_throughNtB2_23FollowThroughProjection8is_empty
FNDA:1,_RNvNtNtNtCs3oCotP8OZr6_5synod6domain14follow_through5testss_43derives_recovery_guidance_from_session_view
FNDA:29,_RNvMNtNtCs3oCotP8OZr6_5synod6domain14follow_throughNtB2_23FollowThroughProjection16projection_lines
FNDA:27,_RNvMNtNtCs3oCotP8OZr6_5synod6domain14follow_throughNtB2_23FollowThroughProjection17from_session_view
FNDA:4,_RNvMNtNtCs3oCotP8OZr6_5synod6domain14follow_throughNtB2_23FollowThroughProjection18from_trace_summary
FNDA:0,_RNvMNtNtCs3oCotP8OZr6_5synod6domain14follow_throughNtB2_23FollowThroughProjection28from_compatibility_follow_up
FNDA:30,_RNvMNtNtCs3oCotP8OZr6_5synod6domain14follow_throughNtB2_23FollowThroughProjection8is_empty
FNF:6
FNH:5
DA:19,30
DA:20,30
DA:21,1
DA:22,1
DA:23,1
DA:24,30
DA:26,29
DA:27,29
DA:28,29
DA:29,29
DA:30,29
DA:31,29
DA:32,29
DA:33,29
DA:34,29
DA:35,29
DA:36,29
DA:37,29
DA:38,0
DA:39,29
DA:40,29
DA:41,29
DA:43,27
DA:44,27
DA:45,0
DA:47,0
DA:48,0
DA:49,0
DA:50,0
DA:51,0
DA:52,0
DA:53,0
DA:54,0
DA:55,0
DA:56,27
DA:58,27
DA:59,1
DA:60,1
DA:61,1
DA:62,1
DA:63,1
DA:64,1
DA:65,1
DA:66,1
DA:67,26
DA:69,26
DA:70,0
DA:71,0
DA:72,0
DA:73,0
DA:74,0
DA:75,0
DA:76,0
DA:77,0
DA:78,0
DA:79,26
DA:81,26
DA:82,1
DA:83,1
DA:84,1
DA:85,1
DA:86,1
DA:87,1
DA:88,25
DA:90,25
DA:91,0
DA:92,0
DA:93,0
DA:94,0
DA:95,0
DA:96,0
DA:97,0
DA:98,0
DA:99,25
DA:101,25
DA:102,4
DA:103,4
DA:104,4
DA:105,4
DA:106,4
DA:107,4
DA:108,4
DA:109,4
DA:110,4
DA:111,21
DA:113,21
DA:114,20
DA:115,20
DA:116,20
DA:117,20
DA:118,20
DA:119,20
DA:120,20
DA:121,20
DA:122,1
DA:124,1
DA:125,27
DA:127,4
DA:128,4
DA:129,1
DA:130,1
DA:131,1
DA:132,1
DA:133,1
DA:134,1
DA:135,1
DA:136,1
DA:137,3
DA:139,3
DA:140,1
DA:141,1
DA:142,1
DA:143,1
DA:144,1
DA:145,1
DA:146,2
DA:148,2
DA:149,0
DA:150,0
DA:151,0
DA:152,0
DA:153,0
DA:154,0
DA:155,0
DA:156,0
DA:157,2
DA:159,2
DA:160,2
DA:161,2
DA:162,2
DA:163,2
DA:164,2
DA:165,2
DA:166,2
DA:167,2
DA:168,0
DA:170,0
DA:171,4
DA:173,0
DA:174,0
DA:175,0
DA:176,0
DA:177,0
DA:178,0
DA:179,0
DA:180,0
DA:181,0
DA:182,0
DA:183,0
DA:192,1
DA:193,1
DA:194,1
DA:195,1
DA:196,1
DA:197,1
DA:198,1
DA:199,1
DA:200,1
DA:201,1
DA:202,1
DA:203,1
DA:204,1
DA:205,1
DA:206,1
DA:207,1
DA:208,1
DA:209,1
DA:210,1
DA:211,1
DA:212,1
DA:213,1
DA:214,1
DA:215,1
DA:216,1
DA:217,1
DA:218,1
DA:219,1
DA:220,1
DA:221,1
DA:222,1
DA:223,1
DA:224,1
DA:225,1
DA:226,1
DA:227,1
DA:228,1
DA:229,1
DA:230,1
DA:231,1
DA:232,1
DA:233,1
DA:234,1
DA:235,1
DA:236,1
DA:237,1
DA:238,1
DA:239,1
DA:240,1
DA:241,1
DA:242,1
DA:243,1
DA:244,1
DA:245,1
DA:246,1
DA:247,1
DA:248,1
DA:249,1
DA:250,1
DA:251,1
DA:252,1
DA:253,1
DA:254,1
DA:255,1
DA:256,1
DA:257,1
DA:258,1
DA:259,1
DA:261,1
DA:263,1
DA:265,1
DA:266,1
DA:267,1
BRF:0
BRH:0
LF:222
LH:173
end_of_record
SF:/Users/rt/workspace/synod/src/domain/goal_plan.rs
FN:260,_RNCNvMs1_NtNtCs3oCotP8OZr6_5synod6domain9goal_planNtB7_8GoalPlan13workflow_name0Bb_
FN:259,_RNvMs1_NtNtCs3oCotP8OZr6_5synod6domain9goal_planNtB5_8GoalPlan13workflow_name
FN:263,_RNvMs1_NtNtCs3oCotP8OZr6_5synod6domain9goal_planNtB5_8GoalPlan19workflow_phase_text
FN:267,_RNvMs1_NtNtCs3oCotP8OZr6_5synod6domain9goal_planNtB5_8GoalPlan20workflow_next_action
FN:214,_RNvMs1_NtNtCs3oCotP8OZr6_5synod6domain9goal_planNtB5_8GoalPlan22with_workflow_progress
FN:187,_RNvMs1_NtNtCs3oCotP8OZr6_5synod6domain9goal_planNtB5_8GoalPlan9supersede
FN:50,_RNvMNtNtCs3oCotP8OZr6_5synod6domain9goal_planNtB2_16GoalPlanFlowMode6as_str
FN:94,_RNvMs0_NtNtCs3oCotP8OZr6_5synod6domain9goal_planNtB5_11PlannedTask8validate
FN:236,_RNvMs1_NtNtCs3oCotP8OZr6_5synod6domain9goal_planNtB5_8GoalPlan10flow_state
FN:198,_RNvMs1_NtNtCs3oCotP8OZr6_5synod6domain9goal_planNtB5_8GoalPlan12with_signals
FN:209,_RNvMs1_NtNtCs3oCotP8OZr6_5synod6domain9goal_planNtB5_8GoalPlan13with_evidence
FN:231,_RNvMs1_NtNtCs3oCotP8OZr6_5synod6domain9goal_planNtB5_8GoalPlan17mark_flow_skipped
FN:176,_RNvMs1_NtNtCs3oCotP8OZr6_5synod6domain9goal_planNtB5_8GoalPlan7confirm
FN:158,_RNvMs1_NtNtCs3oCotP8OZr6_5synod6domain9goal_planNtB5_8GoalPlan8validate
FN:203,_RNvMs1_NtNtCs3oCotP8OZr6_5synod6domain9goal_planNtB5_8GoalPlan9with_flow
FN:70,_RNvMs_NtNtCs3oCotP8OZr6_5synod6domain9goal_planNtB4_17GoalPlanFlowState12summary_text
FN:219,_RINvMs1_NtNtCs3oCotP8OZr6_5synod6domain9goal_planNtB6_8GoalPlan27with_negotiation_projectionNtNtCs1OjIl8oxbrv_5alloc6string6StringReB1s_EBa_
FN:135,_RINvMs1_NtNtCs3oCotP8OZr6_5synod6domain9goal_planNtB6_8GoalPlan3newReEBa_
FN:171,_RNCNvMs1_NtNtCs3oCotP8OZr6_5synod6domain9goal_planNtB7_8GoalPlan8validate0Bb_
FNDA:0,_RNCNvMs1_NtNtCs3oCotP8OZr6_5synod6domain9goal_planNtB7_8GoalPlan13workflow_name0Bb_
FNDA:0,_RNvMs1_NtNtCs3oCotP8OZr6_5synod6domain9goal_planNtB5_8GoalPlan13workflow_name
FNDA:0,_RNvMs1_NtNtCs3oCotP8OZr6_5synod6domain9goal_planNtB5_8GoalPlan19workflow_phase_text
FNDA:0,_RNvMs1_NtNtCs3oCotP8OZr6_5synod6domain9goal_planNtB5_8GoalPlan20workflow_next_action
FNDA:0,_RNvMs1_NtNtCs3oCotP8OZr6_5synod6domain9goal_planNtB5_8GoalPlan22with_workflow_progress
FNDA:0,_RNvMs1_NtNtCs3oCotP8OZr6_5synod6domain9goal_planNtB5_8GoalPlan9supersede
FNDA:10,_RNvMNtNtCs3oCotP8OZr6_5synod6domain9goal_planNtB2_16GoalPlanFlowMode6as_str
FNDA:42,_RNvMs0_NtNtCs3oCotP8OZr6_5synod6domain9goal_planNtB5_11PlannedTask8validate
FNDA:55,_RNvMs1_NtNtCs3oCotP8OZr6_5synod6domain9goal_planNtB5_8GoalPlan10flow_state
FNDA:10,_RNvMs1_NtNtCs3oCotP8OZr6_5synod6domain9goal_planNtB5_8GoalPlan12with_signals
FNDA:10,_RNvMs1_NtNtCs3oCotP8OZr6_5synod6domain9goal_planNtB5_8GoalPlan13with_evidence
FNDA:0,_RNvMs1_NtNtCs3oCotP8OZr6_5synod6domain9goal_planNtB5_8GoalPlan17mark_flow_skipped
FNDA:11,_RNvMs1_NtNtCs3oCotP8OZr6_5synod6domain9goal_planNtB5_8GoalPlan7confirm
FNDA:25,_RNvMs1_NtNtCs3oCotP8OZr6_5synod6domain9goal_planNtB5_8GoalPlan8validate
FNDA:1,_RNvMs1_NtNtCs3oCotP8OZr6_5synod6domain9goal_planNtB5_8GoalPlan9with_flow
FNDA:10,_RNvMs_NtNtCs3oCotP8OZr6_5synod6domain9goal_planNtB4_17GoalPlanFlowState12summary_text
FNDA:10,_RINvMs1_NtNtCs3oCotP8OZr6_5synod6domain9goal_planNtB6_8GoalPlan27with_negotiation_projectionNtNtCs1OjIl8oxbrv_5alloc6string6StringReB1s_EBa_
FNDA:25,_RINvMs1_NtNtCs3oCotP8OZr6_5synod6domain9goal_planNtB6_8GoalPlan3newReEBa_
FNDA:0,_RNCNvMs1_NtNtCs3oCotP8OZr6_5synod6domain9goal_planNtB7_8GoalPlan8validate0Bb_
FNF:19
FNH:11
DA:50,10
DA:51,10
DA:52,2
DA:53,7
DA:54,0
DA:55,1
DA:57,10
DA:70,10
DA:71,10
DA:72,9
DA:73,9
DA:75,0
DA:76,1
DA:78,10
DA:94,42
DA:95,42
DA:96,0
DA:97,42
DA:98,42
DA:99,0
DA:100,42
DA:101,42
DA:102,0
DA:103,42
DA:104,42
DA:105,42
DA:135,25
DA:136,25
DA:137,25
DA:138,25
DA:139,25
DA:140,25
DA:141,25
DA:142,25
DA:143,25
DA:144,25
DA:145,25
DA:146,25
DA:147,25
DA:148,25
DA:149,25
DA:150,25
DA:151,25
DA:152,25
DA:153,25
DA:154,25
DA:155,25
DA:156,25
DA:158,25
DA:159,25
DA:160,0
DA:161,25
DA:162,25
DA:163,0
DA:164,25
DA:165,42
DA:166,42
DA:168,25
DA:169,0
DA:170,0
DA:171,0
DA:172,25
DA:173,25
DA:174,25
DA:176,11
DA:177,11
DA:178,0
DA:179,0
DA:180,0
DA:181,0
DA:182,11
DA:183,11
DA:184,11
DA:185,11
DA:187,0
DA:188,0
DA:189,0
DA:190,0
DA:191,0
DA:192,0
DA:193,0
DA:194,0
DA:195,0
DA:196,0
DA:198,10
DA:199,10
DA:200,10
DA:201,10
DA:203,1
DA:204,1
DA:205,1
DA:206,1
DA:207,1
DA:209,10
DA:210,10
DA:211,10
DA:212,10
DA:214,0
DA:215,0
DA:216,0
DA:217,0
DA:219,10
DA:220,10
DA:221,10
DA:222,10
DA:223,10
DA:224,10
DA:225,10
DA:226,10
DA:227,10
DA:228,10
DA:229,10
DA:231,0
DA:232,0
DA:233,0
DA:234,0
DA:236,55
DA:237,55
DA:238,30
DA:239,30
DA:240,25
DA:242,5
DA:244,30
DA:245,30
DA:248,25
DA:249,0
DA:251,25
DA:253,25
DA:254,25
DA:257,55
DA:259,0
DA:260,0
DA:261,0
DA:263,0
DA:264,0
DA:265,0
DA:267,0
DA:268,0
DA:269,0
BRF:0
BRH:0
LF:141
LH:97
end_of_record
SF:/Users/rt/workspace/synod/src/domain/governance.rs
FN:499,_RNvNtNtCs3oCotP8OZr6_5synod6domain10governance21autopilot_action_text
FN:154,_RNvMs0_NtNtCs3oCotP8OZr6_5synod6domain10governanceNtB5_18CanonRuntimeConfig8validate
FN:192,_RNvMs1_NtNtCs3oCotP8OZr6_5synod6domain10governanceNtB5_21StageGovernancePolicy17effective_runtime
FN:199,_RNvMs1_NtNtCs3oCotP8OZr6_5synod6domain10governanceNtB5_21StageGovernancePolicy8validate
FN:188,_RNvMs1_NtNtCs3oCotP8OZr6_5synod6domain10governanceNtB5_21StageGovernancePolicy9stage_key
FN:327,_RNvMs2_NtNtCs3oCotP8OZr6_5synod6domain10governanceNtB5_17GovernanceProfile12stage_policy
FN:301,_RNvMs2_NtNtCs3oCotP8OZr6_5synod6domain10governanceNtB5_17GovernanceProfile8validate
FN:52,_RNvMs_NtNtCs3oCotP8OZr6_5synod6domain10governanceNtB4_9CanonMode21primary_document_name
FN:78,_RNvMs_NtNtCs3oCotP8OZr6_5synod6domain10governanceNtB4_9CanonMode22expected_document_refs
FN:66,_RNvMs_NtNtCs3oCotP8OZr6_5synod6domain10governanceNtB4_9CanonMode25requires_existing_context
FN:113,_RNvNtNtCs3oCotP8OZr6_5synod6domain10governance19resolved_canon_mode
FN:127,_RNvNtNtCs3oCotP8OZr6_5synod6domain10governance21candidate_canon_modes
FN:459,_RNvNtNtCs3oCotP8OZr6_5synod6domain10governance21resolve_document_path
FN:365,_RNvNtNtCs3oCotP8OZr6_5synod6domain10governance25classify_packet_readiness
FN:431,_RNvNtNtCs3oCotP8OZr6_5synod6domain10governance26document_has_authored_body
FN:410,_RNvNtNtCs3oCotP8OZr6_5synod6domain10governance31derived_packet_missing_sections
FN:97,_RNvNtNtCs3oCotP8OZr6_5synod6domain10governance31supported_canon_modes_for_stage
FN:20,_RNvXNtNtCs3oCotP8OZr6_5synod6domain10governanceNtB2_21GovernanceRuntimeKindNtNtCsl8K0bEFm1U0_4core3fmt7Display3fmt
FN:213,_RNCNvMs1_NtNtCs3oCotP8OZr6_5synod6domain10governanceNtB7_21StageGovernancePolicy8validate0Bb_
FN:226,_RNCNvMs1_NtNtCs3oCotP8OZr6_5synod6domain10governanceNtB7_21StageGovernancePolicy8validates0_0Bb_
FN:273,_RNCNvMs1_NtNtCs3oCotP8OZr6_5synod6domain10governanceNtB7_21StageGovernancePolicy8validates1_0Bb_
FN:214,_RNCNvMs1_NtNtCs3oCotP8OZr6_5synod6domain10governanceNtB7_21StageGovernancePolicy8validates_0Bb_
FN:330,_RNCNvMs2_NtNtCs3oCotP8OZr6_5synod6domain10governanceNtB7_17GovernanceProfile12stage_policy0Bb_
FN:303,_RNCNvMs2_NtNtCs3oCotP8OZr6_5synod6domain10governanceNtB7_17GovernanceProfile8validate0Bb_
FN:121,_RNCNvNtNtCs3oCotP8OZr6_5synod6domain10governance19resolved_canon_mode0B7_
FN:383,_RNCNvNtNtCs3oCotP8OZr6_5synod6domain10governance25classify_packet_readiness0B7_
FN:393,_RNCNvNtNtCs3oCotP8OZr6_5synod6domain10governance25classify_packet_readinesss_0B7_
FN:437,_RNCNvNtNtCs3oCotP8OZr6_5synod6domain10governance26document_has_authored_body0B7_
FN:419,_RNCNvNtNtCs3oCotP8OZr6_5synod6domain10governance31derived_packet_missing_sections0B7_
FNDA:0,_RNvNtNtCs3oCotP8OZr6_5synod6domain10governance21autopilot_action_text
FNDA:13,_RNvMs0_NtNtCs3oCotP8OZr6_5synod6domain10governanceNtB5_18CanonRuntimeConfig8validate
FNDA:38,_RNvMs1_NtNtCs3oCotP8OZr6_5synod6domain10governanceNtB5_21StageGovernancePolicy17effective_runtime
FNDA:13,_RNvMs1_NtNtCs3oCotP8OZr6_5synod6domain10governanceNtB5_21StageGovernancePolicy8validate
FNDA:13,_RNvMs1_NtNtCs3oCotP8OZr6_5synod6domain10governanceNtB5_21StageGovernancePolicy9stage_key
FNDA:8,_RNvMs2_NtNtCs3oCotP8OZr6_5synod6domain10governanceNtB5_17GovernanceProfile12stage_policy
FNDA:13,_RNvMs2_NtNtCs3oCotP8OZr6_5synod6domain10governanceNtB5_17GovernanceProfile8validate
FNDA:0,_RNvMs_NtNtCs3oCotP8OZr6_5synod6domain10governanceNtB4_9CanonMode21primary_document_name
FNDA:0,_RNvMs_NtNtCs3oCotP8OZr6_5synod6domain10governanceNtB4_9CanonMode22expected_document_refs
FNDA:6,_RNvMs_NtNtCs3oCotP8OZr6_5synod6domain10governanceNtB4_9CanonMode25requires_existing_context
FNDA:5,_RNvNtNtCs3oCotP8OZr6_5synod6domain10governance19resolved_canon_mode
FNDA:1,_RNvNtNtCs3oCotP8OZr6_5synod6domain10governance21candidate_canon_modes
FNDA:3,_RNvNtNtCs3oCotP8OZr6_5synod6domain10governance21resolve_document_path
FNDA:1,_RNvNtNtCs3oCotP8OZr6_5synod6domain10governance25classify_packet_readiness
FNDA:3,_RNvNtNtCs3oCotP8OZr6_5synod6domain10governance26document_has_authored_body
FNDA:2,_RNvNtNtCs3oCotP8OZr6_5synod6domain10governance31derived_packet_missing_sections
FNDA:16,_RNvNtNtCs3oCotP8OZr6_5synod6domain10governance31supported_canon_modes_for_stage
FNDA:0,_RNvXNtNtCs3oCotP8OZr6_5synod6domain10governanceNtB2_21GovernanceRuntimeKindNtNtCsl8K0bEFm1U0_4core3fmt7Display3fmt
FNDA:0,_RNCNvMs1_NtNtCs3oCotP8OZr6_5synod6domain10governanceNtB7_21StageGovernancePolicy8validate0Bb_
FNDA:0,_RNCNvMs1_NtNtCs3oCotP8OZr6_5synod6domain10governanceNtB7_21StageGovernancePolicy8validates0_0Bb_
FNDA:7,_RNCNvMs1_NtNtCs3oCotP8OZr6_5synod6domain10governanceNtB7_21StageGovernancePolicy8validates1_0Bb_
FNDA:27,_RNCNvMs1_NtNtCs3oCotP8OZr6_5synod6domain10governanceNtB7_21StageGovernancePolicy8validates_0Bb_
FNDA:8,_RNCNvMs2_NtNtCs3oCotP8OZr6_5synod6domain10governanceNtB7_17GovernanceProfile12stage_policy0Bb_
FNDA:13,_RNCNvMs2_NtNtCs3oCotP8OZr6_5synod6domain10governanceNtB7_17GovernanceProfile8validate0Bb_
FNDA:1,_RNCNvNtNtCs3oCotP8OZr6_5synod6domain10governance19resolved_canon_mode0B7_
FNDA:1,_RNCNvNtNtCs3oCotP8OZr6_5synod6domain10governance25classify_packet_readiness0B7_
FNDA:1,_RNCNvNtNtCs3oCotP8OZr6_5synod6domain10governance25classify_packet_readinesss_0B7_
FNDA:9,_RNCNvNtNtCs3oCotP8OZr6_5synod6domain10governance26document_has_authored_body0B7_
FNDA:2,_RNCNvNtNtCs3oCotP8OZr6_5synod6domain10governance31derived_packet_missing_sections0B7_
FNF:29
FNH:23
DA:20,0
DA:21,0
DA:22,0
DA:23,0
DA:25,0
DA:52,0
DA:53,0
DA:54,0
DA:55,0
DA:56,0
DA:57,0
DA:58,0
DA:59,0
DA:60,0
DA:61,0
DA:62,0
DA:64,0
DA:66,6
DA:67,6
DA:68,6
DA:76,6
DA:78,0
DA:79,0
DA:80,0
DA:97,16
DA:98,16
DA:99,16
DA:100,0
DA:101,0
DA:102,0
DA:103,16
DA:104,0
DA:105,0
DA:106,16
DA:107,10
DA:108,10
DA:109,0
DA:111,16
DA:113,5
DA:114,5
DA:115,5
DA:116,5
DA:117,5
DA:118,0
DA:119,5
DA:121,5
DA:122,1
DA:123,1
DA:124,1
DA:125,5
DA:127,1
DA:128,1
DA:129,1
DA:130,1
DA:131,1
DA:132,1
DA:134,0
DA:135,1
DA:137,1
DA:138,1
DA:154,13
DA:155,13
DA:156,0
DA:157,13
DA:159,13
DA:160,13
DA:188,13
DA:189,13
DA:190,13
DA:192,38
DA:193,38
DA:194,38
DA:195,38
DA:196,38
DA:197,38
DA:199,13
DA:200,13
DA:201,13
DA:202,13
DA:203,13
DA:204,13
DA:205,0
DA:206,13
DA:208,13
DA:209,0
DA:210,13
DA:212,13
DA:213,13
DA:214,27
DA:215,0
DA:216,0
DA:217,0
DA:218,0
DA:219,13
DA:221,13
DA:222,0
DA:223,13
DA:225,13
DA:226,13
DA:227,13
DA:228,13
DA:229,0
DA:230,13
DA:232,13
DA:233,6
DA:235,0
DA:236,0
DA:237,0
DA:238,0
DA:239,13
DA:241,13
DA:242,13
DA:243,13
DA:244,13
DA:246,13
DA:247,0
DA:248,0
DA:249,0
DA:250,0
DA:251,13
DA:252,13
DA:253,0
DA:254,0
DA:255,0
DA:256,0
DA:257,13
DA:258,13
DA:259,0
DA:260,0
DA:261,0
DA:262,0
DA:263,13
DA:264,13
DA:265,0
DA:266,0
DA:267,0
DA:268,0
DA:269,13
DA:271,13
DA:272,13
DA:273,13
DA:275,13
DA:276,6
DA:277,0
DA:279,0
DA:280,0
DA:281,0
DA:282,0
DA:283,0
DA:284,13
DA:286,13
DA:287,13
DA:301,13
DA:302,13
DA:303,13
DA:304,13
DA:305,13
DA:307,13
DA:308,13
DA:309,13
DA:310,13
DA:311,13
DA:312,13
DA:313,13
DA:314,0
DA:316,13
DA:317,13
DA:318,13
DA:319,0
DA:320,13
DA:321,13
DA:324,13
DA:325,13
DA:327,8
DA:328,8
DA:329,8
DA:330,8
DA:331,8
DA:365,1
DA:366,1
DA:367,1
DA:368,1
DA:369,1
DA:370,1
DA:371,1
DA:372,1
DA:373,0
DA:374,1
DA:376,1
DA:377,0
DA:378,1
DA:380,1
DA:381,1
DA:382,1
DA:383,1
DA:384,1
DA:385,1
DA:386,1
DA:387,1
DA:388,1
DA:389,1
DA:391,1
DA:392,1
DA:393,1
DA:394,1
DA:395,1
DA:396,1
DA:397,1
DA:399,1
DA:400,1
DA:401,0
DA:403,0
DA:404,0
DA:405,0
DA:407,0
DA:408,1
DA:410,2
DA:411,2
DA:412,2
DA:413,2
DA:414,2
DA:415,2
DA:416,2
DA:417,2
DA:419,2
DA:420,2
DA:421,2
DA:422,2
DA:424,2
DA:425,0
DA:426,2
DA:428,2
DA:429,2
DA:431,3
DA:432,3
DA:433,3
DA:434,0
DA:437,9
DA:438,9
DA:439,9
DA:440,6
DA:441,6
DA:442,3
DA:443,3
DA:444,3
DA:446,6
DA:447,3
DA:449,3
DA:450,0
DA:451,3
DA:452,3
DA:453,3
DA:454,3
DA:455,3
DA:456,9
DA:457,3
DA:459,3
DA:460,3
DA:461,3
DA:462,3
DA:499,0
DA:500,0
DA:501,0
DA:502,0
DA:503,0
DA:504,0
DA:505,0
DA:506,0
DA:508,0
BRF:0
BRH:0
LF:280
LH:194
end_of_record
SF:/Users/rt/workspace/synod/src/domain/limits.rs
FN:19,_RNvMNtNtCs3oCotP8OZr6_5synod6domain6limitsNtB2_17TerminalCondition3all
FN:45,_RNvMs_NtNtCs3oCotP8OZr6_5synod6domain6limitsNtB4_9RunLimits8validate
FN:78,_RNvNtNtCs3oCotP8OZr6_5synod6domain6limits17default_max_steps
FN:86,_RNvNtNtCs3oCotP8OZr6_5synod6domain6limits19default_max_replans
FN:82,_RNvNtNtCs3oCotP8OZr6_5synod6domain6limits19default_max_retries
FN:90,_RNvNtNtCs3oCotP8OZr6_5synod6domain6limits27default_terminal_precedence
FN:68,_RNvXs0_NtNtCs3oCotP8OZr6_5synod6domain6limitsNtB5_9RunLimitsNtNtCsl8K0bEFm1U0_4core7default7Default7default
FNDA:154,_RNvMNtNtCs3oCotP8OZr6_5synod6domain6limitsNtB2_17TerminalCondition3all
FNDA:154,_RNvMs_NtNtCs3oCotP8OZr6_5synod6domain6limitsNtB4_9RunLimits8validate
FNDA:133,_RNvNtNtCs3oCotP8OZr6_5synod6domain6limits17default_max_steps
FNDA:133,_RNvNtNtCs3oCotP8OZr6_5synod6domain6limits19default_max_replans
FNDA:133,_RNvNtNtCs3oCotP8OZr6_5synod6domain6limits19default_max_retries
FNDA:133,_RNvNtNtCs3oCotP8OZr6_5synod6domain6limits27default_terminal_precedence
FNDA:133,_RNvXs0_NtNtCs3oCotP8OZr6_5synod6domain6limitsNtB5_9RunLimitsNtNtCsl8K0bEFm1U0_4core7default7Default7default
FNF:7
FNH:7
DA:19,154
DA:20,154
DA:21,154
DA:22,154
DA:23,154
DA:24,154
DA:25,154
DA:26,154
DA:27,154
DA:28,154
DA:29,154
DA:45,154
DA:46,154
DA:47,0
DA:48,154
DA:50,154
DA:51,1078
DA:52,1078
DA:53,0
DA:54,1078
DA:57,1078
DA:58,1078
DA:59,0
DA:60,1078
DA:63,154
DA:64,154
DA:68,133
DA:69,133
DA:70,133
DA:71,133
DA:72,133
DA:73,133
DA:74,133
DA:75,133
DA:78,133
DA:79,133
DA:80,133
DA:82,133
DA:83,133
DA:84,133
DA:86,133
DA:87,133
DA:88,133
DA:90,133
DA:91,133
DA:92,133
DA:93,133
DA:94,133
DA:95,133
DA:96,133
DA:97,133
DA:98,133
DA:100,133
BRF:0
BRH:0
LF:53
LH:50
end_of_record
SF:/Users/rt/workspace/synod/src/domain/negotiation.rs
FN:17,_RNvMNtNtCs3oCotP8OZr6_5synod6domain11negotiationNtB2_26NegotiationResolutionState6as_str
FN:156,_RNvMs_NtNtCs3oCotP8OZr6_5synod6domain11negotiationNtB4_24NegotiatedDeliveryPacket19from_authored_brief
FN:106,_RNvMs_NtNtCs3oCotP8OZr6_5synod6domain11negotiationNtB4_24NegotiatedDeliveryPacket9from_goal
FNDA:32,_RNvMNtNtCs3oCotP8OZr6_5synod6domain11negotiationNtB2_26NegotiationResolutionState6as_str
FNDA:5,_RNvMs_NtNtCs3oCotP8OZr6_5synod6domain11negotiationNtB4_24NegotiatedDeliveryPacket19from_authored_brief
FNDA:17,_RNvMs_NtNtCs3oCotP8OZr6_5synod6domain11negotiationNtB4_24NegotiatedDeliveryPacket9from_goal
FNF:3
FNH:3
DA:17,32
DA:18,32
DA:19,32
DA:20,0
DA:21,0
DA:22,0
DA:24,32
DA:106,17
DA:107,17
DA:108,17
DA:109,17
DA:110,17
DA:111,17
DA:112,17
DA:113,17
DA:114,17
DA:115,17
DA:116,17
DA:117,17
DA:118,17
DA:119,17
DA:120,17
DA:122,17
DA:123,17
DA:124,17
DA:125,17
DA:126,17
DA:127,17
DA:128,17
DA:129,17
DA:130,17
DA:131,17
DA:132,17
DA:133,17
DA:134,17
DA:135,17
DA:136,17
DA:137,17
DA:138,17
DA:141,17
DA:142,17
DA:143,17
DA:144,17
DA:145,17
DA:146,17
DA:147,17
DA:148,17
DA:149,17
DA:150,17
DA:151,17
DA:152,17
DA:153,17
DA:154,17
DA:156,5
DA:157,5
DA:158,5
DA:159,5
DA:160,5
DA:161,5
DA:162,5
DA:163,5
DA:165,5
DA:166,0
DA:167,0
DA:168,0
DA:169,0
DA:170,0
DA:171,0
DA:172,0
DA:173,0
DA:174,0
DA:175,0
DA:176,5
DA:178,5
DA:179,0
DA:180,0
DA:181,0
DA:182,0
DA:183,0
DA:184,0
DA:185,0
DA:186,0
DA:187,0
DA:188,0
DA:189,0
DA:190,0
DA:191,0
DA:192,0
DA:193,0
DA:194,0
DA:195,0
DA:196,0
DA:197,0
DA:198,0
DA:199,0
DA:200,0
DA:201,0
DA:202,0
DA:203,0
DA:204,0
DA:205,5
DA:207,5
DA:208,5
BRF:0
BRH:0
LF:103
LH:64
end_of_record
SF:/Users/rt/workspace/synod/src/domain/plan.rs
FN:60,_RNvMNtNtCs3oCotP8OZr6_5synod6domain4planNtB2_4Plan24reset_execution_position
FN:82,_RNCNvMNtNtCs3oCotP8OZr6_5synod6domain4planNtB4_4Plan23replace_remaining_steps0B8_
FN:83,_RNCNvMNtNtCs3oCotP8OZr6_5synod6domain4planNtB4_4Plan23replace_remaining_stepss_0B8_
FN:52,_RNvMNtNtCs3oCotP8OZr6_5synod6domain4planNtB2_4Plan12current_step
FN:56,_RNvMNtNtCs3oCotP8OZr6_5synod6domain4planNtB2_4Plan16current_step_mut
FN:75,_RNvMNtNtCs3oCotP8OZr6_5synod6domain4planNtB2_4Plan23replace_remaining_steps
FN:31,_RNvMNtNtCs3oCotP8OZr6_5synod6domain4planNtB2_4Plan3new
FN:65,_RNvMNtNtCs3oCotP8OZr6_5synod6domain4planNtB2_4Plan7advance
FN:37,_RNvMNtNtCs3oCotP8OZr6_5synod6domain4planNtB2_4Plan8validate
FNDA:0,_RNvMNtNtCs3oCotP8OZr6_5synod6domain4planNtB2_4Plan24reset_execution_position
FNDA:0,_RNCNvMNtNtCs3oCotP8OZr6_5synod6domain4planNtB4_4Plan23replace_remaining_steps0B8_
FNDA:2,_RNCNvMNtNtCs3oCotP8OZr6_5synod6domain4planNtB4_4Plan23replace_remaining_stepss_0B8_
FNDA:81,_RNvMNtNtCs3oCotP8OZr6_5synod6domain4planNtB2_4Plan12current_step
FNDA:31,_RNvMNtNtCs3oCotP8OZr6_5synod6domain4planNtB2_4Plan16current_step_mut
FNDA:2,_RNvMNtNtCs3oCotP8OZr6_5synod6domain4planNtB2_4Plan23replace_remaining_steps
FNDA:89,_RNvMNtNtCs3oCotP8OZr6_5synod6domain4planNtB2_4Plan3new
FNDA:17,_RNvMNtNtCs3oCotP8OZr6_5synod6domain4planNtB2_4Plan7advance
FNDA:136,_RNvMNtNtCs3oCotP8OZr6_5synod6domain4planNtB2_4Plan8validate
FNF:9
FNH:7
DA:31,89
DA:32,89
DA:33,89
DA:34,89
DA:35,89
DA:37,136
DA:38,136
DA:39,0
DA:40,136
DA:42,136
DA:43,0
DA:44,0
DA:45,0
DA:46,0
DA:47,136
DA:49,136
DA:50,136
DA:52,81
DA:53,81
DA:54,81
DA:56,31
DA:57,31
DA:58,31
DA:60,0
DA:61,0
DA:62,0
DA:63,0
DA:65,17
DA:66,17
DA:67,17
DA:68,17
DA:70,17
DA:71,5
DA:72,12
DA:73,17
DA:75,2
DA:76,2
DA:77,2
DA:78,2
DA:79,2
DA:80,2
DA:81,2
DA:82,2
DA:83,2
DA:85,2
DA:86,2
DA:87,2
DA:88,2
DA:89,2
DA:91,2
DA:92,1
DA:93,1
DA:95,1
DA:96,1
DA:97,1
DA:98,1
DA:99,1
DA:100,1
DA:101,2
BRF:0
BRH:0
LF:61
LH:51
end_of_record
SF:/Users/rt/workspace/synod/src/domain/review.rs
FN:66,_RNvMNtNtCs3oCotP8OZr6_5synod6domain6reviewNtB2_18ReviewerDefinition8validate
FN:124,_RNvMs0_NtNtCs3oCotP8OZr6_5synod6domain6reviewNtB5_14ReviewScenario8validate
FN:186,_RNvMs1_NtNtCs3oCotP8OZr6_5synod6domain6reviewNtB5_18VoteRuleDefinition7resolve
FN:274,_RNvMs2_NtNtCs3oCotP8OZr6_5synod6domain6reviewNtB5_22AdjudicationDefinition8validate
FN:325,_RNvMs3_NtNtCs3oCotP8OZr6_5synod6domain6reviewNtB5_13ReviewProfile12scenario_for
FN:321,_RNvMs3_NtNtCs3oCotP8OZr6_5synod6domain6reviewNtB5_13ReviewProfile14reviewer_by_id
FN:329,_RNvMs3_NtNtCs3oCotP8OZr6_5synod6domain6reviewNtB5_13ReviewProfile8validate
FN:93,_RNvMs_NtNtCs3oCotP8OZr6_5synod6domain6reviewNtB4_15ReviewerFinding8validate
FN:365,_RNvNtNtCs3oCotP8OZr6_5synod6domain6review23default_reviewer_weight
FN:197,_RNCNvMs1_NtNtCs3oCotP8OZr6_5synod6domain6reviewNtB7_18VoteRuleDefinition7resolve0Bb_
FN:234,_RNCNvMs1_NtNtCs3oCotP8OZr6_5synod6domain6reviewNtB7_18VoteRuleDefinition7resolves_0Bb_
FN:326,_RNCNvMs3_NtNtCs3oCotP8OZr6_5synod6domain6reviewNtB7_13ReviewProfile12scenario_for0Bb_
FN:322,_RNCNvMs3_NtNtCs3oCotP8OZr6_5synod6domain6reviewNtB7_13ReviewProfile14reviewer_by_id0Bb_
FNDA:24,_RNvMNtNtCs3oCotP8OZr6_5synod6domain6reviewNtB2_18ReviewerDefinition8validate
FNDA:12,_RNvMs0_NtNtCs3oCotP8OZr6_5synod6domain6reviewNtB5_14ReviewScenario8validate
FNDA:2,_RNvMs1_NtNtCs3oCotP8OZr6_5synod6domain6reviewNtB5_18VoteRuleDefinition7resolve
FNDA:12,_RNvMs2_NtNtCs3oCotP8OZr6_5synod6domain6reviewNtB5_22AdjudicationDefinition8validate
FNDA:2,_RNvMs3_NtNtCs3oCotP8OZr6_5synod6domain6reviewNtB5_13ReviewProfile12scenario_for
FNDA:2,_RNvMs3_NtNtCs3oCotP8OZr6_5synod6domain6reviewNtB5_13ReviewProfile14reviewer_by_id
FNDA:12,_RNvMs3_NtNtCs3oCotP8OZr6_5synod6domain6reviewNtB5_13ReviewProfile8validate
FNDA:28,_RNvMs_NtNtCs3oCotP8OZr6_5synod6domain6reviewNtB4_15ReviewerFinding8validate
FNDA:0,_RNvNtNtCs3oCotP8OZr6_5synod6domain6review23default_reviewer_weight
FNDA:4,_RNCNvMs1_NtNtCs3oCotP8OZr6_5synod6domain6reviewNtB7_18VoteRuleDefinition7resolve0Bb_
FNDA:4,_RNCNvMs1_NtNtCs3oCotP8OZr6_5synod6domain6reviewNtB7_18VoteRuleDefinition7resolves_0Bb_
FNDA:2,_RNCNvMs3_NtNtCs3oCotP8OZr6_5synod6domain6reviewNtB7_13ReviewProfile12scenario_for0Bb_
FNDA:3,_RNCNvMs3_NtNtCs3oCotP8OZr6_5synod6domain6reviewNtB7_13ReviewProfile14reviewer_by_id0Bb_
FNF:13
FNH:12
DA:66,24
DA:67,24
DA:68,0
DA:69,24
DA:71,24
DA:72,0
DA:73,24
DA:75,24
DA:76,0
DA:77,24
DA:79,24
DA:80,24
DA:93,28
DA:94,28
DA:95,28
DA:96,28
DA:97,28
DA:98,28
DA:99,0
DA:100,28
DA:102,28
DA:103,0
DA:104,28
DA:106,28
DA:107,0
DA:108,28
DA:110,28
DA:111,28
DA:124,12
DA:125,12
DA:126,12
DA:127,12
DA:128,12
DA:129,12
DA:130,12
DA:131,0
DA:132,12
DA:134,12
DA:135,0
DA:136,12
DA:138,12
DA:139,24
DA:140,24
DA:141,24
DA:142,0
DA:143,0
DA:144,0
DA:145,24
DA:148,12
DA:149,0
DA:150,0
DA:151,0
DA:152,0
DA:153,0
DA:154,0
DA:155,0
DA:156,0
DA:157,0
DA:160,0
DA:162,12
DA:165,12
DA:166,12
DA:186,2
DA:187,2
DA:188,2
DA:189,2
DA:190,2
DA:191,2
DA:192,0
DA:193,2
DA:195,2
DA:196,2
DA:197,4
DA:198,2
DA:199,2
DA:201,2
DA:202,2
DA:203,2
DA:204,2
DA:205,2
DA:206,2
DA:208,4
DA:209,4
DA:210,4
DA:211,0
DA:212,0
DA:213,0
DA:214,4
DA:216,4
DA:217,4
DA:218,0
DA:219,0
DA:220,0
DA:222,4
DA:223,4
DA:224,4
DA:225,4
DA:226,0
DA:227,0
DA:231,2
DA:232,2
DA:233,2
DA:234,4
DA:235,4
DA:236,4
DA:238,0
DA:240,4
DA:241,4
DA:242,2
DA:244,2
DA:245,0
DA:246,2
DA:247,2
DA:248,0
DA:249,0
DA:251,0
DA:254,2
DA:255,2
DA:256,2
DA:257,2
DA:258,2
DA:259,2
DA:260,2
DA:261,2
DA:262,2
DA:274,12
DA:275,12
DA:276,12
DA:277,0
DA:279,0
DA:280,0
DA:283,0
DA:284,0
DA:285,0
DA:287,0
DA:288,0
DA:289,0
DA:291,0
DA:292,12
DA:321,2
DA:322,3
DA:323,2
DA:325,2
DA:326,2
DA:327,2
DA:329,12
DA:330,12
DA:331,0
DA:332,12
DA:334,12
DA:335,0
DA:336,12
DA:338,12
DA:339,12
DA:340,12
DA:341,12
DA:343,12
DA:344,24
DA:345,24
DA:346,24
DA:347,0
DA:348,24
DA:351,12
DA:353,12
DA:354,12
DA:355,12
DA:356,0
DA:357,12
DA:358,12
DA:361,12
DA:362,12
DA:365,0
DA:366,0
DA:367,0
BRF:0
BRH:0
LF:177
LH:125
end_of_record
SF:/Users/rt/workspace/synod/src/domain/routing_decision.rs
FN:88,_RNvMNtNtCs3oCotP8OZr6_5synod6domain16routing_decisionNtB2_25RoutingDecisionProjection10from_value
FN:84,_RNvMNtNtCs3oCotP8OZr6_5synod6domain16routing_decisionNtB2_25RoutingDecisionProjection15from_task_input
FN:66,_RNvMNtNtCs3oCotP8OZr6_5synod6domain16routing_decisionNtB2_25RoutingDecisionProjection16projection_lines
FN:77,_RNvMNtNtCs3oCotP8OZr6_5synod6domain16routing_decisionNtB2_25RoutingDecisionProjection18from_event_payload
FN:15,_RNvMNtNtCs3oCotP8OZr6_5synod6domain16routing_decisionNtB2_25RoutingDecisionProjection22from_effective_routing
FN:62,_RNvMNtNtCs3oCotP8OZr6_5synod6domain16routing_decisionNtB2_25RoutingDecisionProjection8is_empty
FN:131,_RNvNtNtCs3oCotP8OZr6_5synod6domain16routing_decision12string_array
FN:114,_RNvNtNtCs3oCotP8OZr6_5synod6domain16routing_decision17value_source_text
FN:99,_RNvNtNtCs3oCotP8OZr6_5synod6domain16routing_decision21push_projection_entry
FN:124,_RNvNtNtCs3oCotP8OZr6_5synod6domain16routing_decision23assistant_binding_label
FN:149,_RNvNtNtNtCs3oCotP8OZr6_5synod6domain16routing_decision5testss_33parses_projection_from_task_input
FN:166,_RNvNtNtNtCs3oCotP8OZr6_5synod6domain16routing_decision5testss_40builds_projection_from_effective_routing
FN:135,_RNCNCNvNtNtCs3oCotP8OZr6_5synod6domain16routing_decision12string_array00B9_
FN:81,_RNCNvMNtNtCs3oCotP8OZr6_5synod6domain16routing_decisionNtB4_25RoutingDecisionProjection18from_event_payload0B8_
FN:134,_RNCNvNtNtCs3oCotP8OZr6_5synod6domain16routing_decision12string_array0B7_
FNDA:7,_RNvMNtNtCs3oCotP8OZr6_5synod6domain16routing_decisionNtB2_25RoutingDecisionProjection10from_value
FNDA:3,_RNvMNtNtCs3oCotP8OZr6_5synod6domain16routing_decisionNtB2_25RoutingDecisionProjection15from_task_input
FNDA:38,_RNvMNtNtCs3oCotP8OZr6_5synod6domain16routing_decisionNtB2_25RoutingDecisionProjection16projection_lines
FNDA:23,_RNvMNtNtCs3oCotP8OZr6_5synod6domain16routing_decisionNtB2_25RoutingDecisionProjection18from_event_payload
FNDA:43,_RNvMNtNtCs3oCotP8OZr6_5synod6domain16routing_decisionNtB2_25RoutingDecisionProjection22from_effective_routing
FNDA:71,_RNvMNtNtCs3oCotP8OZr6_5synod6domain16routing_decisionNtB2_25RoutingDecisionProjection8is_empty
FNDA:14,_RNvNtNtCs3oCotP8OZr6_5synod6domain16routing_decision12string_array
FNDA:215,_RNvNtNtCs3oCotP8OZr6_5synod6domain16routing_decision17value_source_text
FNDA:215,_RNvNtNtCs3oCotP8OZr6_5synod6domain16routing_decision21push_projection_entry
FNDA:215,_RNvNtNtCs3oCotP8OZr6_5synod6domain16routing_decision23assistant_binding_label
FNDA:1,_RNvNtNtNtCs3oCotP8OZr6_5synod6domain16routing_decision5testss_33parses_projection_from_task_input
FNDA:1,_RNvNtNtNtCs3oCotP8OZr6_5synod6domain16routing_decision5testss_40builds_projection_from_effective_routing
FNDA:62,_RNCNCNvNtNtCs3oCotP8OZr6_5synod6domain16routing_decision12string_array00B9_
FNDA:21,_RNCNvMNtNtCs3oCotP8OZr6_5synod6domain16routing_decisionNtB4_25RoutingDecisionProjection18from_event_payload0B8_
FNDA:14,_RNCNvNtNtCs3oCotP8OZr6_5synod6domain16routing_decision12string_array0B7_
FNF:15
FNH:15
DA:15,43
DA:16,43
DA:17,43
DA:19,43
DA:20,43
DA:21,43
DA:22,43
DA:23,43
DA:25,43
DA:26,43
DA:27,43
DA:28,43
DA:29,43
DA:31,43
DA:32,43
DA:33,43
DA:34,43
DA:35,43
DA:37,43
DA:38,43
DA:39,43
DA:40,43
DA:41,43
DA:43,43
DA:44,43
DA:45,43
DA:46,43
DA:47,43
DA:50,43
DA:51,0
DA:52,0
DA:53,0
DA:54,0
DA:55,0
DA:56,0
DA:57,0
DA:59,43
DA:60,43
DA:62,71
DA:63,71
DA:64,71
DA:66,38
DA:67,38
DA:68,38
DA:69,36
DA:70,36
DA:71,38
DA:72,36
DA:73,36
DA:74,38
DA:75,38
DA:77,23
DA:78,23
DA:79,23
DA:80,23
DA:81,23
DA:82,23
DA:84,3
DA:85,3
DA:86,3
DA:88,7
DA:89,7
DA:90,7
DA:91,7
DA:92,7
DA:94,7
DA:95,7
DA:96,7
DA:99,215
DA:100,215
DA:101,215
DA:102,215
DA:103,215
DA:104,215
DA:105,215
DA:107,215
DA:109,215
DA:111,215
DA:112,215
DA:114,215
DA:115,215
DA:116,1
DA:117,1
DA:118,1
DA:119,1
DA:120,211
DA:122,215
DA:124,215
DA:125,215
DA:126,1
DA:127,214
DA:129,215
DA:131,14
DA:132,14
DA:133,14
DA:134,14
DA:135,62
DA:136,14
DA:137,14
DA:138,14
DA:149,1
DA:150,1
DA:151,1
DA:152,1
DA:153,1
DA:154,1
DA:155,1
DA:156,1
DA:158,1
DA:160,1
DA:162,1
DA:163,1
DA:166,1
DA:167,1
DA:168,1
DA:169,1
DA:170,1
DA:171,1
DA:172,1
DA:173,1
DA:174,1
DA:175,1
DA:176,1
DA:177,1
DA:178,1
DA:179,1
DA:180,1
DA:181,1
DA:182,1
DA:183,1
DA:184,1
DA:185,1
DA:186,1
DA:187,1
DA:188,1
DA:189,1
DA:190,1
DA:191,1
DA:192,1
DA:193,1
DA:194,1
DA:195,1
DA:196,1
DA:197,1
DA:198,1
DA:199,1
DA:200,1
DA:201,1
DA:202,1
DA:203,1
DA:204,1
DA:206,1
DA:208,1
DA:209,1
DA:210,1
DA:211,1
DA:213,1
DA:214,1
DA:215,1
DA:216,1
DA:218,1
DA:219,1
BRF:0
BRH:0
LF:165
LH:158
end_of_record
SF:/Users/rt/workspace/synod/src/domain/session.rs
FN:1506,_RNCNCNvNtNtNtCs3oCotP8OZr6_5synod6domain7session5tests10build_views4_00Bb_
FN:1489,_RNCNvNtNtNtCs3oCotP8OZr6_5synod6domain7session5tests10build_view0B9_
FN:1499,_RNCNvNtNtNtCs3oCotP8OZr6_5synod6domain7session5tests10build_views0_0B9_
FN:1506,_RNCNvNtNtNtCs3oCotP8OZr6_5synod6domain7session5tests10build_views4_0B9_
FN:1517,_RNCNvNtNtNtCs3oCotP8OZr6_5synod6domain7session5tests10build_views6_0B9_
FN:1518,_RNCNvNtNtNtCs3oCotP8OZr6_5synod6domain7session5tests10build_views7_0B9_
FN:1493,_RNCNvNtNtNtCs3oCotP8OZr6_5synod6domain7session5tests10build_views_0B9_
FN:1645,_RNCNvNtNtNtCs3oCotP8OZr6_5synod6domain7session5tests18build_derived_view0B9_
FN:1649,_RNCNvNtNtNtCs3oCotP8OZr6_5synod6domain7session5tests18build_derived_views0_0B9_
FN:1647,_RNCNvNtNtNtCs3oCotP8OZr6_5synod6domain7session5tests18build_derived_views_0B9_
FN:1434,_RNvNtNtNtCs3oCotP8OZr6_5synod6domain7session5tests10build_task
FN:1470,_RNvNtNtNtCs3oCotP8OZr6_5synod6domain7session5tests10build_view
FN:1447,_RNvNtNtNtCs3oCotP8OZr6_5synod6domain7session5tests12build_record
FN:1639,_RNvNtNtNtCs3oCotP8OZr6_5synod6domain7session5tests18build_derived_view
FN:1550,_RNvNtNtNtCs3oCotP8OZr6_5synod6domain7session5tests26build_derived_state_record
FN:1963,_RNvNtNtNtCs3oCotP8OZr6_5synod6domain7session5testss_60task_persistence_errors_convert_to_session_validation_errors
FN:1787,_RNvNtNtNtCs3oCotP8OZr6_5synod6domain7session5testss_63status_view_rejects_derived_state_mismatches_and_blank_metadata
FN:1680,_RNvNtNtNtCs3oCotP8OZr6_5synod6domain7session5testss_63status_view_rejects_stage_count_trace_and_step_index_mismatches
FN:1733,_RNvNtNtNtCs3oCotP8OZr6_5synod6domain7session5testss_64helper_functions_cover_relative_trace_paths_and_state_extractors
FN:1713,_RNvNtNtNtCs3oCotP8OZr6_5synod6domain7session5testss_67governance_packet_provenance_text_formats_source_and_binding_reason
FN:230,_RNvMs0_NtNtCs3oCotP8OZr6_5synod6domain7sessionNtB5_17SessionTransition8validate
FN:40,_RNvMNtNtCs3oCotP8OZr6_5synod6domain7sessionNtB2_13SessionStatus11is_terminal
FN:262,_RNvMs1_NtNtCs3oCotP8OZr6_5synod6domain7sessionNtB5_19ContinuityAuthority6as_str
FN:280,_RNvMs2_NtNtCs3oCotP8OZr6_5synod6domain7sessionNtB5_25CompatibilityFollowUpMode6as_str
FN:421,_RNvMs3_NtNtCs3oCotP8OZr6_5synod6domain7sessionNtB5_17SessionStatusView8validate
FN:881,_RNvMs4_NtNtCs3oCotP8OZr6_5synod6domain7sessionNtB5_11RoutingMode6as_str
FN:900,_RNvMs5_NtNtCs3oCotP8OZr6_5synod6domain7sessionNtB5_13RoutingSource6as_str
FN:918,_RNvMs6_NtNtCs3oCotP8OZr6_5synod6domain7sessionNtB5_14RoutingOutcome18execution_path_key
FN:180,_RNvMs_NtNtCs3oCotP8OZr6_5synod6domain7sessionNtB4_19ActiveSessionRecord20active_workflow_name
FN:174,_RNvMs_NtNtCs3oCotP8OZr6_5synod6domain7sessionNtB4_19ActiveSessionRecord24active_workflow_progress
FN:184,_RNvMs_NtNtCs3oCotP8OZr6_5synod6domain7sessionNtB4_19ActiveSessionRecord26active_workflow_phase_text
FN:188,_RNvMs_NtNtCs3oCotP8OZr6_5synod6domain7sessionNtB4_19ActiveSessionRecord27active_workflow_next_action
FN:87,_RNvMs_NtNtCs3oCotP8OZr6_5synod6domain7sessionNtB4_19ActiveSessionRecord8validate
FN:935,_RNvNtNtCs3oCotP8OZr6_5synod6domain7session15routing_outcome
FN:1214,_RNvNtNtCs3oCotP8OZr6_5synod6domain7session17task_state_string
FN:1222,_RNvNtNtCs3oCotP8OZr6_5synod6domain7session18task_state_strings
FN:975,_RNvNtNtCs3oCotP8OZr6_5synod6domain7session19execution_path_text
FN:979,_RNvNtNtCs3oCotP8OZr6_5synod6domain7session20decision_status_text
FN:1178,_RNvNtNtCs3oCotP8OZr6_5synod6domain7session20expected_task_status
FN:1147,_RNvNtNtCs3oCotP8OZr6_5synod6domain7session20status_requires_goal
FN:1151,_RNvNtNtCs3oCotP8OZr6_5synod6domain7session20status_requires_task
FN:1250,_RNvNtNtCs3oCotP8OZr6_5synod6domain7session21autopilot_action_text
FN:1190,_RNvNtNtCs3oCotP8OZr6_5synod6domain7session22trace_within_workspace
FN:1230,_RNvNtNtCs3oCotP8OZr6_5synod6domain7session25task_state_governed_stage
FN:1234,_RNvNtNtCs3oCotP8OZr6_5synod6domain7session26task_state_governed_packet
FN:1374,_RNvNtNtCs3oCotP8OZr6_5synod6domain7session26task_state_review_headline
FN:1199,_RNvNtNtCs3oCotP8OZr6_5synod6domain7session26trace_within_session_scope
FN:1242,_RNvNtNtCs3oCotP8OZr6_5synod6domain7session30task_state_governance_decision
FN:1271,_RNvNtNtCs3oCotP8OZr6_5synod6domain7session31task_state_governance_mode_text
FN:1263,_RNvNtNtCs3oCotP8OZr6_5synod6domain7session31task_state_governance_stage_key
FN:1339,_RNvNtNtCs3oCotP8OZr6_5synod6domain7session32governance_next_action_for_state
FN:1289,_RNvNtNtCs3oCotP8OZr6_5synod6domain7session32task_state_governance_packet_ref
FN:1281,_RNvNtNtCs3oCotP8OZr6_5synod6domain7session32task_state_governance_state_text
FN:1303,_RNvNtNtCs3oCotP8OZr6_5synod6domain7session33governance_packet_provenance_text
FN:193,_RNvNtNtCs3oCotP8OZr6_5synod6domain7session33task_belongs_to_session_workspace
FN:1349,_RNvNtNtCs3oCotP8OZr6_5synod6domain7session33task_state_governance_next_action
FN:1362,_RNvNtNtCs3oCotP8OZr6_5synod6domain7session34task_state_attempt_lineage_summary
FN:1238,_RNvNtNtCs3oCotP8OZr6_5synod6domain7session34task_state_governance_packet_reuse
FN:1267,_RNvNtNtCs3oCotP8OZr6_5synod6domain7session34task_state_governance_runtime_text
FN:1354,_RNvNtNtCs3oCotP8OZr6_5synod6domain7session34task_state_workspace_slice_summary
FN:1321,_RNvNtNtCs3oCotP8OZr6_5synod6domain7session35task_state_governance_approval_text
FN:1277,_RNvNtNtCs3oCotP8OZr6_5synod6domain7session35task_state_governance_canon_run_ref
FN:1163,_RNvNtNtCs3oCotP8OZr6_5synod6domain7session36status_allows_goal_plan_without_task
FN:1285,_RNvNtNtCs3oCotP8OZr6_5synod6domain7session36task_state_governance_blocked_reason
FN:1329,_RNvNtNtCs3oCotP8OZr6_5synod6domain7session39task_state_governance_candidate_actions
FN:1325,_RNvNtNtCs3oCotP8OZr6_5synod6domain7session39task_state_governance_decision_headline
FN:1295,_RNvNtNtCs3oCotP8OZr6_5synod6domain7session41task_state_governance_packet_source_stage
FN:1299,_RNvNtNtCs3oCotP8OZr6_5synod6domain7session43task_state_governance_packet_binding_reason
FN:1414,_RNvXs7_NtNtCs3oCotP8OZr6_5synod6domain7sessionNtB5_22SessionValidationErrorINtNtCsl8K0bEFm1U0_4core7convert4FromNtNtB7_4task20TaskPersistenceErrorE4from
FN:1246,_RINvNtNtCs3oCotP8OZr6_5synod6domain7session12encoded_textNtNtB4_10governance13ApprovalStateEB6_
FN:1246,_RINvNtNtCs3oCotP8OZr6_5synod6domain7session12encoded_textNtNtB4_10governance21GovernanceRuntimeKindEB6_
FN:1246,_RINvNtNtCs3oCotP8OZr6_5synod6domain7session12encoded_textNtNtB4_10governance24GovernanceLifecycleStateEB6_
FN:1246,_RINvNtNtCs3oCotP8OZr6_5synod6domain7session12encoded_textNtNtB4_10governance9CanonModeEB6_
FN:1218,_RINvNtNtCs3oCotP8OZr6_5synod6domain7session15task_state_jsonNtNtB4_10governance18PacketReuseBindingEB6_
FN:1218,_RINvNtNtCs3oCotP8OZr6_5synod6domain7session15task_state_jsonNtNtB4_10governance19GovernedStagePacketEB6_
FN:1218,_RINvNtNtCs3oCotP8OZr6_5synod6domain7session15task_state_jsonNtNtB4_10governance19GovernedStageRecordEB6_
FN:1218,_RINvNtNtCs3oCotP8OZr6_5synod6domain7session15task_state_jsonNtNtB4_10governance23AutopilotDecisionRecordEB6_
FN:1247,_RNCINvNtNtCs3oCotP8OZr6_5synod6domain7session12encoded_textNtNtB6_10governance13ApprovalStateE0B8_
FN:1247,_RNCINvNtNtCs3oCotP8OZr6_5synod6domain7session12encoded_textNtNtB6_10governance21GovernanceRuntimeKindE0B8_
FN:1247,_RNCINvNtNtCs3oCotP8OZr6_5synod6domain7session12encoded_textNtNtB6_10governance24GovernanceLifecycleStateE0B8_
FN:1247,_RNCINvNtNtCs3oCotP8OZr6_5synod6domain7session12encoded_textNtNtB6_10governance9CanonModeE0B8_
FN:1219,_RNCINvNtNtCs3oCotP8OZr6_5synod6domain7session15task_state_jsonNtNtB6_10governance18PacketReuseBindingE0B8_
FN:1219,_RNCINvNtNtCs3oCotP8OZr6_5synod6domain7session15task_state_jsonNtNtB6_10governance19GovernedStagePacketE0B8_
FN:1219,_RNCINvNtNtCs3oCotP8OZr6_5synod6domain7session15task_state_jsonNtNtB6_10governance19GovernedStageRecordE0B8_
FN:1219,_RNCINvNtNtCs3oCotP8OZr6_5synod6domain7session15task_state_jsonNtNtB6_10governance23AutopilotDecisionRecordE0B8_
FN:1225,_RNCNCNCNvNtNtCs3oCotP8OZr6_5synod6domain7session18task_state_strings000Bb_
FN:1209,_RNCNCNCNvNtNtCs3oCotP8OZr6_5synod6domain7session26trace_within_session_scope000Bb_
FN:176,_RNCNCNvMs_NtNtCs3oCotP8OZr6_5synod6domain7sessionNtB8_19ActiveSessionRecord24active_workflow_progress00Bc_
FN:1224,_RNCNCNvNtNtCs3oCotP8OZr6_5synod6domain7session18task_state_strings00B9_
FN:1396,_RNCNCNvNtNtCs3oCotP8OZr6_5synod6domain7session26task_state_review_headlines_00B9_
FN:1205,_RNCNCNvNtNtCs3oCotP8OZr6_5synod6domain7session26trace_within_session_scope00B9_
FN:1334,_RNCNCNvNtNtCs3oCotP8OZr6_5synod6domain7session39task_state_governance_candidate_actions00B9_
FN:451,_RNCNvMs3_NtNtCs3oCotP8OZr6_5synod6domain7sessionNtB7_17SessionStatusView8validate0Bb_
FN:473,_RNCNvMs3_NtNtCs3oCotP8OZr6_5synod6domain7sessionNtB7_17SessionStatusView8validates0_0Bb_
FN:481,_RNCNvMs3_NtNtCs3oCotP8OZr6_5synod6domain7sessionNtB7_17SessionStatusView8validates1_0Bb_
FN:490,_RNCNvMs3_NtNtCs3oCotP8OZr6_5synod6domain7sessionNtB7_17SessionStatusView8validates2_0Bb_
FN:523,_RNCNvMs3_NtNtCs3oCotP8OZr6_5synod6domain7sessionNtB7_17SessionStatusView8validates3_0Bb_
FN:557,_RNCNvMs3_NtNtCs3oCotP8OZr6_5synod6domain7sessionNtB7_17SessionStatusView8validates6_0Bb_
FN:566,_RNCNvMs3_NtNtCs3oCotP8OZr6_5synod6domain7sessionNtB7_17SessionStatusView8validates7_0Bb_
FN:577,_RNCNvMs3_NtNtCs3oCotP8OZr6_5synod6domain7sessionNtB7_17SessionStatusView8validates8_0Bb_
FN:595,_RNCNvMs3_NtNtCs3oCotP8OZr6_5synod6domain7sessionNtB7_17SessionStatusView8validates9_0Bb_
FN:462,_RNCNvMs3_NtNtCs3oCotP8OZr6_5synod6domain7sessionNtB7_17SessionStatusView8validates_0Bb_
FN:610,_RNCNvMs3_NtNtCs3oCotP8OZr6_5synod6domain7sessionNtB7_17SessionStatusView8validatesa_0Bb_
FN:619,_RNCNvMs3_NtNtCs3oCotP8OZr6_5synod6domain7sessionNtB7_17SessionStatusView8validatesb_0Bb_
FN:628,_RNCNvMs3_NtNtCs3oCotP8OZr6_5synod6domain7sessionNtB7_17SessionStatusView8validatesc_0Bb_
FN:639,_RNCNvMs3_NtNtCs3oCotP8OZr6_5synod6domain7sessionNtB7_17SessionStatusView8validatesd_0Bb_
FN:659,_RNCNvMs3_NtNtCs3oCotP8OZr6_5synod6domain7sessionNtB7_17SessionStatusView8validatese_0Bb_
FN:670,_RNCNvMs3_NtNtCs3oCotP8OZr6_5synod6domain7sessionNtB7_17SessionStatusView8validatesf_0Bb_
FN:681,_RNCNvMs3_NtNtCs3oCotP8OZr6_5synod6domain7sessionNtB7_17SessionStatusView8validatesg_0Bb_
FN:692,_RNCNvMs3_NtNtCs3oCotP8OZr6_5synod6domain7sessionNtB7_17SessionStatusView8validatesh_0Bb_
FN:852,_RNCNvMs3_NtNtCs3oCotP8OZr6_5synod6domain7sessionNtB7_17SessionStatusView8validatesi_0Bb_
FN:181,_RNCNvMs_NtNtCs3oCotP8OZr6_5synod6domain7sessionNtB6_19ActiveSessionRecord20active_workflow_name0Ba_
FN:175,_RNCNvMs_NtNtCs3oCotP8OZr6_5synod6domain7sessionNtB6_19ActiveSessionRecord24active_workflow_progress0Ba_
FN:119,_RNCNvMs_NtNtCs3oCotP8OZr6_5synod6domain7sessionNtB6_19ActiveSessionRecord8validate0Ba_
FN:134,_RNCNvMs_NtNtCs3oCotP8OZr6_5synod6domain7sessionNtB6_19ActiveSessionRecord8validates0_0Ba_
FN:123,_RNCNvMs_NtNtCs3oCotP8OZr6_5synod6domain7sessionNtB6_19ActiveSessionRecord8validates_0Ba_
FN:1215,_RNCNvNtNtCs3oCotP8OZr6_5synod6domain7session17task_state_string0B7_
FN:1223,_RNCNvNtNtCs3oCotP8OZr6_5synod6domain7session18task_state_strings0B7_
FN:1380,_RNCNvNtNtCs3oCotP8OZr6_5synod6domain7session26task_state_review_headline0B7_
FN:1393,_RNCNvNtNtCs3oCotP8OZr6_5synod6domain7session26task_state_review_headlines_0B7_
FN:1204,_RNCNvNtNtCs3oCotP8OZr6_5synod6domain7session26trace_within_session_scope0B7_
FN:1274,_RNCNvNtNtCs3oCotP8OZr6_5synod6domain7session31task_state_governance_mode_texts_0B7_
FN:1292,_RNCNvNtNtCs3oCotP8OZr6_5synod6domain7session32task_state_governance_packet_refs_0B7_
FN:1282,_RNCNvNtNtCs3oCotP8OZr6_5synod6domain7session32task_state_governance_state_text0B7_
FN:1307,_RNCNvNtNtCs3oCotP8OZr6_5synod6domain7session33governance_packet_provenance_text0B7_
FN:1309,_RNCNvNtNtCs3oCotP8OZr6_5synod6domain7session33governance_packet_provenance_texts_0B7_
FN:204,_RNCNvNtNtCs3oCotP8OZr6_5synod6domain7session33task_belongs_to_session_workspace0B7_
FN:217,_RNCNvNtNtCs3oCotP8OZr6_5synod6domain7session33task_belongs_to_session_workspaces0_0B7_
FN:211,_RNCNvNtNtCs3oCotP8OZr6_5synod6domain7session33task_belongs_to_session_workspaces_0B7_
FN:1369,_RNCNvNtNtCs3oCotP8OZr6_5synod6domain7session34task_state_attempt_lineage_summary0B7_
FN:1370,_RNCNvNtNtCs3oCotP8OZr6_5synod6domain7session34task_state_attempt_lineage_summarys_0B7_
FN:1268,_RNCNvNtNtCs3oCotP8OZr6_5synod6domain7session34task_state_governance_runtime_text0B7_
FN:1357,_RNCNvNtNtCs3oCotP8OZr6_5synod6domain7session34task_state_workspace_slice_summary0B7_
FN:1322,_RNCNvNtNtCs3oCotP8OZr6_5synod6domain7session35task_state_governance_approval_text0B7_
FN:1330,_RNCNvNtNtCs3oCotP8OZr6_5synod6domain7session39task_state_governance_candidate_actions0B7_
FNDA:5,_RNCNCNvNtNtNtCs3oCotP8OZr6_5synod6domain7session5tests10build_views4_00Bb_
FNDA:5,_RNCNvNtNtNtCs3oCotP8OZr6_5synod6domain7session5tests10build_view0B9_
FNDA:5,_RNCNvNtNtNtCs3oCotP8OZr6_5synod6domain7session5tests10build_views0_0B9_
FNDA:5,_RNCNvNtNtNtCs3oCotP8OZr6_5synod6domain7session5tests10build_views4_0B9_
FNDA:0,_RNCNvNtNtNtCs3oCotP8OZr6_5synod6domain7session5tests10build_views6_0B9_
FNDA:0,_RNCNvNtNtNtCs3oCotP8OZr6_5synod6domain7session5tests10build_views7_0B9_
FNDA:0,_RNCNvNtNtNtCs3oCotP8OZr6_5synod6domain7session5tests10build_views_0B9_
FNDA:0,_RNCNvNtNtNtCs3oCotP8OZr6_5synod6domain7session5tests18build_derived_view0B9_
FNDA:0,_RNCNvNtNtNtCs3oCotP8OZr6_5synod6domain7session5tests18build_derived_views0_0B9_
FNDA:0,_RNCNvNtNtNtCs3oCotP8OZr6_5synod6domain7session5tests18build_derived_views_0B9_
FNDA:3,_RNvNtNtNtCs3oCotP8OZr6_5synod6domain7session5tests10build_task
FNDA:5,_RNvNtNtNtCs3oCotP8OZr6_5synod6domain7session5tests10build_view
FNDA:2,_RNvNtNtNtCs3oCotP8OZr6_5synod6domain7session5tests12build_record
FNDA:1,_RNvNtNtNtCs3oCotP8OZr6_5synod6domain7session5tests18build_derived_view
FNDA:1,_RNvNtNtNtCs3oCotP8OZr6_5synod6domain7session5tests26build_derived_state_record
FNDA:1,_RNvNtNtNtCs3oCotP8OZr6_5synod6domain7session5testss_60task_persistence_errors_convert_to_session_validation_errors
FNDA:1,_RNvNtNtNtCs3oCotP8OZr6_5synod6domain7session5testss_63status_view_rejects_derived_state_mismatches_and_blank_metadata
FNDA:1,_RNvNtNtNtCs3oCotP8OZr6_5synod6domain7session5testss_63status_view_rejects_stage_count_trace_and_step_index_mismatches
FNDA:1,_RNvNtNtNtCs3oCotP8OZr6_5synod6domain7session5testss_64helper_functions_cover_relative_trace_paths_and_state_extractors
FNDA:1,_RNvNtNtNtCs3oCotP8OZr6_5synod6domain7session5testss_67governance_packet_provenance_text_formats_source_and_binding_reason
FNDA:0,_RNvMs0_NtNtCs3oCotP8OZr6_5synod6domain7sessionNtB5_17SessionTransition8validate
FNDA:81,_RNvMNtNtCs3oCotP8OZr6_5synod6domain7sessionNtB2_13SessionStatus11is_terminal
FNDA:0,_RNvMs1_NtNtCs3oCotP8OZr6_5synod6domain7sessionNtB5_19ContinuityAuthority6as_str
FNDA:0,_RNvMs2_NtNtCs3oCotP8OZr6_5synod6domain7sessionNtB5_25CompatibilityFollowUpMode6as_str
FNDA:27,_RNvMs3_NtNtCs3oCotP8OZr6_5synod6domain7sessionNtB5_17SessionStatusView8validate
FNDA:70,_RNvMs4_NtNtCs3oCotP8OZr6_5synod6domain7sessionNtB5_11RoutingMode6as_str
FNDA:70,_RNvMs5_NtNtCs3oCotP8OZr6_5synod6domain7sessionNtB5_13RoutingSource6as_str
FNDA:29,_RNvMs6_NtNtCs3oCotP8OZr6_5synod6domain7sessionNtB5_14RoutingOutcome18execution_path_key
FNDA:71,_RNvMs_NtNtCs3oCotP8OZr6_5synod6domain7sessionNtB4_19ActiveSessionRecord20active_workflow_name
FNDA:217,_RNvMs_NtNtCs3oCotP8OZr6_5synod6domain7sessionNtB4_19ActiveSessionRecord24active_workflow_progress
FNDA:56,_RNvMs_NtNtCs3oCotP8OZr6_5synod6domain7sessionNtB4_19ActiveSessionRecord26active_workflow_phase_text
FNDA:60,_RNvMs_NtNtCs3oCotP8OZr6_5synod6domain7sessionNtB4_19ActiveSessionRecord27active_workflow_next_action
FNDA:63,_RNvMs_NtNtCs3oCotP8OZr6_5synod6domain7sessionNtB4_19ActiveSessionRecord8validate
FNDA:71,_RNvNtNtCs3oCotP8OZr6_5synod6domain7session15routing_outcome
FNDA:112,_RNvNtNtCs3oCotP8OZr6_5synod6domain7session17task_state_string
FNDA:29,_RNvNtNtCs3oCotP8OZr6_5synod6domain7session18task_state_strings
FNDA:29,_RNvNtNtCs3oCotP8OZr6_5synod6domain7session19execution_path_text
FNDA:4,_RNvNtNtCs3oCotP8OZr6_5synod6domain7session20decision_status_text
FNDA:5,_RNvNtNtCs3oCotP8OZr6_5synod6domain7session20expected_task_status
FNDA:63,_RNvNtNtCs3oCotP8OZr6_5synod6domain7session20status_requires_goal
FNDA:62,_RNvNtNtCs3oCotP8OZr6_5synod6domain7session20status_requires_task
FNDA:8,_RNvNtNtCs3oCotP8OZr6_5synod6domain7session21autopilot_action_text
FNDA:14,_RNvNtNtCs3oCotP8OZr6_5synod6domain7session22trace_within_workspace
FNDA:119,_RNvNtNtCs3oCotP8OZr6_5synod6domain7session25task_state_governed_stage
FNDA:28,_RNvNtNtCs3oCotP8OZr6_5synod6domain7session26task_state_governed_packet
FNDA:18,_RNvNtNtCs3oCotP8OZr6_5synod6domain7session26task_state_review_headline
FNDA:12,_RNvNtNtCs3oCotP8OZr6_5synod6domain7session26trace_within_session_scope
FNDA:15,_RNvNtNtCs3oCotP8OZr6_5synod6domain7session30task_state_governance_decision
FNDA:16,_RNvNtNtCs3oCotP8OZr6_5synod6domain7session31task_state_governance_mode_text
FNDA:18,_RNvNtNtCs3oCotP8OZr6_5synod6domain7session31task_state_governance_stage_key
FNDA:11,_RNvNtNtCs3oCotP8OZr6_5synod6domain7session32governance_next_action_for_state
FNDA:12,_RNvNtNtCs3oCotP8OZr6_5synod6domain7session32task_state_governance_packet_ref
FNDA:39,_RNvNtNtCs3oCotP8OZr6_5synod6domain7session32task_state_governance_state_text
FNDA:6,_RNvNtNtCs3oCotP8OZr6_5synod6domain7session33governance_packet_provenance_text
FNDA:5,_RNvNtNtCs3oCotP8OZr6_5synod6domain7session33task_belongs_to_session_workspace
FNDA:6,_RNvNtNtCs3oCotP8OZr6_5synod6domain7session33task_state_governance_next_action
FNDA:25,_RNvNtNtCs3oCotP8OZr6_5synod6domain7session34task_state_attempt_lineage_summary
FNDA:21,_RNvNtNtCs3oCotP8OZr6_5synod6domain7session34task_state_governance_packet_reuse
FNDA:17,_RNvNtNtCs3oCotP8OZr6_5synod6domain7session34task_state_governance_runtime_text
FNDA:27,_RNvNtNtCs3oCotP8OZr6_5synod6domain7session34task_state_workspace_slice_summary
FNDA:9,_RNvNtNtCs3oCotP8OZr6_5synod6domain7session35task_state_governance_approval_text
FNDA:15,_RNvNtNtCs3oCotP8OZr6_5synod6domain7session35task_state_governance_canon_run_ref
FNDA:21,_RNvNtNtCs3oCotP8OZr6_5synod6domain7session36status_allows_goal_plan_without_task
FNDA:18,_RNvNtNtCs3oCotP8OZr6_5synod6domain7session36task_state_governance_blocked_reason
FNDA:7,_RNvNtNtCs3oCotP8OZr6_5synod6domain7session39task_state_governance_candidate_actions
FNDA:8,_RNvNtNtCs3oCotP8OZr6_5synod6domain7session39task_state_governance_decision_headline
FNDA:11,_RNvNtNtCs3oCotP8OZr6_5synod6domain7session41task_state_governance_packet_source_stage
FNDA:10,_RNvNtNtCs3oCotP8OZr6_5synod6domain7session43task_state_governance_packet_binding_reason
FNDA:1,_RNvXs7_NtNtCs3oCotP8OZr6_5synod6domain7sessionNtB5_22SessionValidationErrorINtNtCsl8K0bEFm1U0_4core7convert4FromNtNtB7_4task20TaskPersistenceErrorE4from
FNDA:6,_RINvNtNtCs3oCotP8OZr6_5synod6domain7session12encoded_textNtNtB4_10governance13ApprovalStateEB6_
FNDA:14,_RINvNtNtCs3oCotP8OZr6_5synod6domain7session12encoded_textNtNtB4_10governance21GovernanceRuntimeKindEB6_
FNDA:31,_RINvNtNtCs3oCotP8OZr6_5synod6domain7session12encoded_textNtNtB4_10governance24GovernanceLifecycleStateEB6_
FNDA:13,_RINvNtNtCs3oCotP8OZr6_5synod6domain7session12encoded_textNtNtB4_10governance9CanonModeEB6_
FNDA:21,_RINvNtNtCs3oCotP8OZr6_5synod6domain7session15task_state_jsonNtNtB4_10governance18PacketReuseBindingEB6_
FNDA:28,_RINvNtNtCs3oCotP8OZr6_5synod6domain7session15task_state_jsonNtNtB4_10governance19GovernedStagePacketEB6_
FNDA:119,_RINvNtNtCs3oCotP8OZr6_5synod6domain7session15task_state_jsonNtNtB4_10governance19GovernedStageRecordEB6_
FNDA:15,_RINvNtNtCs3oCotP8OZr6_5synod6domain7session15task_state_jsonNtNtB4_10governance23AutopilotDecisionRecordEB6_
FNDA:6,_RNCINvNtNtCs3oCotP8OZr6_5synod6domain7session12encoded_textNtNtB6_10governance13ApprovalStateE0B8_
FNDA:14,_RNCINvNtNtCs3oCotP8OZr6_5synod6domain7session12encoded_textNtNtB6_10governance21GovernanceRuntimeKindE0B8_
FNDA:31,_RNCINvNtNtCs3oCotP8OZr6_5synod6domain7session12encoded_textNtNtB6_10governance24GovernanceLifecycleStateE0B8_
FNDA:13,_RNCINvNtNtCs3oCotP8OZr6_5synod6domain7session12encoded_textNtNtB6_10governance9CanonModeE0B8_
FNDA:15,_RNCINvNtNtCs3oCotP8OZr6_5synod6domain7session15task_state_jsonNtNtB6_10governance18PacketReuseBindingE0B8_
FNDA:22,_RNCINvNtNtCs3oCotP8OZr6_5synod6domain7session15task_state_jsonNtNtB6_10governance19GovernedStagePacketE0B8_
FNDA:93,_RNCINvNtNtCs3oCotP8OZr6_5synod6domain7session15task_state_jsonNtNtB6_10governance19GovernedStageRecordE0B8_
FNDA:9,_RNCINvNtNtCs3oCotP8OZr6_5synod6domain7session15task_state_jsonNtNtB6_10governance23AutopilotDecisionRecordE0B8_
FNDA:25,_RNCNCNCNvNtNtCs3oCotP8OZr6_5synod6domain7session18task_state_strings000Bb_
FNDA:0,_RNCNCNCNvNtNtCs3oCotP8OZr6_5synod6domain7session26trace_within_session_scope000Bb_
FNDA:37,_RNCNCNvMs_NtNtCs3oCotP8OZr6_5synod6domain7sessionNtB8_19ActiveSessionRecord24active_workflow_progress00Bc_
FNDA:25,_RNCNCNvNtNtCs3oCotP8OZr6_5synod6domain7session18task_state_strings00B9_
FNDA:0,_RNCNCNvNtNtCs3oCotP8OZr6_5synod6domain7session26task_state_review_headlines_00B9_
FNDA:0,_RNCNCNvNtNtCs3oCotP8OZr6_5synod6domain7session26trace_within_session_scope00B9_
FNDA:8,_RNCNCNvNtNtCs3oCotP8OZr6_5synod6domain7session39task_state_governance_candidate_actions00B9_
FNDA:0,_RNCNvMs3_NtNtCs3oCotP8OZr6_5synod6domain7sessionNtB7_17SessionStatusView8validate0Bb_
FNDA:0,_RNCNvMs3_NtNtCs3oCotP8OZr6_5synod6domain7sessionNtB7_17SessionStatusView8validates0_0Bb_
FNDA:27,_RNCNvMs3_NtNtCs3oCotP8OZr6_5synod6domain7sessionNtB7_17SessionStatusView8validates1_0Bb_
FNDA:0,_RNCNvMs3_NtNtCs3oCotP8OZr6_5synod6domain7sessionNtB7_17SessionStatusView8validates2_0Bb_
FNDA:27,_RNCNvMs3_NtNtCs3oCotP8OZr6_5synod6domain7sessionNtB7_17SessionStatusView8validates3_0Bb_
FNDA:0,_RNCNvMs3_NtNtCs3oCotP8OZr6_5synod6domain7sessionNtB7_17SessionStatusView8validates6_0Bb_
FNDA:0,_RNCNvMs3_NtNtCs3oCotP8OZr6_5synod6domain7sessionNtB7_17SessionStatusView8validates7_0Bb_
FNDA:24,_RNCNvMs3_NtNtCs3oCotP8OZr6_5synod6domain7sessionNtB7_17SessionStatusView8validates8_0Bb_
FNDA:0,_RNCNvMs3_NtNtCs3oCotP8OZr6_5synod6domain7sessionNtB7_17SessionStatusView8validates9_0Bb_
FNDA:0,_RNCNvMs3_NtNtCs3oCotP8OZr6_5synod6domain7sessionNtB7_17SessionStatusView8validates_0Bb_
FNDA:0,_RNCNvMs3_NtNtCs3oCotP8OZr6_5synod6domain7sessionNtB7_17SessionStatusView8validatesa_0Bb_
FNDA:0,_RNCNvMs3_NtNtCs3oCotP8OZr6_5synod6domain7sessionNtB7_17SessionStatusView8validatesb_0Bb_
FNDA:0,_RNCNvMs3_NtNtCs3oCotP8OZr6_5synod6domain7sessionNtB7_17SessionStatusView8validatesc_0Bb_
FNDA:22,_RNCNvMs3_NtNtCs3oCotP8OZr6_5synod6domain7sessionNtB7_17SessionStatusView8validatesd_0Bb_
FNDA:20,_RNCNvMs3_NtNtCs3oCotP8OZr6_5synod6domain7sessionNtB7_17SessionStatusView8validatese_0Bb_
FNDA:19,_RNCNvMs3_NtNtCs3oCotP8OZr6_5synod6domain7sessionNtB7_17SessionStatusView8validatesf_0Bb_
FNDA:18,_RNCNvMs3_NtNtCs3oCotP8OZr6_5synod6domain7sessionNtB7_17SessionStatusView8validatesg_0Bb_
FNDA:17,_RNCNvMs3_NtNtCs3oCotP8OZr6_5synod6domain7sessionNtB7_17SessionStatusView8validatesh_0Bb_
FNDA:0,_RNCNvMs3_NtNtCs3oCotP8OZr6_5synod6domain7sessionNtB7_17SessionStatusView8validatesi_0Bb_
FNDA:15,_RNCNvMs_NtNtCs3oCotP8OZr6_5synod6domain7sessionNtB6_19ActiveSessionRecord20active_workflow_name0Ba_
FNDA:177,_RNCNvMs_NtNtCs3oCotP8OZr6_5synod6domain7sessionNtB6_19ActiveSessionRecord24active_workflow_progress0Ba_
FNDA:0,_RNCNvMs_NtNtCs3oCotP8OZr6_5synod6domain7sessionNtB6_19ActiveSessionRecord8validate0Ba_
FNDA:0,_RNCNvMs_NtNtCs3oCotP8OZr6_5synod6domain7sessionNtB6_19ActiveSessionRecord8validates0_0Ba_
FNDA:0,_RNCNvMs_NtNtCs3oCotP8OZr6_5synod6domain7sessionNtB6_19ActiveSessionRecord8validates_0Ba_
FNDA:98,_RNCNvNtNtCs3oCotP8OZr6_5synod6domain7session17task_state_string0B7_
FNDA:25,_RNCNvNtNtCs3oCotP8OZr6_5synod6domain7session18task_state_strings0B7_
FNDA:17,_RNCNvNtNtCs3oCotP8OZr6_5synod6domain7session26task_state_review_headline0B7_
FNDA:0,_RNCNvNtNtCs3oCotP8OZr6_5synod6domain7session26task_state_review_headlines_0B7_
FNDA:0,_RNCNvNtNtCs3oCotP8OZr6_5synod6domain7session26trace_within_session_scope0B7_
FNDA:13,_RNCNvNtNtCs3oCotP8OZr6_5synod6domain7session31task_state_governance_mode_texts_0B7_
FNDA:3,_RNCNvNtNtCs3oCotP8OZr6_5synod6domain7session32task_state_governance_packet_refs_0B7_
FNDA:31,_RNCNvNtNtCs3oCotP8OZr6_5synod6domain7session32task_state_governance_state_text0B7_
FNDA:2,_RNCNvNtNtCs3oCotP8OZr6_5synod6domain7session33governance_packet_provenance_text0B7_
FNDA:2,_RNCNvNtNtCs3oCotP8OZr6_5synod6domain7session33governance_packet_provenance_texts_0B7_
FNDA:0,_RNCNvNtNtCs3oCotP8OZr6_5synod6domain7session33task_belongs_to_session_workspace0B7_
FNDA:0,_RNCNvNtNtCs3oCotP8OZr6_5synod6domain7session33task_belongs_to_session_workspaces0_0B7_
FNDA:0,_RNCNvNtNtCs3oCotP8OZr6_5synod6domain7session33task_belongs_to_session_workspaces_0B7_
FNDA:0,_RNCNvNtNtCs3oCotP8OZr6_5synod6domain7session34task_state_attempt_lineage_summary0B7_
FNDA:22,_RNCNvNtNtCs3oCotP8OZr6_5synod6domain7session34task_state_attempt_lineage_summarys_0B7_
FNDA:14,_RNCNvNtNtCs3oCotP8OZr6_5synod6domain7session34task_state_governance_runtime_text0B7_
FNDA:47,_RNCNvNtNtCs3oCotP8OZr6_5synod6domain7session34task_state_workspace_slice_summary0B7_
FNDA:6,_RNCNvNtNtCs3oCotP8OZr6_5synod6domain7session35task_state_governance_approval_text0B7_
FNDA:4,_RNCNvNtNtCs3oCotP8OZr6_5synod6domain7session39task_state_governance_candidate_actions0B7_
FNF:123
FNH:91
DA:40,81
DA:41,81
DA:42,81
DA:87,63
DA:88,63
DA:89,0
DA:90,63
DA:92,63
DA:93,0
DA:94,63
DA:96,63
DA:97,0
DA:98,0
DA:99,0
DA:100,0
DA:101,63
DA:103,63
DA:104,40
DA:106,1
DA:107,62
DA:109,62
DA:110,26
DA:111,21
DA:113,0
DA:114,62
DA:116,62
DA:117,23
DA:118,23
DA:119,23
DA:120,39
DA:122,62
DA:123,10
DA:124,0
DA:125,0
DA:126,52
DA:128,62
DA:129,0
DA:130,62
DA:132,62
DA:133,5
DA:134,5
DA:136,5
DA:137,0
DA:138,0
DA:139,0
DA:140,0
DA:141,5
DA:143,5
DA:144,5
DA:146,0
DA:147,0
DA:148,0
DA:149,0
DA:150,5
DA:152,5
DA:153,5
DA:155,0
DA:156,0
DA:157,0
DA:158,0
DA:159,5
DA:160,57
DA:162,62
DA:163,12
DA:165,0
DA:166,0
DA:167,0
DA:168,0
DA:169,62
DA:171,62
DA:172,63
DA:174,217
DA:175,217
DA:176,177
DA:177,177
DA:178,217
DA:180,71
DA:181,71
DA:182,71
DA:184,56
DA:185,56
DA:186,56
DA:188,60
DA:189,60
DA:190,60
DA:193,5
DA:194,5
DA:195,5
DA:196,5
DA:197,5
DA:198,5
DA:199,0
DA:201,0
DA:202,0
DA:203,0
DA:204,0
DA:206,0
DA:209,0
DA:210,0
DA:211,0
DA:213,0
DA:214,0
DA:215,0
DA:216,0
DA:217,0
DA:218,5
DA:230,0
DA:231,0
DA:232,0
DA:233,0
DA:235,0
DA:236,0
DA:237,0
DA:238,0
DA:239,0
DA:240,0
DA:242,0
DA:243,0
DA:244,0
DA:245,0
DA:246,0
DA:247,0
DA:249,0
DA:250,0
DA:262,0
DA:263,0
DA:264,0
DA:265,0
DA:266,0
DA:268,0
DA:280,0
DA:281,0
DA:282,0
DA:283,0
DA:284,0
DA:286,0
DA:421,27
DA:422,27
DA:423,0
DA:424,0
DA:425,0
DA:426,0
DA:427,27
DA:429,27
DA:430,0
DA:431,0
DA:432,0
DA:433,0
DA:434,27
DA:436,27
DA:437,0
DA:438,0
DA:439,0
DA:440,0
DA:441,27
DA:443,27
DA:444,0
DA:445,0
DA:446,0
DA:447,0
DA:448,27
DA:450,27
DA:451,27
DA:452,27
DA:453,0
DA:454,0
DA:455,0
DA:456,0
DA:457,27
DA:459,27
DA:460,27
DA:461,27
DA:462,27
DA:463,27
DA:464,0
DA:465,0
DA:466,0
DA:467,0
DA:468,27
DA:470,27
DA:471,27
DA:472,27
DA:473,27
DA:474,27
DA:475,0
DA:476,0
DA:477,0
DA:478,0
DA:479,27
DA:481,27
DA:482,27
DA:483,0
DA:484,0
DA:485,0
DA:486,0
DA:487,27
DA:489,27
DA:490,27
DA:491,27
DA:492,0
DA:493,0
DA:494,0
DA:495,0
DA:496,27
DA:498,27
DA:499,27
DA:500,0
DA:501,0
DA:502,0
DA:503,0
DA:504,27
DA:506,27
DA:507,27
DA:508,0
DA:509,0
DA:510,0
DA:511,0
DA:512,27
DA:514,27
DA:515,27
DA:516,0
DA:517,0
DA:518,0
DA:519,0
DA:520,27
DA:522,27
DA:523,27
DA:524,27
DA:525,0
DA:526,0
DA:527,0
DA:528,0
DA:529,27
DA:531,27
DA:532,27
DA:533,1
DA:534,1
DA:535,1
DA:536,1
DA:537,26
DA:539,26
DA:540,26
DA:541,1
DA:542,1
DA:543,1
DA:544,1
DA:545,25
DA:547,25
DA:548,1
DA:549,1
DA:550,1
DA:551,1
DA:552,24
DA:554,24
DA:555,24
DA:556,24
DA:557,24
DA:558,24
DA:559,0
DA:560,0
DA:561,0
DA:562,0
DA:563,24
DA:565,24
DA:566,24
DA:567,24
DA:568,0
DA:569,0
DA:570,0
DA:571,0
DA:572,24
DA:574,24
DA:575,24
DA:576,24
DA:577,24
DA:578,24
DA:579,1
DA:580,1
DA:581,1
DA:582,1
DA:583,23
DA:585,23
DA:586,23
DA:587,23
DA:588,1
DA:589,1
DA:590,1
DA:591,1
DA:592,22
DA:594,22
DA:595,22
DA:596,0
DA:597,0
DA:598,0
DA:599,22
DA:601,0
DA:602,0
DA:603,0
DA:604,0
DA:605,0
DA:606,0
DA:607,22
DA:609,22
DA:610,22
DA:611,22
DA:612,0
DA:613,0
DA:614,0
DA:615,0
DA:616,22
DA:618,22
DA:619,22
DA:620,22
DA:621,0
DA:622,0
DA:623,0
DA:624,0
DA:625,22
DA:627,22
DA:628,22
DA:629,22
DA:630,0
DA:631,0
DA:632,0
DA:633,0
DA:634,22
DA:636,22
DA:637,22
DA:638,22
DA:639,22
DA:640,22
DA:641,1
DA:642,1
DA:643,1
DA:644,1
DA:645,21
DA:647,21
DA:648,21
DA:649,21
DA:650,1
DA:651,1
DA:652,1
DA:653,1
DA:654,20
DA:656,20
DA:657,20
DA:658,20
DA:659,20
DA:660,20
DA:661,1
DA:662,1
DA:663,1
DA:664,1
DA:665,19
DA:667,19
DA:668,19
DA:669,19
DA:670,19
DA:671,19
DA:672,1
DA:673,1
DA:674,1
DA:675,1
DA:676,18
DA:678,18
DA:679,18
DA:680,18
DA:681,18
DA:682,18
DA:683,1
DA:684,1
DA:685,1
DA:686,1
DA:687,17
DA:689,17
DA:690,17
DA:691,17
DA:692,17
DA:693,17
DA:694,1
DA:695,1
DA:696,1
DA:697,1
DA:698,16
DA:700,16
DA:701,16
DA:702,16
DA:703,1
DA:704,1
DA:705,1
DA:706,1
DA:707,15
DA:709,15
DA:710,15
DA:711,15
DA:712,1
DA:713,1
DA:714,1
DA:715,1
DA:716,14
DA:718,14
DA:719,14
DA:720,14
DA:721,1
DA:722,1
DA:723,1
DA:724,1
DA:725,13
DA:727,13
DA:728,13
DA:729,13
DA:730,1
DA:731,1
DA:732,1
DA:733,1
DA:734,12
DA:736,12
DA:737,12
DA:738,12
DA:739,1
DA:740,1
DA:741,1
DA:742,1
DA:743,11
DA:745,11
DA:746,11
DA:747,11
DA:748,1
DA:749,1
DA:750,1
DA:751,1
DA:752,10
DA:754,10
DA:755,10
DA:756,10
DA:757,1
DA:758,1
DA:759,1
DA:760,1
DA:761,9
DA:763,9
DA:764,9
DA:765,9
DA:766,1
DA:767,1
DA:768,1
DA:769,1
DA:770,8
DA:772,8
DA:773,8
DA:774,8
DA:775,1
DA:776,1
DA:777,1
DA:778,1
DA:779,7
DA:781,7
DA:782,7
DA:783,7
DA:785,1
DA:786,1
DA:787,1
DA:788,1
DA:789,6
DA:791,6
DA:792,6
DA:793,6
DA:794,1
DA:795,1
DA:796,1
DA:797,1
DA:798,5
DA:800,5
DA:801,5
DA:802,5
DA:803,1
DA:804,1
DA:805,1
DA:806,1
DA:807,4
DA:809,4
DA:810,4
DA:811,4
DA:812,1
DA:813,1
DA:814,1
DA:815,1
DA:816,3
DA:818,3
DA:819,3
DA:820,3
DA:821,0
DA:822,0
DA:823,0
DA:824,0
DA:825,3
DA:827,3
DA:828,1
DA:829,2
DA:831,2
DA:832,1
DA:834,0
DA:835,2
DA:837,2
DA:838,2
DA:840,1
DA:841,1
DA:843,1
DA:844,1
DA:845,1
DA:846,1
DA:847,1
DA:848,1
DA:849,1
DA:850,0
DA:852,0
DA:853,0
DA:854,0
DA:855,0
DA:856,0
DA:857,0
DA:858,0
DA:860,0
DA:861,0
DA:862,0
DA:863,0
DA:864,0
DA:865,0
DA:866,0
DA:868,0
DA:869,27
DA:881,70
DA:882,70
DA:883,36
DA:884,6
DA:885,28
DA:887,70
DA:900,70
DA:901,70
DA:902,38
DA:903,6
DA:904,6
DA:905,20
DA:907,70
DA:918,29
DA:919,29
DA:920,8
DA:922,6
DA:925,2
DA:928,6
DA:930,7
DA:932,29
DA:935,71
DA:936,71
DA:937,45
DA:938,3
DA:939,3
DA:940,3
DA:941,3
DA:942,3
DA:943,42
DA:945,42
DA:946,42
DA:947,42
DA:948,42
DA:949,42
DA:950,26
DA:952,26
DA:953,7
DA:954,7
DA:955,7
DA:956,7
DA:957,7
DA:958,19
DA:960,19
DA:961,6
DA:962,6
DA:963,6
DA:964,6
DA:965,6
DA:966,13
DA:968,13
DA:969,13
DA:970,13
DA:971,13
DA:972,13
DA:973,71
DA:975,29
DA:976,29
DA:977,29
DA:979,4
DA:980,4
DA:981,0
DA:982,0
DA:983,4
DA:984,0
DA:985,0
DA:987,4
DA:1147,63
DA:1148,63
DA:1149,63
DA:1151,62
DA:1152,36
DA:1153,62
DA:1161,62
DA:1163,21
DA:1164,21
DA:1165,21
DA:1166,21
DA:1167,0
DA:1168,21
DA:1175,21
DA:1176,21
DA:1178,5
DA:1179,5
DA:1180,2
DA:1181,0
DA:1182,3
DA:1183,0
DA:1184,0
DA:1185,0
DA:1186,0
DA:1188,5
DA:1190,14
DA:1191,14
DA:1192,14
DA:1193,12
DA:1195,2
DA:1197,14
DA:1199,12
DA:1200,12
DA:1201,12
DA:1202,0
DA:1204,0
DA:1205,0
DA:1206,0
DA:1207,0
DA:1208,0
DA:1209,0
DA:1210,0
DA:1211,0
DA:1212,12
DA:1214,112
DA:1215,112
DA:1216,112
DA:1218,183
DA:1219,183
DA:1220,183
DA:1222,29
DA:1223,29
DA:1224,25
DA:1225,25
DA:1226,25
DA:1227,25
DA:1228,29
DA:1230,119
DA:1231,119
DA:1232,119
DA:1234,28
DA:1235,28
DA:1236,28
DA:1238,21
DA:1239,21
DA:1240,21
DA:1242,15
DA:1243,15
DA:1244,15
DA:1246,64
DA:1247,64
DA:1248,64
DA:1250,8
DA:1251,8
DA:1252,4
DA:1254,0
DA:1256,0
DA:1257,0
DA:1258,4
DA:1259,0
DA:1261,8
DA:1263,18
DA:1264,18
DA:1265,18
DA:1267,17
DA:1268,17
DA:1269,17
DA:1271,16
DA:1272,16
DA:1273,16
DA:1274,16
DA:1275,16
DA:1277,15
DA:1278,15
DA:1279,15
DA:1281,39
DA:1282,39
DA:1283,39
DA:1285,18
DA:1286,18
DA:1287,18
DA:1289,12
DA:1290,12
DA:1291,12
DA:1292,12
DA:1293,12
DA:1295,11
DA:1296,11
DA:1297,11
DA:1299,10
DA:1300,10
DA:1301,10
DA:1303,6
DA:1304,6
DA:1305,6
DA:1306,6
DA:1307,6
DA:1308,6
DA:1309,6
DA:1311,6
DA:1312,1
DA:1313,1
DA:1315,1
DA:1316,1
DA:1317,3
DA:1319,6
DA:1321,9
DA:1322,9
DA:1323,9
DA:1325,8
DA:1326,8
DA:1327,8
DA:1329,7
DA:1330,7
DA:1331,4
DA:1332,4
DA:1333,4
DA:1334,8
DA:1335,4
DA:1336,4
DA:1337,7
DA:1339,11
DA:1340,11
DA:1341,4
DA:1342,1
DA:1343,1
DA:1345,7
DA:1347,11
DA:1349,6
DA:1350,6
DA:1351,6
DA:1352,6
DA:1354,27
DA:1355,27
DA:1356,24
DA:1357,47
DA:1359,24
DA:1360,27
DA:1362,25
DA:1363,25
DA:1364,22
DA:1365,22
DA:1366,22
DA:1368,22
DA:1369,0
DA:1370,22
DA:1372,25
DA:1374,18
DA:1375,18
DA:1376,18
DA:1377,18
DA:1378,18
DA:1379,18
DA:1380,18
DA:1381,18
DA:1382,17
DA:1383,17
DA:1384,17
DA:1385,17
DA:1386,1
DA:1388,1
DA:1389,1
DA:1390,1
DA:1391,1
DA:1392,1
DA:1393,1
DA:1394,0
DA:1395,0
DA:1396,0
DA:1397,0
DA:1398,0
DA:1399,0
DA:1400,0
DA:1401,0
DA:1402,0
DA:1403,0
DA:1404,1
DA:1406,1
DA:1407,1
DA:1409,0
DA:1411,18
DA:1414,1
DA:1415,1
DA:1416,1
DA:1434,3
DA:1435,3
DA:1436,3
DA:1437,3
DA:1438,3
DA:1439,3
DA:1440,3
DA:1441,3
DA:1442,3
DA:1443,3
DA:1444,3
DA:1445,3
DA:1447,2
DA:1448,2
DA:1449,2
DA:1450,2
DA:1451,2
DA:1452,2
DA:1453,2
DA:1454,2
DA:1455,2
DA:1456,2
DA:1457,2
DA:1458,2
DA:1459,2
DA:1460,2
DA:1461,2
DA:1462,2
DA:1463,2
DA:1464,2
DA:1465,2
DA:1466,2
DA:1467,2
DA:1468,2
DA:1470,5
DA:1472,5
DA:1473,5
DA:1474,5
DA:1475,5
DA:1476,5
DA:1477,5
DA:1478,5
DA:1479,5
DA:1480,5
DA:1481,5
DA:1482,5
DA:1483,5
DA:1484,5
DA:1485,5
DA:1486,5
DA:1487,5
DA:1488,5
DA:1489,5
DA:1490,5
DA:1491,5
DA:1492,5
DA:1493,5
DA:1494,5
DA:1495,5
DA:1496,5
DA:1497,5
DA:1498,5
DA:1499,5
DA:1500,5
DA:1501,5
DA:1502,5
DA:1503,5
DA:1504,5
DA:1505,5
DA:1506,5
DA:1507,5
DA:1508,5
DA:1509,5
DA:1510,5
DA:1511,5
DA:1512,5
DA:1513,5
DA:1514,5
DA:1515,5
DA:1516,5
DA:1517,5
DA:1518,5
DA:1519,5
DA:1520,5
DA:1521,5
DA:1522,5
DA:1523,5
DA:1524,5
DA:1525,5
DA:1526,5
DA:1527,5
DA:1528,5
DA:1529,5
DA:1530,5
DA:1531,5
DA:1532,5
DA:1533,5
DA:1534,5
DA:1535,5
DA:1536,5
DA:1537,5
DA:1538,5
DA:1539,5
DA:1540,5
DA:1541,5
DA:1542,5
DA:1543,5
DA:1544,5
DA:1545,5
DA:1546,5
DA:1548,5
DA:1550,1
DA:1551,1
DA:1552,1
DA:1553,1
DA:1554,1
DA:1555,1
DA:1556,1
DA:1558,1
DA:1559,1
DA:1560,1
DA:1561,1
DA:1562,1
DA:1563,1
DA:1564,1
DA:1565,1
DA:1566,1
DA:1569,1
DA:1570,1
DA:1571,1
DA:1572,1
DA:1573,1
DA:1574,1
DA:1575,1
DA:1576,1
DA:1577,1
DA:1578,1
DA:1581,1
DA:1582,1
DA:1583,1
DA:1584,1
DA:1585,1
DA:1586,1
DA:1587,1
DA:1588,1
DA:1589,1
DA:1590,1
DA:1591,1
DA:1592,1
DA:1593,1
DA:1594,1
DA:1595,1
DA:1596,1
DA:1597,1
DA:1598,1
DA:1599,1
DA:1600,1
DA:1601,1
DA:1602,1
DA:1603,1
DA:1604,1
DA:1605,1
DA:1606,1
DA:1607,1
DA:1608,1
DA:1609,1
DA:1610,1
DA:1611,1
DA:1612,1
DA:1613,1
DA:1614,1
DA:1615,1
DA:1616,1
DA:1617,1
DA:1618,1
DA:1619,1
DA:1620,1
DA:1621,1
DA:1622,1
DA:1623,1
DA:1624,1
DA:1625,1
DA:1626,1
DA:1627,1
DA:1628,1
DA:1629,1
DA:1630,1
DA:1631,1
DA:1632,1
DA:1633,1
DA:1634,1
DA:1636,1
DA:1637,1
DA:1639,1
DA:1640,1
DA:1641,1
DA:1642,1
DA:1643,1
DA:1644,1
DA:1645,1
DA:1646,1
DA:1647,1
DA:1648,1
DA:1649,1
DA:1650,1
DA:1651,1
DA:1652,1
DA:1653,1
DA:1654,1
DA:1655,1
DA:1656,1
DA:1657,1
DA:1658,1
DA:1659,1
DA:1660,1
DA:1661,1
DA:1662,1
DA:1663,1
DA:1664,1
DA:1665,1
DA:1666,1
DA:1667,1
DA:1668,1
DA:1669,1
DA:1670,1
DA:1671,1
DA:1672,1
DA:1673,1
DA:1674,1
DA:1675,1
DA:1676,1
DA:1677,1
DA:1680,1
DA:1681,1
DA:1682,1
DA:1684,1
DA:1685,1
DA:1686,1
DA:1687,1
DA:1691,1
DA:1692,1
DA:1693,1
DA:1694,1
DA:1697,1
DA:1698,1
DA:1699,1
DA:1700,1
DA:1704,1
DA:1705,1
DA:1706,1
DA:1707,1
DA:1710,1
DA:1713,1
DA:1714,1
DA:1715,1
DA:1716,1
DA:1717,1
DA:1719,1
DA:1721,1
DA:1722,1
DA:1723,1
DA:1725,1
DA:1726,1
DA:1727,1
DA:1729,1
DA:1730,1
DA:1733,1
DA:1734,1
DA:1735,1
DA:1737,1
DA:1738,1
DA:1739,1
DA:1740,1
DA:1741,1
DA:1742,1
DA:1744,1
DA:1745,1
DA:1746,1
DA:1748,1
DA:1749,1
DA:1750,1
DA:1751,1
DA:1752,1
DA:1753,1
DA:1756,1
DA:1757,1
DA:1758,1
DA:1759,1
DA:1760,1
DA:1761,1
DA:1762,1
DA:1766,1
DA:1767,1
DA:1768,1
DA:1770,1
DA:1771,1
DA:1772,1
DA:1774,1
DA:1775,1
DA:1776,1
DA:1777,1
DA:1779,1
DA:1780,1
DA:1781,1
DA:1782,1
DA:1784,1
DA:1787,1
DA:1788,1
DA:1789,1
DA:1798,1
DA:1799,1
DA:1800,1
DA:1801,1
DA:1805,1
DA:1806,1
DA:1807,1
DA:1808,1
DA:1812,1
DA:1813,1
DA:1814,1
DA:1815,1
DA:1819,1
DA:1820,1
DA:1821,1
DA:1822,1
DA:1823,1
DA:1827,1
DA:1828,1
DA:1829,1
DA:1830,1
DA:1834,1
DA:1835,1
DA:1836,1
DA:1837,1
DA:1841,1
DA:1842,1
DA:1843,1
DA:1844,1
DA:1848,1
DA:1849,1
DA:1850,1
DA:1851,1
DA:1855,1
DA:1856,1
DA:1857,1
DA:1858,1
DA:1859,1
DA:1863,1
DA:1864,1
DA:1865,1
DA:1866,1
DA:1870,1
DA:1871,1
DA:1872,1
DA:1873,1
DA:1877,1
DA:1878,1
DA:1879,1
DA:1880,1
DA:1884,1
DA:1885,1
DA:1886,1
DA:1887,1
DA:1891,1
DA:1892,1
DA:1893,1
DA:1894,1
DA:1898,1
DA:1899,1
DA:1900,1
DA:1901,1
DA:1902,1
DA:1906,1
DA:1907,1
DA:1908,1
DA:1909,1
DA:1910,1
DA:1914,1
DA:1915,1
DA:1916,1
DA:1917,1
DA:1918,1
DA:1922,1
DA:1923,1
DA:1924,1
DA:1925,1
DA:1926,1
DA:1930,1
DA:1931,1
DA:1932,1
DA:1933,1
DA:1937,1
DA:1938,1
DA:1939,1
DA:1940,1
DA:1941,1
DA:1945,1
DA:1946,1
DA:1947,1
DA:1948,1
DA:1949,1
DA:1953,1
DA:1954,1
DA:1955,1
DA:1957,1
DA:1958,1
DA:1959,1
DA:1960,1
DA:1963,1
DA:1964,1
DA:1965,1
DA:1966,1
DA:1968,1
BRF:0
BRH:0
LF:1276
LH:1040
end_of_record
SF:/Users/rt/workspace/synod/src/domain/step.rs
FN:50,_RINvMNtNtCs3oCotP8OZr6_5synod6domain4stepNtB3_9ErrorInfo3newReBW_EB7_
FN:50,_RINvMNtNtCs3oCotP8OZr6_5synod6domain4stepNtB3_9ErrorInfo3newReNtNtCs1OjIl8oxbrv_5alloc6string6StringEB7_
FN:255,_RINvMs1_NtNtCs3oCotP8OZr6_5synod6domain4stepNtB6_11StepAttempt3newNtNtCs1OjIl8oxbrv_5alloc6string6StringEBa_
FN:74,_RINvMs_NtNtCs3oCotP8OZr6_5synod6domain4stepNtB5_4Step3newNtNtCs1OjIl8oxbrv_5alloc6string6StringEB9_
FN:74,_RINvMs_NtNtCs3oCotP8OZr6_5synod6domain4stepNtB5_4Step3newReEB9_
FN:112,_RINvMs_NtNtCs3oCotP8OZr6_5synod6domain4stepNtB5_4Step4toolNtNtCs1OjIl8oxbrv_5alloc6string6StringReEB9_
FN:112,_RINvMs_NtNtCs3oCotP8OZr6_5synod6domain4stepNtB5_4Step4toolReBU_EB9_
FN:104,_RINvMs_NtNtCs3oCotP8OZr6_5synod6domain4stepNtB5_4Step5agentNtNtCs1OjIl8oxbrv_5alloc6string6StringReEB9_
FN:104,_RINvMs_NtNtCs3oCotP8OZr6_5synod6domain4stepNtB5_4Step5agentReBV_EB9_
FN:120,_RINvMs_NtNtCs3oCotP8OZr6_5synod6domain4stepNtB5_4Step8decisionReEB9_
FN:270,_RNCNCNvMs1_NtNtCs3oCotP8OZr6_5synod6domain4stepNtB9_11StepAttempt8complete00Bd_
FN:269,_RNCNvMs1_NtNtCs3oCotP8OZr6_5synod6domain4stepNtB7_11StepAttempt8complete0Bb_
FN:54,_RNvMNtNtCs3oCotP8OZr6_5synod6domain4stepNtB2_9ErrorInfo12with_details
FN:199,_RNvMs0_NtNtCs3oCotP8OZr6_5synod6domain4stepNtB5_19StepExecutionResult13with_evidence
FN:204,_RNvMs0_NtNtCs3oCotP8OZr6_5synod6domain4stepNtB5_19StepExecutionResult16with_state_patch
FN:184,_RNvMs0_NtNtCs3oCotP8OZr6_5synod6domain4stepNtB5_19StepExecutionResult18success_with_patch
FN:188,_RNvMs0_NtNtCs3oCotP8OZr6_5synod6domain4stepNtB5_19StepExecutionResult7failure
FN:173,_RNvMs0_NtNtCs3oCotP8OZr6_5synod6domain4stepNtB5_19StepExecutionResult7success
FN:209,_RNvMs0_NtNtCs3oCotP8OZr6_5synod6domain4stepNtB5_19StepExecutionResult8validate
FN:267,_RNvMs1_NtNtCs3oCotP8OZr6_5synod6domain4stepNtB5_11StepAttempt8complete
FN:288,_RNvMs2_NtNtCs3oCotP8OZr6_5synod6domain4stepNtB5_17StepResultSummary9from_step
FN:136,_RNvMs_NtNtCs3oCotP8OZr6_5synod6domain4stepNtB4_4Step11mark_failed
FN:124,_RNvMs_NtNtCs3oCotP8OZr6_5synod6domain4stepNtB4_4Step12mark_running
FN:129,_RNvMs_NtNtCs3oCotP8OZr6_5synod6domain4stepNtB4_4Step14mark_succeeded
FNDA:22,_RINvMNtNtCs3oCotP8OZr6_5synod6domain4stepNtB3_9ErrorInfo3newReBW_EB7_
FNDA:21,_RINvMNtNtCs3oCotP8OZr6_5synod6domain4stepNtB3_9ErrorInfo3newReNtNtCs1OjIl8oxbrv_5alloc6string6StringEB7_
FNDA:31,_RINvMs1_NtNtCs3oCotP8OZr6_5synod6domain4stepNtB6_11StepAttempt3newNtNtCs1OjIl8oxbrv_5alloc6string6StringEBa_
FNDA:68,_RINvMs_NtNtCs3oCotP8OZr6_5synod6domain4stepNtB5_4Step3newNtNtCs1OjIl8oxbrv_5alloc6string6StringEB9_
FNDA:183,_RINvMs_NtNtCs3oCotP8OZr6_5synod6domain4stepNtB5_4Step3newReEB9_
FNDA:34,_RINvMs_NtNtCs3oCotP8OZr6_5synod6domain4stepNtB5_4Step4toolNtNtCs1OjIl8oxbrv_5alloc6string6StringReEB9_
FNDA:38,_RINvMs_NtNtCs3oCotP8OZr6_5synod6domain4stepNtB5_4Step4toolReBU_EB9_
FNDA:34,_RINvMs_NtNtCs3oCotP8OZr6_5synod6domain4stepNtB5_4Step5agentNtNtCs1OjIl8oxbrv_5alloc6string6StringReEB9_
FNDA:82,_RINvMs_NtNtCs3oCotP8OZr6_5synod6domain4stepNtB5_4Step5agentReBV_EB9_
FNDA:63,_RINvMs_NtNtCs3oCotP8OZr6_5synod6domain4stepNtB5_4Step8decisionReEB9_
FNDA:12,_RNCNCNvMs1_NtNtCs3oCotP8OZr6_5synod6domain4stepNtB9_11StepAttempt8complete00Bd_
FNDA:12,_RNCNvMs1_NtNtCs3oCotP8OZr6_5synod6domain4stepNtB7_11StepAttempt8complete0Bb_
FNDA:4,_RNvMNtNtCs3oCotP8OZr6_5synod6domain4stepNtB2_9ErrorInfo12with_details
FNDA:13,_RNvMs0_NtNtCs3oCotP8OZr6_5synod6domain4stepNtB5_19StepExecutionResult13with_evidence
FNDA:2,_RNvMs0_NtNtCs3oCotP8OZr6_5synod6domain4stepNtB5_19StepExecutionResult16with_state_patch
FNDA:40,_RNvMs0_NtNtCs3oCotP8OZr6_5synod6domain4stepNtB5_19StepExecutionResult18success_with_patch
FNDA:42,_RNvMs0_NtNtCs3oCotP8OZr6_5synod6domain4stepNtB5_19StepExecutionResult7failure
FNDA:54,_RNvMs0_NtNtCs3oCotP8OZr6_5synod6domain4stepNtB5_19StepExecutionResult7success
FNDA:32,_RNvMs0_NtNtCs3oCotP8OZr6_5synod6domain4stepNtB5_19StepExecutionResult8validate
FNDA:31,_RNvMs1_NtNtCs3oCotP8OZr6_5synod6domain4stepNtB5_11StepAttempt8complete
FNDA:31,_RNvMs2_NtNtCs3oCotP8OZr6_5synod6domain4stepNtB5_17StepResultSummary9from_step
FNDA:12,_RNvMs_NtNtCs3oCotP8OZr6_5synod6domain4stepNtB4_4Step11mark_failed
FNDA:33,_RNvMs_NtNtCs3oCotP8OZr6_5synod6domain4stepNtB4_4Step12mark_running
FNDA:19,_RNvMs_NtNtCs3oCotP8OZr6_5synod6domain4stepNtB4_4Step14mark_succeeded
FNF:20
FNH:20
DA:50,43
DA:51,43
DA:52,43
DA:54,4
DA:55,4
DA:56,4
DA:57,4
DA:74,251
DA:75,251
DA:76,251
DA:77,251
DA:78,251
DA:79,251
DA:80,251
DA:81,251
DA:82,0
DA:83,251
DA:85,251
DA:86,188
DA:88,0
DA:89,251
DA:91,251
DA:92,251
DA:93,251
DA:94,251
DA:95,251
DA:96,251
DA:97,251
DA:98,251
DA:99,251
DA:100,251
DA:101,251
DA:102,251
DA:104,116
DA:105,116
DA:106,116
DA:107,116
DA:108,116
DA:109,116
DA:110,116
DA:112,72
DA:113,72
DA:114,72
DA:115,72
DA:116,72
DA:117,72
DA:118,72
DA:120,63
DA:121,63
DA:122,63
DA:124,33
DA:125,33
DA:126,33
DA:127,33
DA:129,19
DA:130,19
DA:131,19
DA:132,19
DA:133,19
DA:134,19
DA:136,12
DA:137,12
DA:138,12
DA:139,12
DA:140,12
DA:141,12
DA:173,54
DA:174,54
DA:175,54
DA:176,54
DA:177,54
DA:178,54
DA:179,54
DA:180,54
DA:181,54
DA:182,54
DA:184,40
DA:185,40
DA:186,40
DA:188,42
DA:189,42
DA:190,42
DA:191,42
DA:192,42
DA:193,42
DA:194,42
DA:195,42
DA:196,42
DA:197,42
DA:199,13
DA:200,13
DA:201,13
DA:202,13
DA:204,2
DA:205,2
DA:206,2
DA:207,2
DA:209,32
DA:210,32
DA:212,21
DA:213,2
DA:214,19
DA:215,19
DA:216,0
DA:217,19
DA:220,11
DA:221,0
DA:222,11
DA:223,11
DA:224,0
DA:225,11
DA:229,30
DA:230,32
DA:255,31
DA:256,31
DA:257,31
DA:258,31
DA:259,31
DA:260,31
DA:261,31
DA:262,31
DA:263,31
DA:264,31
DA:265,31
DA:267,31
DA:268,31
DA:269,31
DA:270,12
DA:271,12
DA:272,31
DA:273,12
DA:274,19
DA:275,31
DA:288,31
DA:289,31
DA:290,31
DA:291,31
DA:292,31
DA:293,31
DA:294,31
DA:295,31
DA:296,31
BRF:0
BRH:0
LF:144
LH:139
end_of_record
SF:/Users/rt/workspace/synod/src/domain/task.rs
FN:264,_RNvXs3_NtNtCs3oCotP8OZr6_5synod6domain4taskNtB5_16TaskRequestErrorINtNtCsl8K0bEFm1U0_4core7convert4FromNtNtB7_4plan9PlanErrorE4from
FN:270,_RNvXs4_NtNtCs3oCotP8OZr6_5synod6domain4taskNtB5_16TaskRequestErrorINtNtCsl8K0bEFm1U0_4core7convert4FromNtNtB7_12task_context16TaskContextErrorE4from
FN:21,_RNvMNtNtCs3oCotP8OZr6_5synod6domain4taskNtB2_10TaskStatus11is_terminal
FN:76,_RNvMs0_NtNtCs3oCotP8OZr6_5synod6domain4taskNtB5_19ClarificationRecord8headline
FN:123,_RNvMs1_NtNtCs3oCotP8OZr6_5synod6domain4taskNtB5_14TaskRunRequest8validate
FN:197,_RNvMs2_NtNtCs3oCotP8OZr6_5synod6domain4taskNtB5_4Task12mark_running
FN:201,_RNvMs2_NtNtCs3oCotP8OZr6_5synod6domain4taskNtB5_4Task14apply_terminal
FN:206,_RNvMs2_NtNtCs3oCotP8OZr6_5synod6domain4taskNtB5_4Task24validate_persisted_state
FN:166,_RINvMs2_NtNtCs3oCotP8OZr6_5synod6domain4taskNtB6_4Task3newNtNtCs1OjIl8oxbrv_5alloc6string6StringEBa_
FN:166,_RINvMs2_NtNtCs3oCotP8OZr6_5synod6domain4taskNtB6_4Task3newReEBa_
FN:35,_RINvMs_NtNtCs3oCotP8OZr6_5synod6domain4taskNtB5_14TerminalReason3newNtNtCs1OjIl8oxbrv_5alloc6string6StringEB9_
FN:35,_RINvMs_NtNtCs3oCotP8OZr6_5synod6domain4taskNtB5_14TerminalReason3newReEB9_
FN:172,_RNCINvMs2_NtNtCs3oCotP8OZr6_5synod6domain4taskNtB8_4Task3newNtNtCs1OjIl8oxbrv_5alloc6string6StringE0Bc_
FN:180,_RNCINvMs2_NtNtCs3oCotP8OZr6_5synod6domain4taskNtB8_4Task3newNtNtCs1OjIl8oxbrv_5alloc6string6StringEs_0Bc_
FN:172,_RNCINvMs2_NtNtCs3oCotP8OZr6_5synod6domain4taskNtB8_4Task3newReE0Bc_
FN:180,_RNCINvMs2_NtNtCs3oCotP8OZr6_5synod6domain4taskNtB8_4Task3newReEs_0Bc_
FN:136,_RNCNvMs1_NtNtCs3oCotP8OZr6_5synod6domain4taskNtB7_14TaskRunRequest8validate0Bb_
FN:217,_RNCNvMs2_NtNtCs3oCotP8OZr6_5synod6domain4taskNtB7_4Task24validate_persisted_state0Bb_
FN:223,_RNCNvMs2_NtNtCs3oCotP8OZr6_5synod6domain4taskNtB7_4Task24validate_persisted_states0_0Bb_
FN:220,_RNCNvMs2_NtNtCs3oCotP8OZr6_5synod6domain4taskNtB7_4Task24validate_persisted_states_0Bb_
FNDA:0,_RNvXs3_NtNtCs3oCotP8OZr6_5synod6domain4taskNtB5_16TaskRequestErrorINtNtCsl8K0bEFm1U0_4core7convert4FromNtNtB7_4plan9PlanErrorE4from
FNDA:0,_RNvXs4_NtNtCs3oCotP8OZr6_5synod6domain4taskNtB5_16TaskRequestErrorINtNtCsl8K0bEFm1U0_4core7convert4FromNtNtB7_12task_context16TaskContextErrorE4from
FNDA:37,_RNvMNtNtCs3oCotP8OZr6_5synod6domain4taskNtB2_10TaskStatus11is_terminal
FNDA:0,_RNvMs0_NtNtCs3oCotP8OZr6_5synod6domain4taskNtB5_19ClarificationRecord8headline
FNDA:50,_RNvMs1_NtNtCs3oCotP8OZr6_5synod6domain4taskNtB5_14TaskRunRequest8validate
FNDA:18,_RNvMs2_NtNtCs3oCotP8OZr6_5synod6domain4taskNtB5_4Task12mark_running
FNDA:17,_RNvMs2_NtNtCs3oCotP8OZr6_5synod6domain4taskNtB5_4Task14apply_terminal
FNDA:5,_RNvMs2_NtNtCs3oCotP8OZr6_5synod6domain4taskNtB5_4Task24validate_persisted_state
FNDA:11,_RINvMs2_NtNtCs3oCotP8OZr6_5synod6domain4taskNtB6_4Task3newNtNtCs1OjIl8oxbrv_5alloc6string6StringEBa_
FNDA:31,_RINvMs2_NtNtCs3oCotP8OZr6_5synod6domain4taskNtB6_4Task3newReEBa_
FNDA:21,_RINvMs_NtNtCs3oCotP8OZr6_5synod6domain4taskNtB5_14TerminalReason3newNtNtCs1OjIl8oxbrv_5alloc6string6StringEB9_
FNDA:22,_RINvMs_NtNtCs3oCotP8OZr6_5synod6domain4taskNtB5_14TerminalReason3newReEB9_
FNDA:0,_RNCINvMs2_NtNtCs3oCotP8OZr6_5synod6domain4taskNtB8_4Task3newNtNtCs1OjIl8oxbrv_5alloc6string6StringE0Bc_
FNDA:0,_RNCINvMs2_NtNtCs3oCotP8OZr6_5synod6domain4taskNtB8_4Task3newNtNtCs1OjIl8oxbrv_5alloc6string6StringEs_0Bc_
FNDA:0,_RNCINvMs2_NtNtCs3oCotP8OZr6_5synod6domain4taskNtB8_4Task3newReE0Bc_
FNDA:0,_RNCINvMs2_NtNtCs3oCotP8OZr6_5synod6domain4taskNtB8_4Task3newReEs_0Bc_
FNDA:0,_RNCNvMs1_NtNtCs3oCotP8OZr6_5synod6domain4taskNtB7_14TaskRunRequest8validate0Bb_
FNDA:0,_RNCNvMs2_NtNtCs3oCotP8OZr6_5synod6domain4taskNtB7_4Task24validate_persisted_state0Bb_
FNDA:0,_RNCNvMs2_NtNtCs3oCotP8OZr6_5synod6domain4taskNtB7_4Task24validate_persisted_states0_0Bb_
FNDA:0,_RNCNvMs2_NtNtCs3oCotP8OZr6_5synod6domain4taskNtB7_4Task24validate_persisted_states_0Bb_
FNF:16
FNH:7
DA:21,37
DA:22,37
DA:23,37
DA:35,43
DA:36,43
DA:37,43
DA:38,43
DA:39,43
DA:40,43
DA:41,43
DA:76,0
DA:77,0
DA:79,0
DA:82,0
DA:85,0
DA:88,0
DA:91,0
DA:94,0
DA:123,50
DA:124,50
DA:125,0
DA:126,50
DA:127,50
DA:128,0
DA:129,50
DA:130,50
DA:131,0
DA:132,50
DA:134,50
DA:135,50
DA:136,50
DA:137,50
DA:166,42
DA:167,42
DA:168,42
DA:169,42
DA:170,42
DA:171,42
DA:172,42
DA:174,42
DA:175,42
DA:176,42
DA:177,42
DA:178,42
DA:180,42
DA:182,42
DA:183,42
DA:184,42
DA:185,42
DA:186,42
DA:187,42
DA:188,42
DA:189,42
DA:190,42
DA:191,42
DA:192,42
DA:193,42
DA:194,42
DA:195,42
DA:197,18
DA:198,18
DA:199,18
DA:201,17
DA:202,17
DA:203,17
DA:204,17
DA:206,5
DA:207,5
DA:208,0
DA:209,5
DA:211,5
DA:212,0
DA:213,5
DA:215,5
DA:216,5
DA:217,5
DA:218,5
DA:219,5
DA:220,5
DA:221,5
DA:222,5
DA:223,5
DA:225,5
DA:226,0
DA:227,5
DA:229,5
DA:230,0
DA:231,5
DA:233,5
DA:234,5
DA:236,0
DA:237,0
DA:238,0
DA:239,0
DA:240,0
DA:241,5
DA:243,5
DA:244,5
DA:264,0
DA:265,0
DA:266,0
DA:270,0
DA:271,0
DA:272,0
BRF:0
BRH:0
LF:110
LH:78
end_of_record
SF:/Users/rt/workspace/synod/src/domain/task_context.rs
FN:227,_RINvMNtNtCs3oCotP8OZr6_5synod6domain12task_contextNtB3_11TaskContext15load_serializedNtNtB5_10governance19GovernedStagePacketEB7_
FN:227,_RINvMNtNtCs3oCotP8OZr6_5synod6domain12task_contextNtB3_11TaskContext15load_serializedNtNtB5_10governance19GovernedStageRecordEB7_
FN:227,_RINvMNtNtCs3oCotP8OZr6_5synod6domain12task_contextNtB3_11TaskContext15load_serializedNtNtB5_7cluster20ClusterDeliveryStoryEB7_
FN:227,_RINvMNtNtCs3oCotP8OZr6_5synod6domain12task_contextNtB3_11TaskContext15load_serializedNtNtB5_7cluster24ClusterSessionProjectionEB7_
FN:67,_RINvMNtNtCs3oCotP8OZr6_5synod6domain12task_contextNtB3_11TaskContext16push_history_refNtNtCs1OjIl8oxbrv_5alloc6string6StringEB7_
FN:212,_RINvMNtNtCs3oCotP8OZr6_5synod6domain12task_contextNtB3_11TaskContext16store_serializedNtNtB5_10governance18PacketReuseBindingEB7_
FN:212,_RINvMNtNtCs3oCotP8OZr6_5synod6domain12task_contextNtB3_11TaskContext16store_serializedNtNtB5_10governance19GovernedStagePacketEB7_
FN:212,_RINvMNtNtCs3oCotP8OZr6_5synod6domain12task_contextNtB3_11TaskContext16store_serializedNtNtB5_10governance19GovernedStageRecordEB7_
FN:212,_RINvMNtNtCs3oCotP8OZr6_5synod6domain12task_contextNtB3_11TaskContext16store_serializedNtNtB5_10governance23AutopilotDecisionRecordEB7_
FN:212,_RINvMNtNtCs3oCotP8OZr6_5synod6domain12task_contextNtB3_11TaskContext16store_serializedNtNtB5_7cluster20ClusterDeliveryStoryEB7_
FN:212,_RINvMNtNtCs3oCotP8OZr6_5synod6domain12task_contextNtB3_11TaskContext16store_serializedNtNtB5_7cluster24ClusterSessionProjectionEB7_
FN:34,_RINvMNtNtCs3oCotP8OZr6_5synod6domain12task_contextNtB3_11TaskContext3newNtNtCs1OjIl8oxbrv_5alloc6string6StringB18_EB7_
FN:34,_RINvMNtNtCs3oCotP8OZr6_5synod6domain12task_contextNtB3_11TaskContext3newReB18_EB7_
FN:237,_RNCINvMNtNtCs3oCotP8OZr6_5synod6domain12task_contextNtB5_11TaskContext15load_serializedNtNtB7_10governance19GovernedStagePacketE0B9_
FN:237,_RNCINvMNtNtCs3oCotP8OZr6_5synod6domain12task_contextNtB5_11TaskContext15load_serializedNtNtB7_10governance19GovernedStageRecordE0B9_
FN:237,_RNCINvMNtNtCs3oCotP8OZr6_5synod6domain12task_contextNtB5_11TaskContext15load_serializedNtNtB7_7cluster20ClusterDeliveryStoryE0B9_
FN:237,_RNCINvMNtNtCs3oCotP8OZr6_5synod6domain12task_contextNtB5_11TaskContext15load_serializedNtNtB7_7cluster24ClusterSessionProjectionE0B9_
FN:217,_RNCINvMNtNtCs3oCotP8OZr6_5synod6domain12task_contextNtB5_11TaskContext16store_serializedNtNtB7_10governance18PacketReuseBindingE0B9_
FN:217,_RNCINvMNtNtCs3oCotP8OZr6_5synod6domain12task_contextNtB5_11TaskContext16store_serializedNtNtB7_10governance19GovernedStagePacketE0B9_
FN:217,_RNCINvMNtNtCs3oCotP8OZr6_5synod6domain12task_contextNtB5_11TaskContext16store_serializedNtNtB7_10governance19GovernedStageRecordE0B9_
FN:217,_RNCINvMNtNtCs3oCotP8OZr6_5synod6domain12task_contextNtB5_11TaskContext16store_serializedNtNtB7_10governance23AutopilotDecisionRecordE0B9_
FN:217,_RNCINvMNtNtCs3oCotP8OZr6_5synod6domain12task_contextNtB5_11TaskContext16store_serializedNtNtB7_7cluster20ClusterDeliveryStoryE0B9_
FN:217,_RNCINvMNtNtCs3oCotP8OZr6_5synod6domain12task_contextNtB5_11TaskContext16store_serializedNtNtB7_7cluster24ClusterSessionProjectionE0B9_
FN:60,_RNCNvMNtNtCs3oCotP8OZr6_5synod6domain12task_contextNtB4_11TaskContext8validate0B8_
FN:178,_RNvMNtNtCs3oCotP8OZr6_5synod6domain12task_contextNtB2_11TaskContext18derived_task_draft
FN:167,_RNvMNtNtCs3oCotP8OZr6_5synod6domain12task_contextNtB2_11TaskContext20latest_clarification
FN:171,_RNvMNtNtCs3oCotP8OZr6_5synod6domain12task_contextNtB2_11TaskContext22set_derived_task_draft
FN:160,_RNvMNtNtCs3oCotP8OZr6_5synod6domain12task_contextNtB2_11TaskContext24set_latest_clarification
FN:154,_RNvMNtNtCs3oCotP8OZr6_5synod6domain12task_contextNtB2_11TaskContext26latest_governance_decision
FN:141,_RNvMNtNtCs3oCotP8OZr6_5synod6domain12task_contextNtB2_11TaskContext30latest_governance_packet_reuse
FN:245,_RNvMNtNtCs3oCotP8OZr6_5synod6domain12task_contextNtB2_11TaskContext12store_nested
FN:71,_RNvMNtNtCs3oCotP8OZr6_5synod6domain12task_contextNtB2_11TaskContext15set_last_result
FN:206,_RNvMNtNtCs3oCotP8OZr6_5synod6domain12task_contextNtB2_11TaskContext16merge_into_state
FN:106,_RNvMNtNtCs3oCotP8OZr6_5synod6domain12task_contextNtB2_11TaskContext17apply_state_patch
FN:95,_RNvMNtNtCs3oCotP8OZr6_5synod6domain12task_contextNtB2_11TaskContext19apply_failure_error
FN:75,_RNvMNtNtCs3oCotP8OZr6_5synod6domain12task_contextNtB2_11TaskContext20apply_success_output
FN:63,_RNvMNtNtCs3oCotP8OZr6_5synod6domain12task_contextNtB2_11TaskContext20belongs_to_workspace
FN:202,_RNvMNtNtCs3oCotP8OZr6_5synod6domain12task_contextNtB2_11TaskContext22cluster_delivery_story
FN:117,_RNvMNtNtCs3oCotP8OZr6_5synod6domain12task_contextNtB2_11TaskContext23latest_governance_stage
FN:128,_RNvMNtNtCs3oCotP8OZr6_5synod6domain12task_contextNtB2_11TaskContext24latest_governance_packet
FN:189,_RNvMNtNtCs3oCotP8OZr6_5synod6domain12task_contextNtB2_11TaskContext26cluster_session_projection
FN:195,_RNvMNtNtCs3oCotP8OZr6_5synod6domain12task_contextNtB2_11TaskContext26set_cluster_delivery_story
FN:110,_RNvMNtNtCs3oCotP8OZr6_5synod6domain12task_contextNtB2_11TaskContext27set_latest_governance_stage
FN:121,_RNvMNtNtCs3oCotP8OZr6_5synod6domain12task_contextNtB2_11TaskContext28set_latest_governance_packet
FN:182,_RNvMNtNtCs3oCotP8OZr6_5synod6domain12task_contextNtB2_11TaskContext30set_cluster_session_projection
FN:147,_RNvMNtNtCs3oCotP8OZr6_5synod6domain12task_contextNtB2_11TaskContext30set_latest_governance_decision
FN:134,_RNvMNtNtCs3oCotP8OZr6_5synod6domain12task_contextNtB2_11TaskContext34set_latest_governance_packet_reuse
FN:50,_RNvMNtNtCs3oCotP8OZr6_5synod6domain12task_contextNtB2_11TaskContext8validate
FNDA:14,_RINvMNtNtCs3oCotP8OZr6_5synod6domain12task_contextNtB3_11TaskContext15load_serializedNtNtB5_10governance19GovernedStagePacketEB7_
FNDA:67,_RINvMNtNtCs3oCotP8OZr6_5synod6domain12task_contextNtB3_11TaskContext15load_serializedNtNtB5_10governance19GovernedStageRecordEB7_
FNDA:28,_RINvMNtNtCs3oCotP8OZr6_5synod6domain12task_contextNtB3_11TaskContext15load_serializedNtNtB5_7cluster20ClusterDeliveryStoryEB7_
FNDA:7,_RINvMNtNtCs3oCotP8OZr6_5synod6domain12task_contextNtB3_11TaskContext15load_serializedNtNtB5_7cluster24ClusterSessionProjectionEB7_
FNDA:31,_RINvMNtNtCs3oCotP8OZr6_5synod6domain12task_contextNtB3_11TaskContext16push_history_refNtNtCs1OjIl8oxbrv_5alloc6string6StringEB7_
FNDA:1,_RINvMNtNtCs3oCotP8OZr6_5synod6domain12task_contextNtB3_11TaskContext16store_serializedNtNtB5_10governance18PacketReuseBindingEB7_
FNDA:1,_RINvMNtNtCs3oCotP8OZr6_5synod6domain12task_contextNtB3_11TaskContext16store_serializedNtNtB5_10governance19GovernedStagePacketEB7_
FNDA:3,_RINvMNtNtCs3oCotP8OZr6_5synod6domain12task_contextNtB3_11TaskContext16store_serializedNtNtB5_10governance19GovernedStageRecordEB7_
FNDA:1,_RINvMNtNtCs3oCotP8OZr6_5synod6domain12task_contextNtB3_11TaskContext16store_serializedNtNtB5_10governance23AutopilotDecisionRecordEB7_
FNDA:4,_RINvMNtNtCs3oCotP8OZr6_5synod6domain12task_contextNtB3_11TaskContext16store_serializedNtNtB5_7cluster20ClusterDeliveryStoryEB7_
FNDA:3,_RINvMNtNtCs3oCotP8OZr6_5synod6domain12task_contextNtB3_11TaskContext16store_serializedNtNtB5_7cluster24ClusterSessionProjectionEB7_
FNDA:66,_RINvMNtNtCs3oCotP8OZr6_5synod6domain12task_contextNtB3_11TaskContext3newNtNtCs1OjIl8oxbrv_5alloc6string6StringB18_EB7_
FNDA:33,_RINvMNtNtCs3oCotP8OZr6_5synod6domain12task_contextNtB3_11TaskContext3newReB18_EB7_
FNDA:0,_RNCINvMNtNtCs3oCotP8OZr6_5synod6domain12task_contextNtB5_11TaskContext15load_serializedNtNtB7_10governance19GovernedStagePacketE0B9_
FNDA:0,_RNCINvMNtNtCs3oCotP8OZr6_5synod6domain12task_contextNtB5_11TaskContext15load_serializedNtNtB7_10governance19GovernedStageRecordE0B9_
FNDA:0,_RNCINvMNtNtCs3oCotP8OZr6_5synod6domain12task_contextNtB5_11TaskContext15load_serializedNtNtB7_7cluster20ClusterDeliveryStoryE0B9_
FNDA:0,_RNCINvMNtNtCs3oCotP8OZr6_5synod6domain12task_contextNtB5_11TaskContext15load_serializedNtNtB7_7cluster24ClusterSessionProjectionE0B9_
FNDA:0,_RNCINvMNtNtCs3oCotP8OZr6_5synod6domain12task_contextNtB5_11TaskContext16store_serializedNtNtB7_10governance18PacketReuseBindingE0B9_
FNDA:0,_RNCINvMNtNtCs3oCotP8OZr6_5synod6domain12task_contextNtB5_11TaskContext16store_serializedNtNtB7_10governance19GovernedStagePacketE0B9_
FNDA:0,_RNCINvMNtNtCs3oCotP8OZr6_5synod6domain12task_contextNtB5_11TaskContext16store_serializedNtNtB7_10governance19GovernedStageRecordE0B9_
FNDA:0,_RNCINvMNtNtCs3oCotP8OZr6_5synod6domain12task_contextNtB5_11TaskContext16store_serializedNtNtB7_10governance23AutopilotDecisionRecordE0B9_
FNDA:0,_RNCINvMNtNtCs3oCotP8OZr6_5synod6domain12task_contextNtB5_11TaskContext16store_serializedNtNtB7_7cluster20ClusterDeliveryStoryE0B9_
FNDA:0,_RNCINvMNtNtCs3oCotP8OZr6_5synod6domain12task_contextNtB5_11TaskContext16store_serializedNtNtB7_7cluster24ClusterSessionProjectionE0B9_
FNDA:0,_RNCNvMNtNtCs3oCotP8OZr6_5synod6domain12task_contextNtB4_11TaskContext8validate0B8_
FNDA:0,_RNvMNtNtCs3oCotP8OZr6_5synod6domain12task_contextNtB2_11TaskContext18derived_task_draft
FNDA:0,_RNvMNtNtCs3oCotP8OZr6_5synod6domain12task_contextNtB2_11TaskContext20latest_clarification
FNDA:0,_RNvMNtNtCs3oCotP8OZr6_5synod6domain12task_contextNtB2_11TaskContext22set_derived_task_draft
FNDA:0,_RNvMNtNtCs3oCotP8OZr6_5synod6domain12task_contextNtB2_11TaskContext24set_latest_clarification
FNDA:0,_RNvMNtNtCs3oCotP8OZr6_5synod6domain12task_contextNtB2_11TaskContext26latest_governance_decision
FNDA:0,_RNvMNtNtCs3oCotP8OZr6_5synod6domain12task_contextNtB2_11TaskContext30latest_governance_packet_reuse
FNDA:31,_RNvMNtNtCs3oCotP8OZr6_5synod6domain12task_contextNtB2_11TaskContext12store_nested
FNDA:31,_RNvMNtNtCs3oCotP8OZr6_5synod6domain12task_contextNtB2_11TaskContext15set_last_result
FNDA:42,_RNvMNtNtCs3oCotP8OZr6_5synod6domain12task_contextNtB2_11TaskContext16merge_into_state
FNDA:8,_RNvMNtNtCs3oCotP8OZr6_5synod6domain12task_contextNtB2_11TaskContext17apply_state_patch
FNDA:12,_RNvMNtNtCs3oCotP8OZr6_5synod6domain12task_contextNtB2_11TaskContext19apply_failure_error
FNDA:19,_RNvMNtNtCs3oCotP8OZr6_5synod6domain12task_contextNtB2_11TaskContext20apply_success_output
FNDA:5,_RNvMNtNtCs3oCotP8OZr6_5synod6domain12task_contextNtB2_11TaskContext20belongs_to_workspace
FNDA:28,_RNvMNtNtCs3oCotP8OZr6_5synod6domain12task_contextNtB2_11TaskContext22cluster_delivery_story
FNDA:67,_RNvMNtNtCs3oCotP8OZr6_5synod6domain12task_contextNtB2_11TaskContext23latest_governance_stage
FNDA:14,_RNvMNtNtCs3oCotP8OZr6_5synod6domain12task_contextNtB2_11TaskContext24latest_governance_packet
FNDA:7,_RNvMNtNtCs3oCotP8OZr6_5synod6domain12task_contextNtB2_11TaskContext26cluster_session_projection
FNDA:4,_RNvMNtNtCs3oCotP8OZr6_5synod6domain12task_contextNtB2_11TaskContext26set_cluster_delivery_story
FNDA:3,_RNvMNtNtCs3oCotP8OZr6_5synod6domain12task_contextNtB2_11TaskContext27set_latest_governance_stage
FNDA:1,_RNvMNtNtCs3oCotP8OZr6_5synod6domain12task_contextNtB2_11TaskContext28set_latest_governance_packet
FNDA:3,_RNvMNtNtCs3oCotP8OZr6_5synod6domain12task_contextNtB2_11TaskContext30set_cluster_session_projection
FNDA:1,_RNvMNtNtCs3oCotP8OZr6_5synod6domain12task_contextNtB2_11TaskContext30set_latest_governance_decision
FNDA:1,_RNvMNtNtCs3oCotP8OZr6_5synod6domain12task_contextNtB2_11TaskContext34set_latest_governance_packet_reuse
FNDA:47,_RNvMNtNtCs3oCotP8OZr6_5synod6domain12task_contextNtB2_11TaskContext8validate
FNF:31
FNH:22
DA:34,99
DA:35,99
DA:36,99
DA:37,99
DA:38,99
DA:39,99
DA:40,99
DA:41,99
DA:42,99
DA:43,99
DA:44,99
DA:45,99
DA:46,99
DA:47,99
DA:48,99
DA:50,47
DA:51,47
DA:52,0
DA:53,47
DA:54,47
DA:55,0
DA:56,47
DA:58,47
DA:59,47
DA:60,47
DA:61,47
DA:63,5
DA:64,5
DA:65,5
DA:67,31
DA:68,31
DA:69,31
DA:71,31
DA:72,31
DA:73,31
DA:75,19
DA:76,19
DA:77,19
DA:78,19
DA:79,19
DA:80,19
DA:81,19
DA:82,19
DA:84,19
DA:85,19
DA:86,19
DA:88,19
DA:89,15
DA:90,15
DA:92,19
DA:93,19
DA:95,12
DA:96,12
DA:97,12
DA:98,12
DA:99,12
DA:100,12
DA:101,12
DA:102,12
DA:104,12
DA:106,8
DA:107,8
DA:108,8
DA:110,3
DA:111,3
DA:112,3
DA:113,3
DA:114,3
DA:115,3
DA:117,67
DA:118,67
DA:119,67
DA:121,1
DA:122,1
DA:123,1
DA:124,1
DA:125,1
DA:126,1
DA:128,14
DA:129,14
DA:130,14
DA:131,14
DA:132,14
DA:134,1
DA:135,1
DA:136,1
DA:137,1
DA:138,1
DA:139,1
DA:141,0
DA:142,0
DA:143,0
DA:144,0
DA:145,0
DA:147,1
DA:148,1
DA:149,1
DA:150,1
DA:151,1
DA:152,1
DA:154,0
DA:155,0
DA:156,0
DA:157,0
DA:158,0
DA:160,0
DA:161,0
DA:162,0
DA:163,0
DA:164,0
DA:165,0
DA:167,0
DA:168,0
DA:169,0
DA:171,0
DA:172,0
DA:173,0
DA:174,0
DA:175,0
DA:176,0
DA:178,0
DA:179,0
DA:180,0
DA:182,3
DA:183,3
DA:184,3
DA:185,3
DA:186,3
DA:187,3
DA:189,7
DA:190,7
DA:191,7
DA:192,7
DA:193,7
DA:195,4
DA:196,4
DA:197,4
DA:198,4
DA:199,4
DA:200,4
DA:202,28
DA:203,28
DA:204,28
DA:206,42
DA:207,149
DA:208,149
DA:209,149
DA:210,42
DA:212,13
DA:213,13
DA:214,13
DA:215,13
DA:216,13
DA:217,13
DA:218,0
DA:219,0
DA:220,0
DA:221,0
DA:222,0
DA:223,13
DA:224,13
DA:225,13
DA:227,116
DA:228,116
DA:229,116
DA:230,116
DA:231,116
DA:232,82
DA:234,34
DA:235,1
DA:236,33
DA:237,33
DA:238,0
DA:239,0
DA:240,0
DA:241,0
DA:242,0
DA:243,116
DA:245,31
DA:246,31
DA:247,19
DA:248,19
DA:250,31
DA:252,31
DA:253,0
DA:254,31
DA:256,31
DA:257,31
DA:258,31
DA:259,31
DA:260,31
BRF:0
BRH:0
LF:195
LH:150
end_of_record
SF:/Users/rt/workspace/synod/src/domain/tool_result.rs
FN:62,_RNvMNtNtCs3oCotP8OZr6_5synod6domain11tool_resultNtB2_10ToolResult8validate
FN:52,_RINvMNtNtCs3oCotP8OZr6_5synod6domain11tool_resultNtB3_10ToolResult11with_stderrNtNtCs1OjIl8oxbrv_5alloc6string6StringEB7_
FN:47,_RINvMNtNtCs3oCotP8OZr6_5synod6domain11tool_resultNtB3_10ToolResult11with_stdoutNtNtCs1OjIl8oxbrv_5alloc6string6StringEB7_
FN:24,_RINvMNtNtCs3oCotP8OZr6_5synod6domain11tool_resultNtB3_10ToolResult3newReB16_EB7_
FN:24,_RINvMNtNtCs3oCotP8OZr6_5synod6domain11tool_resultNtB3_10ToolResult3newReNtNtCs1OjIl8oxbrv_5alloc6string6StringEB7_
FN:57,_RINvMNtNtCs3oCotP8OZr6_5synod6domain11tool_resultNtB3_10ToolResult9with_diffNtNtCs1OjIl8oxbrv_5alloc6string6StringEB7_
FN:57,_RINvMNtNtCs3oCotP8OZr6_5synod6domain11tool_resultNtB3_10ToolResult9with_diffReEB7_
FN:42,_RNvMNtNtCs3oCotP8OZr6_5synod6domain11tool_resultNtB2_10ToolResult14with_exit_code
FNDA:0,_RNvMNtNtCs3oCotP8OZr6_5synod6domain11tool_resultNtB2_10ToolResult8validate
FNDA:4,_RINvMNtNtCs3oCotP8OZr6_5synod6domain11tool_resultNtB3_10ToolResult11with_stderrNtNtCs1OjIl8oxbrv_5alloc6string6StringEB7_
FNDA:12,_RINvMNtNtCs3oCotP8OZr6_5synod6domain11tool_resultNtB3_10ToolResult11with_stdoutNtNtCs1OjIl8oxbrv_5alloc6string6StringEB7_
FNDA:2,_RINvMNtNtCs3oCotP8OZr6_5synod6domain11tool_resultNtB3_10ToolResult3newReB16_EB7_
FNDA:12,_RINvMNtNtCs3oCotP8OZr6_5synod6domain11tool_resultNtB3_10ToolResult3newReNtNtCs1OjIl8oxbrv_5alloc6string6StringEB7_
FNDA:4,_RINvMNtNtCs3oCotP8OZr6_5synod6domain11tool_resultNtB3_10ToolResult9with_diffNtNtCs1OjIl8oxbrv_5alloc6string6StringEB7_
FNDA:1,_RINvMNtNtCs3oCotP8OZr6_5synod6domain11tool_resultNtB3_10ToolResult9with_diffReEB7_
FNDA:5,_RNvMNtNtCs3oCotP8OZr6_5synod6domain11tool_resultNtB2_10ToolResult14with_exit_code
FNF:6
FNH:5
DA:24,14
DA:25,14
DA:26,14
DA:27,14
DA:28,14
DA:29,14
DA:30,14
DA:31,14
DA:32,14
DA:33,14
DA:34,14
DA:35,14
DA:36,14
DA:37,14
DA:38,14
DA:39,14
DA:40,14
DA:42,5
DA:43,5
DA:44,5
DA:45,5
DA:47,12
DA:48,12
DA:49,12
DA:50,12
DA:52,4
DA:53,4
DA:54,4
DA:55,4
DA:57,5
DA:58,5
DA:59,5
DA:60,5
DA:62,0
DA:63,0
DA:64,0
DA:65,0
DA:66,0
DA:67,0
DA:68,0
DA:69,0
DA:70,0
BRF:0
BRH:0
LF:42
LH:33
end_of_record
SF:/Users/rt/workspace/synod/src/domain/trace.rs
FN:67,_RNvMNtNtCs3oCotP8OZr6_5synod6domain5traceNtB2_14TraceEventType22routing_projection_key
FN:54,_RNvMNtNtCs3oCotP8OZr6_5synod6domain5traceNtB2_14TraceEventType22is_decision_loop_event
FN:198,_RNvMs_NtNtCs3oCotP8OZr6_5synod6domain5traceNtB4_14ExecutionTrace12record_event
FN:225,_RNvMs_NtNtCs3oCotP8OZr6_5synod6domain5traceNtB4_14ExecutionTrace15duration_millis
FN:215,_RNvMs_NtNtCs3oCotP8OZr6_5synod6domain5traceNtB4_14ExecutionTrace8finalize
FN:12,_RNvNtNtCs3oCotP8OZr6_5synod6domain5trace24current_timestamp_millis
FN:221,_RINvMs_NtNtCs3oCotP8OZr6_5synod6domain5traceNtB5_14ExecutionTrace18set_trace_locationNtNtCs1OjIl8oxbrv_5alloc6string6StringEB9_
FN:180,_RINvMs_NtNtCs3oCotP8OZr6_5synod6domain5traceNtB5_14ExecutionTrace3newNtNtCs1OjIl8oxbrv_5alloc6string6StringB15_B15_EB9_
FN:180,_RINvMs_NtNtCs3oCotP8OZr6_5synod6domain5traceNtB5_14ExecutionTrace3newReB15_B15_EB9_
FN:180,_RINvMs_NtNtCs3oCotP8OZr6_5synod6domain5traceNtB5_14ExecutionTrace3newReB15_NtNtCs1OjIl8oxbrv_5alloc6string6StringEB9_
FN:226,_RNCNvMs_NtNtCs3oCotP8OZr6_5synod6domain5traceNtB6_14ExecutionTrace15duration_millis0Ba_
FNDA:0,_RNvMNtNtCs3oCotP8OZr6_5synod6domain5traceNtB2_14TraceEventType22routing_projection_key
FNDA:121,_RNvMNtNtCs3oCotP8OZr6_5synod6domain5traceNtB2_14TraceEventType22is_decision_loop_event
FNDA:226,_RNvMs_NtNtCs3oCotP8OZr6_5synod6domain5traceNtB4_14ExecutionTrace12record_event
FNDA:5,_RNvMs_NtNtCs3oCotP8OZr6_5synod6domain5traceNtB4_14ExecutionTrace15duration_millis
FNDA:24,_RNvMs_NtNtCs3oCotP8OZr6_5synod6domain5traceNtB4_14ExecutionTrace8finalize
FNDA:531,_RNvNtNtCs3oCotP8OZr6_5synod6domain5trace24current_timestamp_millis
FNDA:96,_RINvMs_NtNtCs3oCotP8OZr6_5synod6domain5traceNtB5_14ExecutionTrace18set_trace_locationNtNtCs1OjIl8oxbrv_5alloc6string6StringEB9_
FNDA:22,_RINvMs_NtNtCs3oCotP8OZr6_5synod6domain5traceNtB5_14ExecutionTrace3newNtNtCs1OjIl8oxbrv_5alloc6string6StringB15_B15_EB9_
FNDA:16,_RINvMs_NtNtCs3oCotP8OZr6_5synod6domain5traceNtB5_14ExecutionTrace3newReB15_B15_EB9_
FNDA:3,_RINvMs_NtNtCs3oCotP8OZr6_5synod6domain5traceNtB5_14ExecutionTrace3newReB15_NtNtCs1OjIl8oxbrv_5alloc6string6StringEB9_
FNDA:4,_RNCNvMs_NtNtCs3oCotP8OZr6_5synod6domain5traceNtB6_14ExecutionTrace15duration_millis0Ba_
FNF:9
FNH:8
DA:12,531
DA:13,531
DA:14,531
DA:54,121
DA:55,81
DA:56,121
DA:65,121
DA:67,0
DA:68,0
DA:69,0
DA:70,0
DA:71,0
DA:72,0
DA:73,0
DA:74,0
DA:75,0
DA:76,0
DA:78,0
DA:180,41
DA:181,41
DA:182,41
DA:183,41
DA:184,41
DA:185,41
DA:186,41
DA:187,41
DA:188,41
DA:189,41
DA:190,41
DA:191,41
DA:192,41
DA:193,41
DA:194,41
DA:195,41
DA:196,41
DA:198,226
DA:199,226
DA:200,226
DA:201,226
DA:202,226
DA:203,226
DA:204,226
DA:205,226
DA:206,226
DA:207,226
DA:208,226
DA:209,226
DA:210,226
DA:211,226
DA:212,226
DA:213,226
DA:215,24
DA:216,24
DA:217,24
DA:218,24
DA:219,24
DA:221,96
DA:222,96
DA:223,96
DA:225,5
DA:226,5
DA:227,5
BRF:0
BRH:0
LF:63
LH:52
end_of_record
SF:/Users/rt/workspace/synod/src/domain/workflow.rs
FN:232,_RNCNCNvMs6_NtNtCs3oCotP8OZr6_5synod6domain8workflowNtB9_18WorkflowDefinition17discovery_summary00Bd_
FN:229,_RNCNvMs6_NtNtCs3oCotP8OZr6_5synod6domain8workflowNtB7_18WorkflowDefinition17discovery_summary0Bb_
FN:302,_RNCNvMs7_NtNtCs3oCotP8OZr6_5synod6domain8workflowNtB7_16WorkflowRegistry17discovery_entries0Bb_
FN:353,_RNCNvMs8_NtNtCs3oCotP8OZr6_5synod6domain8workflowNtB7_21WorkflowProgressState18current_phase_text0Bb_
FN:238,_RNCNvMs6_NtNtCs3oCotP8OZr6_5synod6domain8workflowNtB7_18WorkflowDefinition16phase_chain_text0Bb_
FN:16,_RNvMNtNtCs3oCotP8OZr6_5synod6domain8workflowNtB2_18WorkflowGoalSource6as_str
FN:97,_RNvMs4_NtNtCs3oCotP8OZr6_5synod6domain8workflowNtB5_22WorkflowLifecycleState6as_str
FN:237,_RNvMs6_NtNtCs3oCotP8OZr6_5synod6domain8workflowNtB5_18WorkflowDefinition16phase_chain_text
FN:294,_RNvMs7_NtNtCs3oCotP8OZr6_5synod6domain8workflowNtB5_16WorkflowRegistry14workflow_names
FN:133,_RNvNtNtCs3oCotP8OZr6_5synod6domain8workflow15default_enabled
FN:110,_RNvXs5_NtNtCs3oCotP8OZr6_5synod6domain8workflowNtB5_22WorkflowLifecycleStateNtNtCsl8K0bEFm1U0_4core3fmt7Display3fmt
FN:24,_RNvXs_NtNtCs3oCotP8OZr6_5synod6domain8workflowNtB4_18WorkflowGoalSourceNtNtCsl8K0bEFm1U0_4core3fmt7Display3fmt
FN:42,_RNvMs0_NtNtCs3oCotP8OZr6_5synod6domain8workflowNtB5_13WorkflowPhase6as_str
FN:70,_RNvMs2_NtNtCs3oCotP8OZr6_5synod6domain8workflowNtB5_21WorkflowConditionKind6as_str
FN:228,_RNvMs6_NtNtCs3oCotP8OZr6_5synod6domain8workflowNtB5_18WorkflowDefinition17discovery_summary
FN:158,_RNvMs6_NtNtCs3oCotP8OZr6_5synod6domain8workflowNtB5_18WorkflowDefinition8validate
FN:267,_RNvMs7_NtNtCs3oCotP8OZr6_5synod6domain8workflowNtB5_16WorkflowRegistry13from_toml_str
FN:298,_RNvMs7_NtNtCs3oCotP8OZr6_5synod6domain8workflowNtB5_16WorkflowRegistry17discovery_entries
FN:284,_RNvMs7_NtNtCs3oCotP8OZr6_5synod6domain8workflowNtB5_16WorkflowRegistry4load
FN:290,_RNvMs7_NtNtCs3oCotP8OZr6_5synod6domain8workflowNtB5_16WorkflowRegistry8workflow
FN:356,_RNvMs8_NtNtCs3oCotP8OZr6_5synod6domain8workflowNtB5_21WorkflowProgressState16next_action_text
FN:352,_RNvMs8_NtNtCs3oCotP8OZr6_5synod6domain8workflowNtB5_21WorkflowProgressState18current_phase_text
FN:334,_RNvMs8_NtNtCs3oCotP8OZr6_5synod6domain8workflowNtB5_21WorkflowProgressState8validate
FN:390,_RNvMs9_NtNtCs3oCotP8OZr6_5synod6domain8workflowNtB5_22WorkflowDefinitionToml15into_definition
FN:56,_RNvXs1_NtNtCs3oCotP8OZr6_5synod6domain8workflowNtB5_13WorkflowPhaseNtNtCsl8K0bEFm1U0_4core3fmt7Display3fmt
FN:80,_RNvXs3_NtNtCs3oCotP8OZr6_5synod6domain8workflowNtB5_21WorkflowConditionKindNtNtCsl8K0bEFm1U0_4core3fmt7Display3fmt
FNDA:0,_RNCNCNvMs6_NtNtCs3oCotP8OZr6_5synod6domain8workflowNtB9_18WorkflowDefinition17discovery_summary00Bd_
FNDA:0,_RNCNvMs6_NtNtCs3oCotP8OZr6_5synod6domain8workflowNtB7_18WorkflowDefinition17discovery_summary0Bb_
FNDA:1,_RNCNvMs7_NtNtCs3oCotP8OZr6_5synod6domain8workflowNtB7_16WorkflowRegistry17discovery_entries0Bb_
FNDA:2,_RNCNvMs8_NtNtCs3oCotP8OZr6_5synod6domain8workflowNtB7_21WorkflowProgressState18current_phase_text0Bb_
FNDA:0,_RNCNvMs6_NtNtCs3oCotP8OZr6_5synod6domain8workflowNtB7_18WorkflowDefinition16phase_chain_text0Bb_
FNDA:0,_RNvMNtNtCs3oCotP8OZr6_5synod6domain8workflowNtB2_18WorkflowGoalSource6as_str
FNDA:0,_RNvMs4_NtNtCs3oCotP8OZr6_5synod6domain8workflowNtB5_22WorkflowLifecycleState6as_str
FNDA:0,_RNvMs6_NtNtCs3oCotP8OZr6_5synod6domain8workflowNtB5_18WorkflowDefinition16phase_chain_text
FNDA:0,_RNvMs7_NtNtCs3oCotP8OZr6_5synod6domain8workflowNtB5_16WorkflowRegistry14workflow_names
FNDA:0,_RNvNtNtCs3oCotP8OZr6_5synod6domain8workflow15default_enabled
FNDA:0,_RNvXs5_NtNtCs3oCotP8OZr6_5synod6domain8workflowNtB5_22WorkflowLifecycleStateNtNtCsl8K0bEFm1U0_4core3fmt7Display3fmt
FNDA:0,_RNvXs_NtNtCs3oCotP8OZr6_5synod6domain8workflowNtB4_18WorkflowGoalSourceNtNtCsl8K0bEFm1U0_4core3fmt7Display3fmt
FNDA:6,_RNvMs0_NtNtCs3oCotP8OZr6_5synod6domain8workflowNtB5_13WorkflowPhase6as_str
FNDA:0,_RNvMs2_NtNtCs3oCotP8OZr6_5synod6domain8workflowNtB5_21WorkflowConditionKind6as_str
FNDA:1,_RNvMs6_NtNtCs3oCotP8OZr6_5synod6domain8workflowNtB5_18WorkflowDefinition17discovery_summary
FNDA:5,_RNvMs6_NtNtCs3oCotP8OZr6_5synod6domain8workflowNtB5_18WorkflowDefinition8validate
FNDA:5,_RNvMs7_NtNtCs3oCotP8OZr6_5synod6domain8workflowNtB5_16WorkflowRegistry13from_toml_str
FNDA:1,_RNvMs7_NtNtCs3oCotP8OZr6_5synod6domain8workflowNtB5_16WorkflowRegistry17discovery_entries
FNDA:9,_RNvMs7_NtNtCs3oCotP8OZr6_5synod6domain8workflowNtB5_16WorkflowRegistry4load
FNDA:4,_RNvMs7_NtNtCs3oCotP8OZr6_5synod6domain8workflowNtB5_16WorkflowRegistry8workflow
FNDA:6,_RNvMs8_NtNtCs3oCotP8OZr6_5synod6domain8workflowNtB5_21WorkflowProgressState16next_action_text
FNDA:2,_RNvMs8_NtNtCs3oCotP8OZr6_5synod6domain8workflowNtB5_21WorkflowProgressState18current_phase_text
FNDA:10,_RNvMs8_NtNtCs3oCotP8OZr6_5synod6domain8workflowNtB5_21WorkflowProgressState8validate
FNDA:5,_RNvMs9_NtNtCs3oCotP8OZr6_5synod6domain8workflowNtB5_22WorkflowDefinitionToml15into_definition
FNDA:0,_RNvXs1_NtNtCs3oCotP8OZr6_5synod6domain8workflowNtB5_13WorkflowPhaseNtNtCsl8K0bEFm1U0_4core3fmt7Display3fmt
FNDA:0,_RNvXs3_NtNtCs3oCotP8OZr6_5synod6domain8workflowNtB5_21WorkflowConditionKindNtNtCsl8K0bEFm1U0_4core3fmt7Display3fmt
FNF:26
FNH:13
DA:16,0
DA:17,0
DA:18,0
DA:20,0
DA:24,0
DA:25,0
DA:26,0
DA:42,6
DA:43,6
DA:44,1
DA:45,0
DA:46,1
DA:47,2
DA:48,0
DA:49,0
DA:50,2
DA:52,6
DA:56,0
DA:57,0
DA:58,0
DA:70,0
DA:71,0
DA:72,0
DA:73,0
DA:74,0
DA:76,0
DA:80,0
DA:81,0
DA:82,0
DA:97,0
DA:98,0
DA:99,0
DA:100,0
DA:101,0
DA:102,0
DA:103,0
DA:104,0
DA:106,0
DA:110,0
DA:111,0
DA:112,0
DA:133,0
DA:134,0
DA:135,0
DA:158,5
DA:159,5
DA:160,0
DA:161,5
DA:162,5
DA:163,0
DA:164,0
DA:165,0
DA:166,5
DA:167,5
DA:168,0
DA:169,0
DA:170,0
DA:171,0
DA:172,5
DA:174,5
DA:175,17
DA:176,17
DA:177,0
DA:178,0
DA:179,0
DA:180,0
DA:181,17
DA:182,17
DA:183,0
DA:184,0
DA:185,0
DA:186,17
DA:187,17
DA:188,0
DA:189,0
DA:190,0
DA:191,17
DA:194,5
DA:195,0
DA:196,0
DA:197,0
DA:198,0
DA:199,0
DA:200,0
DA:202,0
DA:203,0
DA:204,0
DA:205,0
DA:206,0
DA:209,0
DA:210,0
DA:211,0
DA:212,0
DA:213,0
DA:216,0
DA:217,0
DA:218,0
DA:219,0
DA:220,0
DA:221,0
DA:222,0
DA:225,5
DA:226,5
DA:228,1
DA:229,1
DA:230,0
DA:232,0
DA:234,0
DA:235,1
DA:237,0
DA:238,0
DA:239,0
DA:267,5
DA:268,5
DA:269,5
DA:271,5
DA:272,0
DA:273,5
DA:275,5
DA:276,5
DA:277,5
DA:278,5
DA:281,5
DA:282,5
DA:284,9
DA:285,5
DA:286,9
DA:287,5
DA:288,9
DA:290,4
DA:291,4
DA:292,4
DA:294,0
DA:295,0
DA:296,0
DA:298,1
DA:299,1
DA:300,1
DA:301,1
DA:302,1
DA:303,1
DA:304,1
DA:305,1
DA:306,1
DA:309,1
DA:311,1
DA:312,1
DA:313,1
DA:314,1
DA:334,10
DA:335,10
DA:336,0
DA:337,10
DA:339,10
DA:340,18
DA:341,18
DA:342,0
DA:343,0
DA:344,0
DA:345,0
DA:346,18
DA:349,10
DA:350,10
DA:352,2
DA:353,2
DA:354,2
DA:356,6
DA:357,6
DA:358,6
DA:390,5
DA:391,5
DA:392,5
DA:393,5
DA:394,5
DA:395,5
DA:396,0
DA:397,0
DA:398,0
DA:399,0
DA:400,0
DA:401,5
DA:402,5
DA:403,0
DA:404,0
DA:405,0
DA:406,0
DA:407,0
DA:408,5
DA:409,5
DA:410,0
DA:411,0
DA:412,0
DA:413,0
DA:414,0
DA:415,5
DA:417,5
DA:418,5
DA:419,5
DA:420,5
DA:421,5
DA:422,5
DA:423,5
DA:424,5
DA:425,5
DA:426,5
DA:427,5
DA:428,5
DA:429,5
DA:430,5
DA:431,5
BRF:0
BRH:0
LF:214
LH:103
end_of_record
SF:/Users/rt/workspace/synod/src/fixture.rs
FN:192,_RNvNtCs3oCotP8OZr6_5synod7fixture27build_fixture_plan_for_flow
FN:3317,_RNCNvNtNtCs3oCotP8OZr6_5synod7fixture5testss_64build_vertical_slice_plan_covers_non_flow_and_all_built_in_flows0B7_
FN:3339,_RNCNvNtNtCs3oCotP8OZr6_5synod7fixture5testss_64build_vertical_slice_plan_covers_non_flow_and_all_built_in_flowss0_0B7_
FN:3328,_RNCNvNtNtCs3oCotP8OZr6_5synod7fixture5testss_64build_vertical_slice_plan_covers_non_flow_and_all_built_in_flowss_0B7_
FN:3936,_RNCNvNtNtCs3oCotP8OZr6_5synod7fixture5testss_66adaptive_helpers_cover_new_candidate_generators_and_family_scoring0B7_
FN:3958,_RNCNvNtNtCs3oCotP8OZr6_5synod7fixture5testss_66adaptive_helpers_cover_new_candidate_generators_and_family_scorings0_0B7_
FN:3960,_RNCNvNtNtCs3oCotP8OZr6_5synod7fixture5testss_66adaptive_helpers_cover_new_candidate_generators_and_family_scorings1_0B7_
FN:3961,_RNCNvNtNtCs3oCotP8OZr6_5synod7fixture5testss_66adaptive_helpers_cover_new_candidate_generators_and_family_scorings2_0B7_
FN:3962,_RNCNvNtNtCs3oCotP8OZr6_5synod7fixture5testss_66adaptive_helpers_cover_new_candidate_generators_and_family_scorings3_0B7_
FN:3940,_RNCNvNtNtCs3oCotP8OZr6_5synod7fixture5testss_66adaptive_helpers_cover_new_candidate_generators_and_family_scorings_0B7_
FN:3360,_RNCNvNtNtCs3oCotP8OZr6_5synod7fixture5testss_72build_vertical_slice_plan_appends_review_steps_when_review_is_configured0B7_
FN:3530,_RNCNvNtNtCs3oCotP8OZr6_5synod7fixture5testss_75fixture_runtime_helpers_cover_analysis_builders_and_verify_invalid_attempts0B7_
FN:108,_RNvMNtCs3oCotP8OZr6_5synod7fixtureNtB2_16WorkspaceFixture8validate
FN:2884,_RNvMs0_NtCs3oCotP8OZr6_5synod7fixtureNtB5_20FixtureCommandOutput16rendered_command
FN:2897,_RNvMs0_NtCs3oCotP8OZr6_5synod7fixtureNtB5_20FixtureCommandOutput20to_validation_record
FN:2888,_RNvMs0_NtCs3oCotP8OZr6_5synod7fixtureNtB5_20FixtureCommandOutput7details
FN:2878,_RNvMs0_NtCs3oCotP8OZr6_5synod7fixtureNtB5_20FixtureCommandOutput9succeeded
FN:148,_RNvMs_NtCs3oCotP8OZr6_5synod7fixtureNtB4_9FilePatch8validate
FN:1397,_RNvNtCs3oCotP8OZr6_5synod7fixture11merge_terms
FN:2917,_RNvNtCs3oCotP8OZr6_5synod7fixture12diff_preview
FN:2839,_RNvNtCs3oCotP8OZr6_5synod7fixture14render_command
FN:1388,_RNvNtCs3oCotP8OZr6_5synod7fixture14tokenize_terms
FN:1855,_RNvNtCs3oCotP8OZr6_5synod7fixture15code_step_input
FN:1952,_RNvNtCs3oCotP8OZr6_5synod7fixture16review_tool_step
FN:2041,_RNvNtCs3oCotP8OZr6_5synod7fixture17execution_attempt
FN:1939,_RNvNtCs3oCotP8OZr6_5synod7fixture17review_agent_step
FN:1255,_RNvNtCs3oCotP8OZr6_5synod7fixture17terms_include_any
FN:1869,_RNvNtCs3oCotP8OZr6_5synod7fixture17verify_step_input
FN:1647,_RNvNtCs3oCotP8OZr6_5synod7fixture18adaptive_goal_hint
FN:188,_RNvNtCs3oCotP8OZr6_5synod7fixture18build_fixture_plan
FN:554,_RNvNtCs3oCotP8OZr6_5synod7fixture18build_replan_queue
FN:1877,_RNvNtCs3oCotP8OZr6_5synod7fixture18build_review_steps
FN:2854,_RNvNtCs3oCotP8OZr6_5synod7fixture18default_run_limits
FN:1846,_RNvNtCs3oCotP8OZr6_5synod7fixture19analysis_step_input
FN:1781,_RNvNtCs3oCotP8OZr6_5synod7fixture19build_attempt_steps
FN:2703,_RNvNtCs3oCotP8OZr6_5synod7fixture19render_vote_summary
FN:2467,_RNvNtCs3oCotP8OZr6_5synod7fixture19resolve_review_vote
FN:2807,_RNvNtCs3oCotP8OZr6_5synod7fixture19run_fixture_command
FN:2847,_RNvNtCs3oCotP8OZr6_5synod7fixture20default_test_command
FN:2657,_RNvNtCs3oCotP8OZr6_5synod7fixture21active_review_trigger
FN:2779,_RNvNtCs3oCotP8OZr6_5synod7fixture21apply_fixture_patches
FN:332,_RNvNtCs3oCotP8OZr6_5synod7fixture21build_fixture_runtime
FN:1501,_RNvNtCs3oCotP8OZr6_5synod7fixture21collect_text_segments
FN:2817,_RNvNtCs3oCotP8OZr6_5synod7fixture21run_execution_command
FN:1044,_RNvNtCs3oCotP8OZr6_5synod7fixture22score_workspace_target
FN:1471,_RNvNtCs3oCotP8OZr6_5synod7fixture23adaptive_replan_blocker
FN:2732,_RNvNtCs3oCotP8OZr6_5synod7fixture23apply_execution_attempt
FN:2109,_RNvNtCs3oCotP8OZr6_5synod7fixture23apply_workspace_fixture
FN:1303,_RNvNtCs3oCotP8OZr6_5synod7fixture23boolean_flip_candidates
FN:165,_RNvNtCs3oCotP8OZr6_5synod7fixture23execution_manifest_path
FN:2590,_RNvNtCs3oCotP8OZr6_5synod7fixture23review_terminal_success
FN:1683,_RNvNtCs3oCotP8OZr6_5synod7fixture24adaptive_code_step_input
FN:1621,_RNvNtCs3oCotP8OZr6_5synod7fixture24adaptive_transition_kind
FN:1519,_RNvNtCs3oCotP8OZr6_5synod7fixture24guidance_paths_from_text
FN:2026,_RNvNtCs3oCotP8OZr6_5synod7fixture24read_targets_for_profile
FN:2350,_RNvNtCs3oCotP8OZr6_5synod7fixture24review_workspace_fixture
FN:1150,_RNvNtCs3oCotP8OZr6_5synod7fixture24score_adaptive_candidate
FN:2187,_RNvNtCs3oCotP8OZr6_5synod7fixture24verify_workspace_fixture
FN:2325,_RNvNtCs3oCotP8OZr6_5synod7fixture25adaptive_failure_evidence
FN:1564,_RNvNtCs3oCotP8OZr6_5synod7fixture25adaptive_selection_reason
FN:2069,_RNvNtCs3oCotP8OZr6_5synod7fixture25analyze_workspace_fixture
FN:782,_RNvNtCs3oCotP8OZr6_5synod7fixture25build_adaptive_candidates
FN:1416,_RNvNtCs3oCotP8OZr6_5synod7fixture25build_validation_guidance
FN:421,_RNvNtCs3oCotP8OZr6_5synod7fixture25build_vertical_slice_plan
FN:2532,_RNvNtCs3oCotP8OZr6_5synod7fixture25finalize_workspace_review
FN:2604,_RNvNtCs3oCotP8OZr6_5synod7fixture25review_terminal_rejection
FN:1713,_RNvNtCs3oCotP8OZr6_5synod7fixture26adaptive_verify_step_input
FN:1259,_RNvNtCs3oCotP8OZr6_5synod7fixture26arithmetic_swap_candidates
FN:1283,_RNvNtCs3oCotP8OZr6_5synod7fixture26comparison_flip_candidates
FN:2671,_RNvNtCs3oCotP8OZr6_5synod7fixture26review_findings_from_state
FN:2618,_RNvNtCs3oCotP8OZr6_5synod7fixture26review_terminal_escalation
FN:2714,_RNvNtCs3oCotP8OZr6_5synod7fixture26snapshot_workspace_targets
FN:1652,_RNvNtCs3oCotP8OZr6_5synod7fixture26workspace_change_signature
FN:1122,_RNvNtCs3oCotP8OZr6_5synod7fixture27adaptive_changes_for_target
FN:1547,_RNvNtCs3oCotP8OZr6_5synod7fixture27adaptive_selection_headline
FN:565,_RNvNtCs3oCotP8OZr6_5synod7fixture27build_adaptive_initial_plan
FN:726,_RNvNtCs3oCotP8OZr6_5synod7fixture27build_adaptive_replan_steps
FN:199,_RNvNtCs3oCotP8OZr6_5synod7fixture27build_fixture_plan_for_goal
FN:1668,_RNvNtCs3oCotP8OZr6_5synod7fixture28adaptive_analysis_step_input
FN:1487,_RNvNtCs3oCotP8OZr6_5synod7fixture28adaptive_no_candidate_reason
FN:958,_RNvNtCs3oCotP8OZr6_5synod7fixture28build_adaptive_attempt_steps
FN:1664,_RNvNtCs3oCotP8OZr6_5synod7fixture28latest_attempt_id_from_state
FN:313,_RNvNtCs3oCotP8OZr6_5synod7fixture28workspace_routing_projection
FN:2012,_RNvNtCs3oCotP8OZr6_5synod7fixture29attach_current_stage_metadata
FN:1029,_RNvNtCs3oCotP8OZr6_5synod7fixture29load_workspace_target_sources
FN:1339,_RNvNtCs3oCotP8OZr6_5synod7fixture29result_status_flip_candidates
FN:1966,_RNvNtCs3oCotP8OZr6_5synod7fixture29review_step_input_for_attempt
FN:336,_RNvNtCs3oCotP8OZr6_5synod7fixture30build_fixture_runtime_for_flow
FN:1886,_RNvNtCs3oCotP8OZr6_5synod7fixture30build_review_steps_for_attempt
FN:2004,_RNvNtCs3oCotP8OZr6_5synod7fixture30default_success_review_trigger
FN:2051,_RNvNtCs3oCotP8OZr6_5synod7fixture30execution_attempt_from_request
FN:2693,_RNvNtCs3oCotP8OZr6_5synod7fixture30review_participants_from_state
FN:2681,_RNvNtCs3oCotP8OZr6_5synod7fixture30review_reviewer_ids_from_state
FN:2452,_RNvNtCs3oCotP8OZr6_5synod7fixture31governance_context_from_request
FN:1359,_RNvNtCs3oCotP8OZr6_5synod7fixture31numeric_literal_flip_candidates
FN:1721,_RNvNtCs3oCotP8OZr6_5synod7fixture32insert_adaptive_state_from_input
FN:169,_RNvNtCs3oCotP8OZr6_5synod7fixture32load_workspace_execution_profile
FN:1763,_RNvNtCs3oCotP8OZr6_5synod7fixture33insert_adaptive_output_from_input
FN:1407,_RNvNtCs3oCotP8OZr6_5synod7fixture33latest_workspace_slice_from_state
FN:1323,_RNvNtCs3oCotP8OZr6_5synod7fixture33ordering_boundary_flip_candidates
FN:1600,_RNvNtCs3oCotP8OZr6_5synod7fixture34build_rejected_candidate_summaries
FN:1982,_RNvNtCs3oCotP8OZr6_5synod7fixture34review_vote_step_input_for_attempt
FN:1993,_RNvNtCs3oCotP8OZr6_5synod7fixture38review_finalize_step_input_for_attempt
FN:1656,_RNvNtCs3oCotP8OZr6_5synod7fixture40adaptive_candidate_signatures_from_state
FN:2908,_RNvNtCs3oCotP8OZr6_5synod7fixture7excerpt
FN:213,_RINvNtCs3oCotP8OZr6_5synod7fixture18build_task_requestNtNtCs1OjIl8oxbrv_5alloc6string6StringBQ_EB4_
FN:213,_RINvNtCs3oCotP8OZr6_5synod7fixture18build_task_requestReBQ_EB4_
FN:2632,_RINvNtCs3oCotP8OZr6_5synod7fixture23review_terminal_failureReBV_EB4_
FN:2632,_RINvNtCs3oCotP8OZr6_5synod7fixture23review_terminal_failureReNtNtCs1OjIl8oxbrv_5alloc6string6StringEB4_
FN:232,_RNCINvNtCs3oCotP8OZr6_5synod7fixture18build_task_requestNtNtCs1OjIl8oxbrv_5alloc6string6StringBS_E0B6_
FN:232,_RNCINvNtCs3oCotP8OZr6_5synod7fixture18build_task_requestReBS_E0B6_
FN:233,_RNCNCINvNtCs3oCotP8OZr6_5synod7fixture18build_task_requestNtNtCs1OjIl8oxbrv_5alloc6string6StringBU_E00B8_
FN:233,_RNCNCINvNtCs3oCotP8OZr6_5synod7fixture18build_task_requestReBU_E00B8_
FN:1256,_RNCNCNvNtCs3oCotP8OZr6_5synod7fixture17terms_include_any00B7_
FN:815,_RNCNCNvNtCs3oCotP8OZr6_5synod7fixture25build_adaptive_candidatess0_00B7_
FN:871,_RNCNCNvNtCs3oCotP8OZr6_5synod7fixture25build_adaptive_candidatess3_00B7_
FN:2723,_RNCNCNvNtCs3oCotP8OZr6_5synod7fixture26snapshot_workspace_targets00B7_
FN:1038,_RNCNCNvNtCs3oCotP8OZr6_5synod7fixture29load_workspace_target_sources00B7_
FN:355,_RNCNCNvNtCs3oCotP8OZr6_5synod7fixture30build_fixture_runtime_for_flow00B7_
FN:2688,_RNCNCNvNtCs3oCotP8OZr6_5synod7fixture30review_reviewer_ids_from_state00B7_
FN:1660,_RNCNCNvNtCs3oCotP8OZr6_5synod7fixture40adaptive_candidate_signatures_from_state00B7_
FN:123,_RNCNvMNtCs3oCotP8OZr6_5synod7fixtureNtB4_16WorkspaceFixture8validate0B6_
FN:1389,_RNCNvNtCs3oCotP8OZr6_5synod7fixture14tokenize_terms0B5_
FN:1390,_RNCNvNtCs3oCotP8OZr6_5synod7fixture14tokenize_termss_0B5_
FN:2046,_RNCNvNtCs3oCotP8OZr6_5synod7fixture17execution_attempt0B5_
FN:1256,_RNCNvNtCs3oCotP8OZr6_5synod7fixture17terms_include_any0B5_
FN:2500,_RNCNvNtCs3oCotP8OZr6_5synod7fixture19resolve_review_vote0B5_
FN:2666,_RNCNvNtCs3oCotP8OZr6_5synod7fixture21active_review_trigger0B5_
FN:2668,_RNCNvNtCs3oCotP8OZr6_5synod7fixture21active_review_triggers0_0B5_
FN:2667,_RNCNvNtCs3oCotP8OZr6_5synod7fixture21active_review_triggers_0B5_
FN:2791,_RNCNvNtCs3oCotP8OZr6_5synod7fixture21apply_fixture_patches0B5_
FN:2827,_RNCNvNtCs3oCotP8OZr6_5synod7fixture21run_execution_command0B5_
FN:2743,_RNCNvNtCs3oCotP8OZr6_5synod7fixture23apply_execution_attempt0B5_
FN:2748,_RNCNvNtCs3oCotP8OZr6_5synod7fixture23apply_execution_attempts_0B5_
FN:1523,_RNCNvNtCs3oCotP8OZr6_5synod7fixture24guidance_paths_from_text0B5_
FN:1539,_RNCNvNtCs3oCotP8OZr6_5synod7fixture24guidance_paths_from_texts0_0B5_
FN:1538,_RNCNvNtCs3oCotP8OZr6_5synod7fixture24guidance_paths_from_texts_0B5_
FN:2397,_RNCNvNtCs3oCotP8OZr6_5synod7fixture24review_workspace_fixture0B5_
FN:1170,_RNCNvNtCs3oCotP8OZr6_5synod7fixture24score_adaptive_candidate0B5_
FN:2240,_RNCNvNtCs3oCotP8OZr6_5synod7fixture24verify_workspace_fixture0B5_
FN:2285,_RNCNvNtCs3oCotP8OZr6_5synod7fixture24verify_workspace_fixtures_0B5_
FN:1574,_RNCNvNtCs3oCotP8OZr6_5synod7fixture25adaptive_selection_reason0B5_
FN:798,_RNCNvNtCs3oCotP8OZr6_5synod7fixture25build_adaptive_candidates0B5_
FN:814,_RNCNvNtCs3oCotP8OZr6_5synod7fixture25build_adaptive_candidatess0_0B5_
FN:825,_RNCNvNtCs3oCotP8OZr6_5synod7fixture25build_adaptive_candidatess1_0B5_
FN:837,_RNCNvNtCs3oCotP8OZr6_5synod7fixture25build_adaptive_candidatess2_0B5_
FN:870,_RNCNvNtCs3oCotP8OZr6_5synod7fixture25build_adaptive_candidatess3_0B5_
FN:875,_RNCNvNtCs3oCotP8OZr6_5synod7fixture25build_adaptive_candidatess4_0B5_
FN:887,_RNCNvNtCs3oCotP8OZr6_5synod7fixture25build_adaptive_candidatess5_0B5_
FN:804,_RNCNvNtCs3oCotP8OZr6_5synod7fixture25build_adaptive_candidatess_0B5_
FN:1425,_RNCNvNtCs3oCotP8OZr6_5synod7fixture25build_validation_guidance0B5_
FN:2554,_RNCNvNtCs3oCotP8OZr6_5synod7fixture25finalize_workspace_review0B5_
FN:2565,_RNCNvNtCs3oCotP8OZr6_5synod7fixture25finalize_workspace_reviews_0B5_
FN:1272,_RNCNvNtCs3oCotP8OZr6_5synod7fixture26arithmetic_swap_candidates0B5_
FN:2677,_RNCNvNtCs3oCotP8OZr6_5synod7fixture26review_findings_from_state0B5_
FN:2720,_RNCNvNtCs3oCotP8OZr6_5synod7fixture26snapshot_workspace_targets0B5_
FN:1144,_RNCNvNtCs3oCotP8OZr6_5synod7fixture27adaptive_changes_for_target0B5_
FN:736,_RNCNvNtCs3oCotP8OZr6_5synod7fixture27build_adaptive_replan_steps0B5_
FN:739,_RNCNvNtCs3oCotP8OZr6_5synod7fixture27build_adaptive_replan_stepss0_0B5_
FN:755,_RNCNvNtCs3oCotP8OZr6_5synod7fixture27build_adaptive_replan_stepss2_0B5_
FN:756,_RNCNvNtCs3oCotP8OZr6_5synod7fixture27build_adaptive_replan_stepss3_0B5_
FN:770,_RNCNvNtCs3oCotP8OZr6_5synod7fixture27build_adaptive_replan_stepss4_0B5_
FN:779,_RNCNvNtCs3oCotP8OZr6_5synod7fixture27build_adaptive_replan_stepss5_0B5_
FN:739,_RNCNvNtCs3oCotP8OZr6_5synod7fixture27build_adaptive_replan_stepss_0B5_
FN:1035,_RNCNvNtCs3oCotP8OZr6_5synod7fixture29load_workspace_target_sources0B5_
FN:348,_RNCNvNtCs3oCotP8OZr6_5synod7fixture30build_fixture_runtime_for_flow0B5_
FN:385,_RNCNvNtCs3oCotP8OZr6_5synod7fixture30build_fixture_runtime_for_flows0_0B5_
FN:392,_RNCNvNtCs3oCotP8OZr6_5synod7fixture30build_fixture_runtime_for_flows1_0B5_
FN:398,_RNCNvNtCs3oCotP8OZr6_5synod7fixture30build_fixture_runtime_for_flows2_0B5_
FN:405,_RNCNvNtCs3oCotP8OZr6_5synod7fixture30build_fixture_runtime_for_flows3_0B5_
FN:411,_RNCNvNtCs3oCotP8OZr6_5synod7fixture30build_fixture_runtime_for_flows4_0B5_
FN:415,_RNCNvNtCs3oCotP8OZr6_5synod7fixture30build_fixture_runtime_for_flows5_0B5_
FN:362,_RNCNvNtCs3oCotP8OZr6_5synod7fixture30build_fixture_runtime_for_flows_0B5_
FN:1896,_RNCNvNtCs3oCotP8OZr6_5synod7fixture30build_review_steps_for_attempt0B5_
FN:1897,_RNCNvNtCs3oCotP8OZr6_5synod7fixture30build_review_steps_for_attempts_0B5_
FN:2009,_RNCNvNtCs3oCotP8OZr6_5synod7fixture30default_success_review_trigger0B5_
FN:2056,_RNCNvNtCs3oCotP8OZr6_5synod7fixture30execution_attempt_from_request0B5_
FN:2699,_RNCNvNtCs3oCotP8OZr6_5synod7fixture30review_participants_from_state0B5_
FN:2687,_RNCNvNtCs3oCotP8OZr6_5synod7fixture30review_reviewer_ids_from_state0B5_
FN:177,_RNCNvNtCs3oCotP8OZr6_5synod7fixture32load_workspace_execution_profile0B5_
FN:181,_RNCNvNtCs3oCotP8OZr6_5synod7fixture32load_workspace_execution_profiles_0B5_
FN:1413,_RNCNvNtCs3oCotP8OZr6_5synod7fixture33latest_workspace_slice_from_state0B5_
FN:1660,_RNCNvNtCs3oCotP8OZr6_5synod7fixture40adaptive_candidate_signatures_from_state0B5_
FN:3054,_RNvNtNtCs3oCotP8OZr6_5synod7fixture5tests14sample_profile
FN:3029,_RNvNtNtCs3oCotP8OZr6_5synod7fixture5tests14temp_workspace
FN:3155,_RNvNtNtCs3oCotP8OZr6_5synod7fixture5tests18request_with_state
FN:3077,_RNvNtNtCs3oCotP8OZr6_5synod7fixture5tests21sample_review_profile
FN:3035,_RNvNtNtCs3oCotP8OZr6_5synod7fixture5tests25write_execution_workspace
FN:3139,_RNvNtNtCs3oCotP8OZr6_5synod7fixture5tests7request
FN:3176,_RNvNtNtCs3oCotP8OZr6_5synod7fixture5testss_33loader_rejects_a_missing_manifest
FN:3683,_RNvNtNtCs3oCotP8OZr6_5synod7fixture5testss_53execution_profile_loader_requires_the_modern_manifest
FN:3374,_RNvNtNtCs3oCotP8OZr6_5synod7fixture5testss_53review_validation_failure_is_routed_into_review_state
FN:3400,_RNvNtNtCs3oCotP8OZr6_5synod7fixture5testss_53review_vote_resolution_succeeds_for_pr_ready_findings
FN:3704,_RNvNtNtCs3oCotP8OZr6_5synod7fixture5testss_62adaptive_helpers_cover_guidance_blockers_headlines_and_reasons
FN:3640,_RNvNtNtCs3oCotP8OZr6_5synod7fixture5testss_62execution_profile_loader_prefers_the_new_manifest_when_present
FN:3299,_RNvNtNtCs3oCotP8OZr6_5synod7fixture5testss_64build_vertical_slice_plan_covers_non_flow_and_all_built_in_flows
FN:3184,_RNvNtNtCs3oCotP8OZr6_5synod7fixture5testss_64patch_application_is_idempotent_after_the_replacement_is_present
FN:3283,_RNvNtNtCs3oCotP8OZr6_5synod7fixture5testss_65load_workspace_execution_profile_reports_parse_and_missing_errors
FN:3883,_RNvNtNtCs3oCotP8OZr6_5synod7fixture5testss_66adaptive_helpers_cover_new_candidate_generators_and_family_scoring
FN:3462,_RNvNtNtCs3oCotP8OZr6_5synod7fixture5testss_66verify_workspace_fixture_covers_success_failure_and_command_errors
FN:3570,_RNvNtNtCs3oCotP8OZr6_5synod7fixture5testss_67fixture_analysis_surfaces_bounded_governance_context_for_flow_steps
FN:3208,_RNvNtNtCs3oCotP8OZr6_5synod7fixture5testss_71workspace_fixture_validation_rejects_missing_fields_and_invalid_patches
FN:3351,_RNvNtNtCs3oCotP8OZr6_5synod7fixture5testss_72build_vertical_slice_plan_appends_review_steps_when_review_is_configured
FN:3513,_RNvNtNtCs3oCotP8OZr6_5synod7fixture5testss_75fixture_runtime_helpers_cover_analysis_builders_and_verify_invalid_attempts
FN:3782,_RNvNtNtCs3oCotP8OZr6_5synod7fixture5testss_79adaptive_helpers_cover_path_matching_transition_rejections_and_failure_evidence
FN:3423,_RNvNtNtCs3oCotP8OZr6_5synod7fixture5testss_80apply_workspace_fixture_covers_retry_invalid_attempt_success_and_already_applied
FNDA:0,_RNvNtCs3oCotP8OZr6_5synod7fixture27build_fixture_plan_for_flow
FNDA:3,_RNCNvNtNtCs3oCotP8OZr6_5synod7fixture5testss_64build_vertical_slice_plan_covers_non_flow_and_all_built_in_flows0B7_
FNDA:5,_RNCNvNtNtCs3oCotP8OZr6_5synod7fixture5testss_64build_vertical_slice_plan_covers_non_flow_and_all_built_in_flowss0_0B7_
FNDA:3,_RNCNvNtNtCs3oCotP8OZr6_5synod7fixture5testss_64build_vertical_slice_plan_covers_non_flow_and_all_built_in_flowss_0B7_
FNDA:3,_RNCNvNtNtCs3oCotP8OZr6_5synod7fixture5testss_66adaptive_helpers_cover_new_candidate_generators_and_family_scoring0B7_
FNDA:3,_RNCNvNtNtCs3oCotP8OZr6_5synod7fixture5testss_66adaptive_helpers_cover_new_candidate_generators_and_family_scorings0_0B7_
FNDA:4,_RNCNvNtNtCs3oCotP8OZr6_5synod7fixture5testss_66adaptive_helpers_cover_new_candidate_generators_and_family_scorings1_0B7_
FNDA:5,_RNCNvNtNtCs3oCotP8OZr6_5synod7fixture5testss_66adaptive_helpers_cover_new_candidate_generators_and_family_scorings2_0B7_
FNDA:6,_RNCNvNtNtCs3oCotP8OZr6_5synod7fixture5testss_66adaptive_helpers_cover_new_candidate_generators_and_family_scorings3_0B7_
FNDA:4,_RNCNvNtNtCs3oCotP8OZr6_5synod7fixture5testss_66adaptive_helpers_cover_new_candidate_generators_and_family_scorings_0B7_
FNDA:7,_RNCNvNtNtCs3oCotP8OZr6_5synod7fixture5testss_72build_vertical_slice_plan_appends_review_steps_when_review_is_configured0B7_
FNDA:3,_RNCNvNtNtCs3oCotP8OZr6_5synod7fixture5testss_75fixture_runtime_helpers_cover_analysis_builders_and_verify_invalid_attempts0B7_
FNDA:3,_RNvMNtCs3oCotP8OZr6_5synod7fixtureNtB2_16WorkspaceFixture8validate
FNDA:1,_RNvMs0_NtCs3oCotP8OZr6_5synod7fixtureNtB5_20FixtureCommandOutput16rendered_command
FNDA:8,_RNvMs0_NtCs3oCotP8OZr6_5synod7fixtureNtB5_20FixtureCommandOutput20to_validation_record
FNDA:2,_RNvMs0_NtCs3oCotP8OZr6_5synod7fixtureNtB5_20FixtureCommandOutput7details
FNDA:16,_RNvMs0_NtCs3oCotP8OZr6_5synod7fixtureNtB5_20FixtureCommandOutput9succeeded
FNDA:3,_RNvMs_NtCs3oCotP8OZr6_5synod7fixtureNtB4_9FilePatch8validate
FNDA:0,_RNvNtCs3oCotP8OZr6_5synod7fixture11merge_terms
FNDA:8,_RNvNtCs3oCotP8OZr6_5synod7fixture12diff_preview
FNDA:9,_RNvNtCs3oCotP8OZr6_5synod7fixture14render_command
FNDA:0,_RNvNtCs3oCotP8OZr6_5synod7fixture14tokenize_terms
FNDA:88,_RNvNtCs3oCotP8OZr6_5synod7fixture15code_step_input
FNDA:24,_RNvNtCs3oCotP8OZr6_5synod7fixture16review_tool_step
FNDA:158,_RNvNtCs3oCotP8OZr6_5synod7fixture17execution_attempt
FNDA:24,_RNvNtCs3oCotP8OZr6_5synod7fixture17review_agent_step
FNDA:2,_RNvNtCs3oCotP8OZr6_5synod7fixture17terms_include_any
FNDA:44,_RNvNtCs3oCotP8OZr6_5synod7fixture17verify_step_input
FNDA:0,_RNvNtCs3oCotP8OZr6_5synod7fixture18adaptive_goal_hint
FNDA:1,_RNvNtCs3oCotP8OZr6_5synod7fixture18build_fixture_plan
FNDA:28,_RNvNtCs3oCotP8OZr6_5synod7fixture18build_replan_queue
FNDA:44,_RNvNtCs3oCotP8OZr6_5synod7fixture18build_review_steps
FNDA:4,_RNvNtCs3oCotP8OZr6_5synod7fixture18default_run_limits
FNDA:41,_RNvNtCs3oCotP8OZr6_5synod7fixture19analysis_step_input
FNDA:10,_RNvNtCs3oCotP8OZr6_5synod7fixture19build_attempt_steps
FNDA:2,_RNvNtCs3oCotP8OZr6_5synod7fixture19render_vote_summary
FNDA:2,_RNvNtCs3oCotP8OZr6_5synod7fixture19resolve_review_vote
FNDA:1,_RNvNtCs3oCotP8OZr6_5synod7fixture19run_fixture_command
FNDA:3,_RNvNtCs3oCotP8OZr6_5synod7fixture20default_test_command
FNDA:5,_RNvNtCs3oCotP8OZr6_5synod7fixture21active_review_trigger
FNDA:2,_RNvNtCs3oCotP8OZr6_5synod7fixture21apply_fixture_patches
FNDA:1,_RNvNtCs3oCotP8OZr6_5synod7fixture21build_fixture_runtime
FNDA:0,_RNvNtCs3oCotP8OZr6_5synod7fixture21collect_text_segments
FNDA:9,_RNvNtCs3oCotP8OZr6_5synod7fixture21run_execution_command
FNDA:0,_RNvNtCs3oCotP8OZr6_5synod7fixture22score_workspace_target
FNDA:3,_RNvNtCs3oCotP8OZr6_5synod7fixture23adaptive_replan_blocker
FNDA:8,_RNvNtCs3oCotP8OZr6_5synod7fixture23apply_execution_attempt
FNDA:12,_RNvNtCs3oCotP8OZr6_5synod7fixture23apply_workspace_fixture
FNDA:0,_RNvNtCs3oCotP8OZr6_5synod7fixture23boolean_flip_candidates
FNDA:62,_RNvNtCs3oCotP8OZr6_5synod7fixture23execution_manifest_path
FNDA:1,_RNvNtCs3oCotP8OZr6_5synod7fixture23review_terminal_success
FNDA:0,_RNvNtCs3oCotP8OZr6_5synod7fixture24adaptive_code_step_input
FNDA:4,_RNvNtCs3oCotP8OZr6_5synod7fixture24adaptive_transition_kind
FNDA:1,_RNvNtCs3oCotP8OZr6_5synod7fixture24guidance_paths_from_text
FNDA:48,_RNvNtCs3oCotP8OZr6_5synod7fixture24read_targets_for_profile
FNDA:2,_RNvNtCs3oCotP8OZr6_5synod7fixture24review_workspace_fixture
FNDA:2,_RNvNtCs3oCotP8OZr6_5synod7fixture24score_adaptive_candidate
FNDA:9,_RNvNtCs3oCotP8OZr6_5synod7fixture24verify_workspace_fixture
FNDA:2,_RNvNtCs3oCotP8OZr6_5synod7fixture25adaptive_failure_evidence
FNDA:3,_RNvNtCs3oCotP8OZr6_5synod7fixture25adaptive_selection_reason
FNDA:7,_RNvNtCs3oCotP8OZr6_5synod7fixture25analyze_workspace_fixture
FNDA:0,_RNvNtCs3oCotP8OZr6_5synod7fixture25build_adaptive_candidates
FNDA:0,_RNvNtCs3oCotP8OZr6_5synod7fixture25build_validation_guidance
FNDA:41,_RNvNtCs3oCotP8OZr6_5synod7fixture25build_vertical_slice_plan
FNDA:1,_RNvNtCs3oCotP8OZr6_5synod7fixture25finalize_workspace_review
FNDA:0,_RNvNtCs3oCotP8OZr6_5synod7fixture25review_terminal_rejection
FNDA:0,_RNvNtCs3oCotP8OZr6_5synod7fixture26adaptive_verify_step_input
FNDA:0,_RNvNtCs3oCotP8OZr6_5synod7fixture26arithmetic_swap_candidates
FNDA:0,_RNvNtCs3oCotP8OZr6_5synod7fixture26comparison_flip_candidates
FNDA:4,_RNvNtCs3oCotP8OZr6_5synod7fixture26review_findings_from_state
FNDA:0,_RNvNtCs3oCotP8OZr6_5synod7fixture26review_terminal_escalation
FNDA:7,_RNvNtCs3oCotP8OZr6_5synod7fixture26snapshot_workspace_targets
FNDA:0,_RNvNtCs3oCotP8OZr6_5synod7fixture26workspace_change_signature
FNDA:0,_RNvNtCs3oCotP8OZr6_5synod7fixture27adaptive_changes_for_target
FNDA:1,_RNvNtCs3oCotP8OZr6_5synod7fixture27adaptive_selection_headline
FNDA:0,_RNvNtCs3oCotP8OZr6_5synod7fixture27build_adaptive_initial_plan
FNDA:0,_RNvNtCs3oCotP8OZr6_5synod7fixture27build_adaptive_replan_steps
FNDA:8,_RNvNtCs3oCotP8OZr6_5synod7fixture27build_fixture_plan_for_goal
FNDA:0,_RNvNtCs3oCotP8OZr6_5synod7fixture28adaptive_analysis_step_input
FNDA:1,_RNvNtCs3oCotP8OZr6_5synod7fixture28adaptive_no_candidate_reason
FNDA:0,_RNvNtCs3oCotP8OZr6_5synod7fixture28build_adaptive_attempt_steps
FNDA:0,_RNvNtCs3oCotP8OZr6_5synod7fixture28latest_attempt_id_from_state
FNDA:8,_RNvNtCs3oCotP8OZr6_5synod7fixture28workspace_routing_projection
FNDA:44,_RNvNtCs3oCotP8OZr6_5synod7fixture29attach_current_stage_metadata
FNDA:0,_RNvNtCs3oCotP8OZr6_5synod7fixture29load_workspace_target_sources
FNDA:2,_RNvNtCs3oCotP8OZr6_5synod7fixture29result_status_flip_candidates
FNDA:24,_RNvNtCs3oCotP8OZr6_5synod7fixture29review_step_input_for_attempt
FNDA:28,_RNvNtCs3oCotP8OZr6_5synod7fixture30build_fixture_runtime_for_flow
FNDA:44,_RNvNtCs3oCotP8OZr6_5synod7fixture30build_review_steps_for_attempt
FNDA:26,_RNvNtCs3oCotP8OZr6_5synod7fixture30default_success_review_trigger
FNDA:16,_RNvNtCs3oCotP8OZr6_5synod7fixture30execution_attempt_from_request
FNDA:2,_RNvNtCs3oCotP8OZr6_5synod7fixture30review_participants_from_state
FNDA:2,_RNvNtCs3oCotP8OZr6_5synod7fixture30review_reviewer_ids_from_state
FNDA:18,_RNvNtCs3oCotP8OZr6_5synod7fixture31governance_context_from_request
FNDA:1,_RNvNtCs3oCotP8OZr6_5synod7fixture31numeric_literal_flip_candidates
FNDA:19,_RNvNtCs3oCotP8OZr6_5synod7fixture32insert_adaptive_state_from_input
FNDA:59,_RNvNtCs3oCotP8OZr6_5synod7fixture32load_workspace_execution_profile
FNDA:12,_RNvNtCs3oCotP8OZr6_5synod7fixture33insert_adaptive_output_from_input
FNDA:0,_RNvNtCs3oCotP8OZr6_5synod7fixture33latest_workspace_slice_from_state
FNDA:1,_RNvNtCs3oCotP8OZr6_5synod7fixture33ordering_boundary_flip_candidates
FNDA:2,_RNvNtCs3oCotP8OZr6_5synod7fixture34build_rejected_candidate_summaries
FNDA:12,_RNvNtCs3oCotP8OZr6_5synod7fixture34review_vote_step_input_for_attempt
FNDA:12,_RNvNtCs3oCotP8OZr6_5synod7fixture38review_finalize_step_input_for_attempt
FNDA:0,_RNvNtCs3oCotP8OZr6_5synod7fixture40adaptive_candidate_signatures_from_state
FNDA:42,_RNvNtCs3oCotP8OZr6_5synod7fixture7excerpt
FNDA:7,_RINvNtCs3oCotP8OZr6_5synod7fixture18build_task_requestNtNtCs1OjIl8oxbrv_5alloc6string6StringBQ_EB4_
FNDA:1,_RINvNtCs3oCotP8OZr6_5synod7fixture18build_task_requestReBQ_EB4_
FNDA:0,_RINvNtCs3oCotP8OZr6_5synod7fixture23review_terminal_failureReBV_EB4_
FNDA:0,_RINvNtCs3oCotP8OZr6_5synod7fixture23review_terminal_failureReNtNtCs1OjIl8oxbrv_5alloc6string6StringEB4_
FNDA:1,_RNCINvNtCs3oCotP8OZr6_5synod7fixture18build_task_requestNtNtCs1OjIl8oxbrv_5alloc6string6StringBS_E0B6_
FNDA:1,_RNCINvNtCs3oCotP8OZr6_5synod7fixture18build_task_requestReBS_E0B6_
FNDA:0,_RNCNCINvNtCs3oCotP8OZr6_5synod7fixture18build_task_requestNtNtCs1OjIl8oxbrv_5alloc6string6StringBU_E00B8_
FNDA:0,_RNCNCINvNtCs3oCotP8OZr6_5synod7fixture18build_task_requestReBU_E00B8_
FNDA:3,_RNCNCNvNtCs3oCotP8OZr6_5synod7fixture17terms_include_any00B7_
FNDA:0,_RNCNCNvNtCs3oCotP8OZr6_5synod7fixture25build_adaptive_candidatess0_00B7_
FNDA:0,_RNCNCNvNtCs3oCotP8OZr6_5synod7fixture25build_adaptive_candidatess3_00B7_
FNDA:1,_RNCNCNvNtCs3oCotP8OZr6_5synod7fixture26snapshot_workspace_targets00B7_
FNDA:0,_RNCNCNvNtCs3oCotP8OZr6_5synod7fixture29load_workspace_target_sources00B7_
FNDA:0,_RNCNCNvNtCs3oCotP8OZr6_5synod7fixture30build_fixture_runtime_for_flow00B7_
FNDA:1,_RNCNCNvNtCs3oCotP8OZr6_5synod7fixture30review_reviewer_ids_from_state00B7_
FNDA:0,_RNCNCNvNtCs3oCotP8OZr6_5synod7fixture40adaptive_candidate_signatures_from_state00B7_
FNDA:0,_RNCNvMNtCs3oCotP8OZr6_5synod7fixtureNtB4_16WorkspaceFixture8validate0B6_
FNDA:0,_RNCNvNtCs3oCotP8OZr6_5synod7fixture14tokenize_terms0B5_
FNDA:0,_RNCNvNtCs3oCotP8OZr6_5synod7fixture14tokenize_termss_0B5_
FNDA:2,_RNCNvNtCs3oCotP8OZr6_5synod7fixture17execution_attempt0B5_
FNDA:2,_RNCNvNtCs3oCotP8OZr6_5synod7fixture17terms_include_any0B5_
FNDA:4,_RNCNvNtCs3oCotP8OZr6_5synod7fixture19resolve_review_vote0B5_
FNDA:0,_RNCNvNtCs3oCotP8OZr6_5synod7fixture21active_review_trigger0B5_
FNDA:5,_RNCNvNtCs3oCotP8OZr6_5synod7fixture21active_review_triggers0_0B5_
FNDA:5,_RNCNvNtCs3oCotP8OZr6_5synod7fixture21active_review_triggers_0B5_
FNDA:2,_RNCNvNtCs3oCotP8OZr6_5synod7fixture21apply_fixture_patches0B5_
FNDA:1,_RNCNvNtCs3oCotP8OZr6_5synod7fixture21run_execution_command0B5_
FNDA:0,_RNCNvNtCs3oCotP8OZr6_5synod7fixture23apply_execution_attempt0B5_
FNDA:0,_RNCNvNtCs3oCotP8OZr6_5synod7fixture23apply_execution_attempts_0B5_
FNDA:2,_RNCNvNtCs3oCotP8OZr6_5synod7fixture24guidance_paths_from_text0B5_
FNDA:2,_RNCNvNtCs3oCotP8OZr6_5synod7fixture24guidance_paths_from_texts0_0B5_
FNDA:1,_RNCNvNtCs3oCotP8OZr6_5synod7fixture24guidance_paths_from_texts_0B5_
FNDA:3,_RNCNvNtCs3oCotP8OZr6_5synod7fixture24review_workspace_fixture0B5_
FNDA:1,_RNCNvNtCs3oCotP8OZr6_5synod7fixture24score_adaptive_candidate0B5_
FNDA:1,_RNCNvNtCs3oCotP8OZr6_5synod7fixture24verify_workspace_fixture0B5_
FNDA:0,_RNCNvNtCs3oCotP8OZr6_5synod7fixture24verify_workspace_fixtures_0B5_
FNDA:2,_RNCNvNtCs3oCotP8OZr6_5synod7fixture25adaptive_selection_reason0B5_
FNDA:0,_RNCNvNtCs3oCotP8OZr6_5synod7fixture25build_adaptive_candidates0B5_
FNDA:0,_RNCNvNtCs3oCotP8OZr6_5synod7fixture25build_adaptive_candidatess0_0B5_
FNDA:0,_RNCNvNtCs3oCotP8OZr6_5synod7fixture25build_adaptive_candidatess1_0B5_
FNDA:0,_RNCNvNtCs3oCotP8OZr6_5synod7fixture25build_adaptive_candidatess2_0B5_
FNDA:0,_RNCNvNtCs3oCotP8OZr6_5synod7fixture25build_adaptive_candidatess3_0B5_
FNDA:0,_RNCNvNtCs3oCotP8OZr6_5synod7fixture25build_adaptive_candidatess4_0B5_
FNDA:0,_RNCNvNtCs3oCotP8OZr6_5synod7fixture25build_adaptive_candidatess5_0B5_
FNDA:0,_RNCNvNtCs3oCotP8OZr6_5synod7fixture25build_adaptive_candidatess_0B5_
FNDA:0,_RNCNvNtCs3oCotP8OZr6_5synod7fixture25build_validation_guidance0B5_
FNDA:1,_RNCNvNtCs3oCotP8OZr6_5synod7fixture25finalize_workspace_review0B5_
FNDA:0,_RNCNvNtCs3oCotP8OZr6_5synod7fixture25finalize_workspace_reviews_0B5_
FNDA:0,_RNCNvNtCs3oCotP8OZr6_5synod7fixture26arithmetic_swap_candidates0B5_
FNDA:3,_RNCNvNtCs3oCotP8OZr6_5synod7fixture26review_findings_from_state0B5_
FNDA:11,_RNCNvNtCs3oCotP8OZr6_5synod7fixture26snapshot_workspace_targets0B5_
FNDA:0,_RNCNvNtCs3oCotP8OZr6_5synod7fixture27adaptive_changes_for_target0B5_
FNDA:0,_RNCNvNtCs3oCotP8OZr6_5synod7fixture27build_adaptive_replan_steps0B5_
FNDA:0,_RNCNvNtCs3oCotP8OZr6_5synod7fixture27build_adaptive_replan_stepss0_0B5_
FNDA:0,_RNCNvNtCs3oCotP8OZr6_5synod7fixture27build_adaptive_replan_stepss2_0B5_
FNDA:0,_RNCNvNtCs3oCotP8OZr6_5synod7fixture27build_adaptive_replan_stepss3_0B5_
FNDA:0,_RNCNvNtCs3oCotP8OZr6_5synod7fixture27build_adaptive_replan_stepss4_0B5_
FNDA:0,_RNCNvNtCs3oCotP8OZr6_5synod7fixture27build_adaptive_replan_stepss5_0B5_
FNDA:0,_RNCNvNtCs3oCotP8OZr6_5synod7fixture27build_adaptive_replan_stepss_0B5_
FNDA:0,_RNCNvNtCs3oCotP8OZr6_5synod7fixture29load_workspace_target_sources0B5_
FNDA:0,_RNCNvNtCs3oCotP8OZr6_5synod7fixture30build_fixture_runtime_for_flow0B5_
FNDA:5,_RNCNvNtCs3oCotP8OZr6_5synod7fixture30build_fixture_runtime_for_flows0_0B5_
FNDA:8,_RNCNvNtCs3oCotP8OZr6_5synod7fixture30build_fixture_runtime_for_flows1_0B5_
FNDA:2,_RNCNvNtCs3oCotP8OZr6_5synod7fixture30build_fixture_runtime_for_flows2_0B5_
FNDA:4,_RNCNvNtCs3oCotP8OZr6_5synod7fixture30build_fixture_runtime_for_flows3_0B5_
FNDA:1,_RNCNvNtCs3oCotP8OZr6_5synod7fixture30build_fixture_runtime_for_flows4_0B5_
FNDA:1,_RNCNvNtCs3oCotP8OZr6_5synod7fixture30build_fixture_runtime_for_flows5_0B5_
FNDA:0,_RNCNvNtCs3oCotP8OZr6_5synod7fixture30build_fixture_runtime_for_flows_0B5_
FNDA:11,_RNCNvNtCs3oCotP8OZr6_5synod7fixture30build_review_steps_for_attempt0B5_
FNDA:1,_RNCNvNtCs3oCotP8OZr6_5synod7fixture30build_review_steps_for_attempts_0B5_
FNDA:26,_RNCNvNtCs3oCotP8OZr6_5synod7fixture30default_success_review_trigger0B5_
FNDA:0,_RNCNvNtCs3oCotP8OZr6_5synod7fixture30execution_attempt_from_request0B5_
FNDA:1,_RNCNvNtCs3oCotP8OZr6_5synod7fixture30review_participants_from_state0B5_
FNDA:1,_RNCNvNtCs3oCotP8OZr6_5synod7fixture30review_reviewer_ids_from_state0B5_
FNDA:0,_RNCNvNtCs3oCotP8OZr6_5synod7fixture32load_workspace_execution_profile0B5_
FNDA:1,_RNCNvNtCs3oCotP8OZr6_5synod7fixture32load_workspace_execution_profiles_0B5_
FNDA:0,_RNCNvNtCs3oCotP8OZr6_5synod7fixture33latest_workspace_slice_from_state0B5_
FNDA:0,_RNCNvNtCs3oCotP8OZr6_5synod7fixture40adaptive_candidate_signatures_from_state0B5_
FNDA:9,_RNvNtNtCs3oCotP8OZr6_5synod7fixture5tests14sample_profile
FNDA:5,_RNvNtNtCs3oCotP8OZr6_5synod7fixture5tests14temp_workspace
FNDA:2,_RNvNtNtCs3oCotP8OZr6_5synod7fixture5tests18request_with_state
FNDA:3,_RNvNtNtCs3oCotP8OZr6_5synod7fixture5tests21sample_review_profile
FNDA:6,_RNvNtNtCs3oCotP8OZr6_5synod7fixture5tests25write_execution_workspace
FNDA:10,_RNvNtNtCs3oCotP8OZr6_5synod7fixture5tests7request
FNDA:1,_RNvNtNtCs3oCotP8OZr6_5synod7fixture5testss_33loader_rejects_a_missing_manifest
FNDA:1,_RNvNtNtCs3oCotP8OZr6_5synod7fixture5testss_53execution_profile_loader_requires_the_modern_manifest
FNDA:1,_RNvNtNtCs3oCotP8OZr6_5synod7fixture5testss_53review_validation_failure_is_routed_into_review_state
FNDA:1,_RNvNtNtCs3oCotP8OZr6_5synod7fixture5testss_53review_vote_resolution_succeeds_for_pr_ready_findings
FNDA:1,_RNvNtNtCs3oCotP8OZr6_5synod7fixture5testss_62adaptive_helpers_cover_guidance_blockers_headlines_and_reasons
FNDA:1,_RNvNtNtCs3oCotP8OZr6_5synod7fixture5testss_62execution_profile_loader_prefers_the_new_manifest_when_present
FNDA:1,_RNvNtNtCs3oCotP8OZr6_5synod7fixture5testss_64build_vertical_slice_plan_covers_non_flow_and_all_built_in_flows
FNDA:1,_RNvNtNtCs3oCotP8OZr6_5synod7fixture5testss_64patch_application_is_idempotent_after_the_replacement_is_present
FNDA:1,_RNvNtNtCs3oCotP8OZr6_5synod7fixture5testss_65load_workspace_execution_profile_reports_parse_and_missing_errors
FNDA:1,_RNvNtNtCs3oCotP8OZr6_5synod7fixture5testss_66adaptive_helpers_cover_new_candidate_generators_and_family_scoring
FNDA:1,_RNvNtNtCs3oCotP8OZr6_5synod7fixture5testss_66verify_workspace_fixture_covers_success_failure_and_command_errors
FNDA:1,_RNvNtNtCs3oCotP8OZr6_5synod7fixture5testss_67fixture_analysis_surfaces_bounded_governance_context_for_flow_steps
FNDA:1,_RNvNtNtCs3oCotP8OZr6_5synod7fixture5testss_71workspace_fixture_validation_rejects_missing_fields_and_invalid_patches
FNDA:1,_RNvNtNtCs3oCotP8OZr6_5synod7fixture5testss_72build_vertical_slice_plan_appends_review_steps_when_review_is_configured
FNDA:1,_RNvNtNtCs3oCotP8OZr6_5synod7fixture5testss_75fixture_runtime_helpers_cover_analysis_builders_and_verify_invalid_attempts
FNDA:1,_RNvNtNtCs3oCotP8OZr6_5synod7fixture5testss_79adaptive_helpers_cover_path_matching_transition_rejections_and_failure_evidence
FNDA:1,_RNvNtNtCs3oCotP8OZr6_5synod7fixture5testss_80apply_workspace_fixture_covers_retry_invalid_attempt_success_and_already_applied
FNF:202
FNH:137
DA:108,3
DA:109,3
DA:110,1
DA:111,2
DA:113,2
DA:114,1
DA:115,1
DA:117,1
DA:118,1
DA:119,0
DA:121,0
DA:122,0
DA:123,0
DA:125,0
DA:126,0
DA:129,0
DA:130,3
DA:148,3
DA:149,3
DA:150,1
DA:151,2
DA:153,2
DA:154,1
DA:155,1
DA:157,1
DA:158,1
DA:159,0
DA:161,0
DA:162,3
DA:165,62
DA:166,62
DA:167,62
DA:169,59
DA:170,59
DA:171,59
DA:172,59
DA:173,59
DA:174,6
DA:175,53
DA:177,53
DA:178,0
DA:179,0
DA:180,52
DA:181,53
DA:182,1
DA:183,1
DA:184,52
DA:185,52
DA:186,59
DA:188,1
DA:189,1
DA:190,1
DA:192,0
DA:193,0
DA:194,0
DA:195,0
DA:196,0
DA:197,0
DA:199,8
DA:200,8
DA:201,8
DA:202,8
DA:203,8
DA:204,8
DA:206,8
DA:207,0
DA:208,8
DA:210,8
DA:211,8
DA:213,8
DA:214,8
DA:215,8
DA:216,8
DA:217,8
DA:218,8
DA:219,8
DA:220,8
DA:221,8
DA:222,8
DA:223,8
DA:224,8
DA:225,8
DA:226,8
DA:228,8
DA:229,8
DA:230,8
DA:232,8
DA:233,2
DA:234,0
DA:235,0
DA:236,0
DA:237,0
DA:238,0
DA:240,0
DA:241,2
DA:243,8
DA:244,6
DA:245,6
DA:246,6
DA:247,6
DA:248,6
DA:249,6
DA:250,6
DA:252,8
DA:253,1
DA:254,1
DA:255,1
DA:256,1
DA:257,1
DA:259,1
DA:260,0
DA:261,0
DA:262,0
DA:263,0
DA:264,1
DA:265,1
DA:266,1
DA:267,1
DA:269,1
DA:270,1
DA:271,1
DA:272,1
DA:273,1
DA:274,1
DA:275,0
DA:276,0
DA:277,0
DA:278,0
DA:279,0
DA:280,0
DA:281,0
DA:282,0
DA:283,0
DA:284,0
DA:285,1
DA:286,1
DA:287,0
DA:288,0
DA:289,0
DA:290,0
DA:291,0
DA:292,0
DA:293,0
DA:294,0
DA:295,0
DA:296,0
DA:297,0
DA:298,0
DA:299,0
DA:300,1
DA:301,7
DA:303,8
DA:304,8
DA:305,8
DA:306,8
DA:307,8
DA:308,8
DA:309,8
DA:310,8
DA:311,8
DA:313,8
DA:314,8
DA:315,8
DA:316,8
DA:317,8
DA:318,8
DA:319,8
DA:320,8
DA:321,8
DA:322,8
DA:323,8
DA:324,8
DA:325,8
DA:326,8
DA:328,8
DA:329,8
DA:330,8
DA:332,1
DA:333,1
DA:334,1
DA:336,28
DA:337,28
DA:338,28
DA:339,28
DA:340,28
DA:341,28
DA:342,28
DA:343,0
DA:345,0
DA:346,0
DA:347,0
DA:348,0
DA:349,0
DA:350,0
DA:351,0
DA:352,0
DA:353,0
DA:355,0
DA:356,0
DA:359,0
DA:360,0
DA:361,0
DA:362,0
DA:363,0
DA:364,0
DA:365,0
DA:366,0
DA:367,0
DA:368,0
DA:369,0
DA:371,0
DA:375,28
DA:376,28
DA:377,28
DA:381,28
DA:382,28
DA:383,28
DA:384,28
DA:385,28
DA:386,5
DA:387,5
DA:388,0
DA:389,28
DA:390,28
DA:391,28
DA:392,28
DA:393,8
DA:394,8
DA:395,0
DA:396,28
DA:397,28
DA:398,28
DA:399,0
DA:401,28
DA:402,28
DA:403,28
DA:404,28
DA:405,28
DA:406,4
DA:407,4
DA:408,0
DA:409,28
DA:410,28
DA:411,28
DA:412,0
DA:413,28
DA:414,28
DA:415,28
DA:416,0
DA:418,28
DA:419,28
DA:421,41
DA:422,41
DA:423,41
DA:424,41
DA:425,41
DA:426,41
DA:427,7
DA:428,7
DA:429,7
DA:432,34
DA:433,34
DA:435,34
DA:436,34
DA:437,32
DA:440,32
DA:441,0
DA:442,32
DA:445,32
DA:446,32
DA:447,32
DA:448,32
DA:449,32
DA:450,32
DA:451,32
DA:453,0
DA:454,32
DA:456,0
DA:457,0
DA:458,32
DA:461,32
DA:462,32
DA:463,32
DA:464,32
DA:465,32
DA:466,32
DA:468,0
DA:469,32
DA:471,0
DA:472,0
DA:474,2
DA:475,1
DA:478,1
DA:479,0
DA:480,1
DA:483,1
DA:484,1
DA:485,1
DA:487,0
DA:488,0
DA:489,1
DA:492,1
DA:493,1
DA:494,1
DA:496,0
DA:497,0
DA:499,1
DA:500,1
DA:503,1
DA:504,0
DA:505,1
DA:507,1
DA:508,1
DA:509,1
DA:510,1
DA:512,1
DA:514,0
DA:515,0
DA:516,1
DA:518,1
DA:519,1
DA:520,1
DA:521,1
DA:523,1
DA:525,0
DA:526,0
DA:527,1
DA:530,1
DA:531,1
DA:532,1
DA:534,0
DA:535,0
DA:536,1
DA:539,1
DA:540,1
DA:541,1
DA:543,0
DA:544,0
DA:546,0
DA:549,34
DA:551,34
DA:552,41
DA:554,28
DA:555,28
DA:556,28
DA:557,28
DA:558,28
DA:559,28
DA:560,3
DA:562,28
DA:563,28
DA:565,0
DA:566,0
DA:567,0
DA:568,0
DA:569,0
DA:570,0
DA:571,0
DA:572,0
DA:573,0
DA:574,0
DA:575,0
DA:576,0
DA:577,0
DA:578,0
DA:579,0
DA:580,0
DA:581,0
DA:582,0
DA:583,0
DA:584,0
DA:585,0
DA:588,0
DA:589,0
DA:592,0
DA:593,0
DA:594,0
DA:595,0
DA:598,0
DA:599,0
DA:601,0
DA:602,0
DA:603,0
DA:606,0
DA:607,0
DA:608,0
DA:611,0
DA:612,0
DA:613,0
DA:614,0
DA:615,0
DA:616,0
DA:617,0
DA:620,0
DA:622,0
DA:623,0
DA:624,0
DA:627,0
DA:628,0
DA:629,0
DA:631,0
DA:632,0
DA:634,0
DA:635,0
DA:638,0
DA:639,0
DA:640,0
DA:643,0
DA:644,0
DA:645,0
DA:647,0
DA:648,0
DA:649,0
DA:652,0
DA:653,0
DA:654,0
DA:656,0
DA:657,0
DA:659,0
DA:660,0
DA:663,0
DA:664,0
DA:665,0
DA:667,0
DA:668,0
DA:669,0
DA:670,0
DA:672,0
DA:674,0
DA:675,0
DA:676,0
DA:678,0
DA:679,0
DA:680,0
DA:681,0
DA:683,0
DA:685,0
DA:686,0
DA:687,0
DA:690,0
DA:691,0
DA:692,0
DA:693,0
DA:694,0
DA:696,0
DA:698,0
DA:699,0
DA:700,0
DA:703,0
DA:704,0
DA:705,0
DA:706,0
DA:707,0
DA:709,0
DA:711,0
DA:712,0
DA:714,0
DA:717,0
DA:718,0
DA:719,0
DA:720,0
DA:721,0
DA:723,0
DA:724,0
DA:726,0
DA:727,0
DA:728,0
DA:729,0
DA:730,0
DA:731,0
DA:732,0
DA:733,0
DA:734,0
DA:735,0
DA:736,0
DA:737,0
DA:738,0
DA:739,0
DA:740,0
DA:741,0
DA:742,0
DA:743,0
DA:744,0
DA:745,0
DA:746,0
DA:747,0
DA:748,0
DA:750,0
DA:751,0
DA:752,0
DA:753,0
DA:754,0
DA:755,0
DA:756,0
DA:758,0
DA:759,0
DA:760,0
DA:761,0
DA:762,0
DA:763,0
DA:764,0
DA:765,0
DA:766,0
DA:767,0
DA:768,0
DA:770,0
DA:771,0
DA:772,0
DA:773,0
DA:774,0
DA:775,0
DA:778,0
DA:779,0
DA:780,0
DA:782,0
DA:783,0
DA:784,0
DA:785,0
DA:786,0
DA:787,0
DA:788,0
DA:789,0
DA:790,0
DA:791,0
DA:792,0
DA:793,0
DA:794,0
DA:795,0
DA:796,0
DA:797,0
DA:798,0
DA:799,0
DA:801,0
DA:802,0
DA:803,0
DA:804,0
DA:805,0
DA:806,0
DA:807,0
DA:808,0
DA:809,0
DA:810,0
DA:812,0
DA:813,0
DA:814,0
DA:815,0
DA:816,0
DA:818,0
DA:819,0
DA:820,0
DA:821,0
DA:822,0
DA:823,0
DA:825,0
DA:826,0
DA:829,0
DA:830,0
DA:831,0
DA:833,0
DA:836,0
DA:837,0
DA:838,0
DA:839,0
DA:840,0
DA:841,0
DA:842,0
DA:843,0
DA:844,0
DA:845,0
DA:847,0
DA:848,0
DA:849,0
DA:851,0
DA:852,0
DA:853,0
DA:854,0
DA:855,0
DA:856,0
DA:857,0
DA:858,0
DA:859,0
DA:860,0
DA:861,0
DA:862,0
DA:863,0
DA:864,0
DA:865,0
DA:866,0
DA:870,0
DA:871,0
DA:872,0
DA:874,0
DA:875,0
DA:876,0
DA:878,0
DA:879,0
DA:880,0
DA:882,0
DA:884,0
DA:885,0
DA:886,0
DA:887,0
DA:888,0
DA:889,0
DA:890,0
DA:891,0
DA:892,0
DA:893,0
DA:894,0
DA:895,0
DA:896,0
DA:897,0
DA:898,0
DA:899,0
DA:900,0
DA:901,0
DA:902,0
DA:903,0
DA:904,0
DA:905,0
DA:906,0
DA:907,0
DA:908,0
DA:909,0
DA:910,0
DA:911,0
DA:912,0
DA:913,0
DA:914,0
DA:915,0
DA:916,0
DA:917,0
DA:918,0
DA:919,0
DA:920,0
DA:921,0
DA:922,0
DA:923,0
DA:925,0
DA:927,0
DA:928,0
DA:930,0
DA:931,0
DA:933,0
DA:935,0
DA:937,0
DA:938,0
DA:939,0
DA:940,0
DA:941,0
DA:942,0
DA:943,0
DA:944,0
DA:945,0
DA:947,0
DA:948,0
DA:949,0
DA:950,0
DA:951,0
DA:952,0
DA:953,0
DA:954,0
DA:955,0
DA:956,0
DA:958,0
DA:959,0
DA:960,0
DA:961,0
DA:962,0
DA:963,0
DA:964,0
DA:968,0
DA:973,0
DA:974,0
DA:975,0
DA:977,0
DA:978,0
DA:979,0
DA:980,0
DA:981,0
DA:982,0
DA:985,0
DA:987,0
DA:988,0
DA:989,0
DA:991,0
DA:992,0
DA:993,0
DA:994,0
DA:995,0
DA:996,0
DA:999,0
DA:1001,0
DA:1003,0
DA:1004,0
DA:1005,0
DA:1006,0
DA:1007,0
DA:1008,0
DA:1009,0
DA:1010,0
DA:1012,0
DA:1013,0
DA:1014,0
DA:1016,0
DA:1017,0
DA:1018,0
DA:1019,0
DA:1021,0
DA:1022,0
DA:1024,0
DA:1025,0
DA:1026,0
DA:1027,0
DA:1029,0
DA:1030,0
DA:1031,0
DA:1032,0
DA:1033,0
DA:1034,0
DA:1035,0
DA:1036,0
DA:1037,0
DA:1038,0
DA:1039,0
DA:1040,0
DA:1041,0
DA:1042,0
DA:1044,0
DA:1045,0
DA:1046,0
DA:1047,0
DA:1048,0
DA:1049,0
DA:1050,0
DA:1051,0
DA:1052,0
DA:1053,0
DA:1054,0
DA:1056,0
DA:1057,0
DA:1058,0
DA:1059,0
DA:1060,0
DA:1063,0
DA:1064,0
DA:1065,0
DA:1066,0
DA:1068,0
DA:1069,0
DA:1070,0
DA:1071,0
DA:1073,0
DA:1074,0
DA:1075,0
DA:1076,0
DA:1077,0
DA:1078,0
DA:1079,0
DA:1080,0
DA:1083,0
DA:1084,0
DA:1085,0
DA:1086,0
DA:1089,0
DA:1090,0
DA:1091,0
DA:1092,0
DA:1093,0
DA:1094,0
DA:1095,0
DA:1096,0
DA:1097,0
DA:1098,0
DA:1101,0
DA:1102,0
DA:1103,0
DA:1104,0
DA:1105,0
DA:1106,0
DA:1107,0
DA:1108,0
DA:1110,0
DA:1112,0
DA:1113,0
DA:1114,0
DA:1115,0
DA:1116,0
DA:1117,0
DA:1119,0
DA:1120,0
DA:1122,0
DA:1123,0
DA:1124,0
DA:1125,0
DA:1126,0
DA:1127,0
DA:1128,0
DA:1129,0
DA:1130,0
DA:1131,0
DA:1132,0
DA:1134,0
DA:1136,0
DA:1138,0
DA:1141,0
DA:1142,0
DA:1143,0
DA:1144,0
DA:1147,0
DA:1148,0
DA:1150,2
DA:1151,2
DA:1152,2
DA:1153,2
DA:1154,2
DA:1155,2
DA:1156,2
DA:1157,2
DA:1158,2
DA:1160,2
DA:1161,2
DA:1162,2
DA:1164,2
DA:1165,2
DA:1167,2
DA:1170,2
DA:1171,1
DA:1172,0
DA:1173,0
DA:1174,1
DA:1175,1
DA:1176,1
DA:1177,1
DA:1179,2
DA:1181,0
DA:1182,0
DA:1183,0
DA:1184,0
DA:1185,0
DA:1186,0
DA:1187,0
DA:1190,0
DA:1191,0
DA:1192,0
DA:1193,0
DA:1196,0
DA:1197,0
DA:1198,0
DA:1199,0
DA:1202,0
DA:1203,0
DA:1204,0
DA:1205,0
DA:1206,0
DA:1207,0
DA:1208,0
DA:1209,0
DA:1212,1
DA:1213,1
DA:1214,1
DA:1215,1
DA:1216,1
DA:1217,1
DA:1218,1
DA:1219,1
DA:1220,1
DA:1223,1
DA:1224,1
DA:1225,1
DA:1226,1
DA:1227,1
DA:1228,1
DA:1229,1
DA:1230,1
DA:1231,1
DA:1232,1
DA:1233,1
DA:1234,1
DA:1235,1
DA:1239,2
DA:1240,2
DA:1241,1
DA:1242,1
DA:1243,1
DA:1244,1
DA:1245,1
DA:1246,1
DA:1247,1
DA:1248,1
DA:1250,0
DA:1252,2
DA:1253,2
DA:1255,2
DA:1256,3
DA:1257,2
DA:1259,0
DA:1260,0
DA:1261,0
DA:1262,0
DA:1263,0
DA:1264,0
DA:1265,0
DA:1267,0
DA:1268,0
DA:1269,0
DA:1270,0
DA:1271,0
DA:1272,0
DA:1273,0
DA:1274,0
DA:1275,0
DA:1276,0
DA:1277,0
DA:1280,0
DA:1281,0
DA:1283,0
DA:1284,0
DA:1285,0
DA:1286,0
DA:1287,0
DA:1288,0
DA:1289,0
DA:1290,0
DA:1292,0
DA:1293,0
DA:1294,0
DA:1295,0
DA:1296,0
DA:1297,0
DA:1298,0
DA:1300,0
DA:1301,0
DA:1303,0
DA:1304,0
DA:1305,0
DA:1306,0
DA:1307,0
DA:1308,0
DA:1309,0
DA:1310,0
DA:1312,0
DA:1313,0
DA:1314,0
DA:1315,0
DA:1316,0
DA:1317,0
DA:1318,0
DA:1320,0
DA:1321,0
DA:1323,1
DA:1324,1
DA:1326,2
DA:1327,2
DA:1328,1
DA:1329,1
DA:1330,1
DA:1331,1
DA:1332,1
DA:1333,1
DA:1336,0
DA:1337,1
DA:1339,2
DA:1340,2
DA:1341,1
DA:1342,1
DA:1343,1
DA:1344,1
DA:1345,1
DA:1346,1
DA:1348,1
DA:1349,1
DA:1350,1
DA:1351,1
DA:1352,1
DA:1353,1
DA:1354,0
DA:1356,0
DA:1357,2
DA:1359,1
DA:1360,1
DA:1361,1
DA:1362,1
DA:1363,1
DA:1364,1
DA:1365,1
DA:1366,1
DA:1367,1
DA:1368,1
DA:1369,1
DA:1370,1
DA:1371,1
DA:1372,1
DA:1373,1
DA:1375,1
DA:1376,1
DA:1377,1
DA:1378,1
DA:1379,1
DA:1380,1
DA:1381,1
DA:1382,0
DA:1385,0
DA:1386,1
DA:1388,0
DA:1389,0
DA:1390,0
DA:1391,0
DA:1392,0
DA:1393,0
DA:1394,0
DA:1395,0
DA:1397,0
DA:1398,0
DA:1399,0
DA:1400,0
DA:1401,0
DA:1402,0
DA:1404,0
DA:1405,0
DA:1407,0
DA:1408,0
DA:1409,0
DA:1410,0
DA:1411,0
DA:1412,0
DA:1413,0
DA:1414,0
DA:1416,0
DA:1417,0
DA:1418,0
DA:1419,0
DA:1420,0
DA:1421,0
DA:1422,0
DA:1423,0
DA:1424,0
DA:1425,0
DA:1426,0
DA:1428,0
DA:1429,0
DA:1430,0
DA:1431,0
DA:1432,0
DA:1433,0
DA:1434,0
DA:1435,0
DA:1437,0
DA:1438,0
DA:1439,0
DA:1440,0
DA:1441,0
DA:1442,0
DA:1444,0
DA:1445,0
DA:1446,0
DA:1448,0
DA:1449,0
DA:1450,0
DA:1451,0
DA:1452,0
DA:1453,0
DA:1455,0
DA:1457,0
DA:1458,0
DA:1460,0
DA:1462,0
DA:1463,0
DA:1465,0
DA:1468,0
DA:1469,0
DA:1471,3
DA:1472,2
DA:1473,1
DA:1474,1
DA:1475,1
DA:1476,1
DA:1477,2
DA:1478,1
DA:1479,1
DA:1480,1
DA:1481,1
DA:1483,1
DA:1485,3
DA:1487,1
DA:1488,1
DA:1489,1
DA:1491,1
DA:1493,1
DA:1495,0
DA:1497,0
DA:1498,0
DA:1499,1
DA:1501,0
DA:1502,0
DA:1503,0
DA:1504,0
DA:1505,0
DA:1506,0
DA:1507,0
DA:1508,0
DA:1510,0
DA:1511,0
DA:1512,0
DA:1513,0
DA:1515,0
DA:1517,0
DA:1519,1
DA:1520,1
DA:1521,1
DA:1522,1
DA:1523,2
DA:1524,1
DA:1525,1
DA:1527,1
DA:1528,2
DA:1529,2
DA:1530,0
DA:1532,2
DA:1533,2
DA:1534,2
DA:1536,0
DA:1538,1
DA:1539,2
DA:1540,0
DA:1542,1
DA:1543,1
DA:1544,1
DA:1545,1
DA:1547,1
DA:1548,1
DA:1549,1
DA:1550,1
DA:1551,1
DA:1552,1
DA:1553,1
DA:1555,1
DA:1557,1
DA:1559,0
DA:1561,0
DA:1562,1
DA:1564,3
DA:1565,3
DA:1566,3
DA:1567,3
DA:1568,3
DA:1569,3
DA:1570,3
DA:1571,3
DA:1572,3
DA:1573,3
DA:1574,3
DA:1576,3
DA:1577,2
DA:1578,1
DA:1580,1
DA:1581,1
DA:1584,1
DA:1586,1
DA:1588,1
DA:1591,1
DA:1593,1
DA:1595,1
DA:1598,3
DA:1600,2
DA:1601,2
DA:1602,2
DA:1603,2
DA:1604,2
DA:1605,2
DA:1606,2
DA:1607,2
DA:1608,0
DA:1609,2
DA:1611,2
DA:1613,2
DA:1616,2
DA:1617,2
DA:1618,2
DA:1619,2
DA:1621,4
DA:1622,4
DA:1623,4
DA:1624,4
DA:1625,4
DA:1626,1
DA:1629,3
DA:1630,3
DA:1632,3
DA:1633,0
DA:1634,3
DA:1636,3
DA:1637,1
DA:1638,2
DA:1640,2
DA:1641,1
DA:1642,1
DA:1644,1
DA:1645,4
DA:1647,0
DA:1648,0
DA:1649,0
DA:1650,0
DA:1652,0
DA:1653,0
DA:1654,0
DA:1656,0
DA:1657,0
DA:1658,0
DA:1659,0
DA:1660,0
DA:1661,0
DA:1662,0
DA:1664,0
DA:1665,0
DA:1666,0
DA:1668,0
DA:1669,0
DA:1670,0
DA:1671,0
DA:1672,0
DA:1673,0
DA:1674,0
DA:1675,0
DA:1676,0
DA:1677,0
DA:1678,0
DA:1679,0
DA:1681,0
DA:1683,0
DA:1684,0
DA:1685,0
DA:1686,0
DA:1687,0
DA:1688,0
DA:1689,0
DA:1690,0
DA:1691,0
DA:1692,0
DA:1693,0
DA:1694,0
DA:1696,0
DA:1697,0
DA:1698,0
DA:1700,0
DA:1701,0
DA:1702,0
DA:1704,0
DA:1705,0
DA:1706,0
DA:1707,0
DA:1708,0
DA:1710,0
DA:1711,0
DA:1713,0
DA:1714,0
DA:1715,0
DA:1716,0
DA:1717,0
DA:1718,0
DA:1719,0
DA:1721,19
DA:1722,19
DA:1723,19
DA:1724,19
DA:1725,19
DA:1726,19
DA:1727,0
DA:1728,19
DA:1730,19
DA:1731,0
DA:1732,19
DA:1734,19
DA:1735,0
DA:1736,0
DA:1737,0
DA:1738,0
DA:1739,0
DA:1740,0
DA:1741,0
DA:1742,0
DA:1743,0
DA:1744,0
DA:1745,0
DA:1746,19
DA:1748,19
DA:1749,0
DA:1750,19
DA:1752,19
DA:1753,0
DA:1754,0
DA:1755,0
DA:1756,0
DA:1757,0
DA:1758,0
DA:1759,0
DA:1760,19
DA:1761,19
DA:1763,12
DA:1764,12
DA:1765,0
DA:1766,12
DA:1768,12
DA:1769,0
DA:1770,12
DA:1772,12
DA:1773,0
DA:1774,12
DA:1776,12
DA:1777,0
DA:1778,12
DA:1779,12
DA:1781,10
DA:1782,10
DA:1783,10
DA:1784,10
DA:1785,10
DA:1786,10
DA:1788,10
DA:1789,0
DA:1790,0
DA:1791,0
DA:1792,0
DA:1794,0
DA:1795,0
DA:1796,0
DA:1798,0
DA:1799,0
DA:1800,0
DA:1801,0
DA:1802,0
DA:1803,0
DA:1805,0
DA:1806,0
DA:1808,0
DA:1809,0
DA:1810,0
DA:1812,0
DA:1813,0
DA:1814,0
DA:1815,0
DA:1816,0
DA:1817,0
DA:1819,0
DA:1820,0
DA:1822,0
DA:1824,0
DA:1825,0
DA:1826,0
DA:1827,10
DA:1829,10
DA:1830,10
DA:1831,10
DA:1833,10
DA:1834,0
DA:1835,10
DA:1836,10
DA:1838,10
DA:1839,0
DA:1841,10
DA:1842,10
DA:1843,10
DA:1844,10
DA:1846,41
DA:1847,41
DA:1848,41
DA:1849,41
DA:1850,41
DA:1851,41
DA:1853,41
DA:1855,88
DA:1856,88
DA:1857,88
DA:1858,88
DA:1859,88
DA:1860,88
DA:1861,88
DA:1862,88
DA:1863,88
DA:1864,88
DA:1865,88
DA:1866,88
DA:1867,88
DA:1869,44
DA:1870,44
DA:1871,44
DA:1872,44
DA:1873,44
DA:1874,44
DA:1875,44
DA:1877,44
DA:1878,44
DA:1879,44
DA:1880,44
DA:1881,44
DA:1882,44
DA:1883,44
DA:1884,44
DA:1886,44
DA:1887,44
DA:1888,44
DA:1889,44
DA:1890,44
DA:1891,44
DA:1892,32
DA:1895,12
DA:1896,12
DA:1897,12
DA:1899,12
DA:1900,24
DA:1901,24
DA:1902,24
DA:1903,24
DA:1904,24
DA:1905,0
DA:1908,12
DA:1909,12
DA:1910,12
DA:1911,12
DA:1912,12
DA:1913,0
DA:1915,12
DA:1916,0
DA:1917,0
DA:1918,0
DA:1919,0
DA:1920,0
DA:1921,0
DA:1922,0
DA:1923,0
DA:1924,0
DA:1925,0
DA:1926,0
DA:1927,12
DA:1929,12
DA:1930,12
DA:1931,12
DA:1932,12
DA:1933,12
DA:1934,0
DA:1936,12
DA:1937,44
DA:1939,24
DA:1940,24
DA:1941,24
DA:1942,24
DA:1943,24
DA:1944,24
DA:1945,22
DA:1946,22
DA:1948,2
DA:1950,24
DA:1952,24
DA:1953,24
DA:1954,24
DA:1955,24
DA:1956,24
DA:1957,24
DA:1958,24
DA:1959,22
DA:1960,22
DA:1962,2
DA:1964,24
DA:1966,24
DA:1967,24
DA:1968,24
DA:1969,24
DA:1970,24
DA:1971,24
DA:1972,24
DA:1973,24
DA:1974,24
DA:1975,24
DA:1976,24
DA:1977,24
DA:1978,24
DA:1980,24
DA:1982,12
DA:1983,12
DA:1984,12
DA:1985,12
DA:1986,12
DA:1987,12
DA:1988,12
DA:1989,12
DA:1991,12
DA:1993,12
DA:1994,12
DA:1995,12
DA:1996,12
DA:1997,12
DA:1998,12
DA:1999,12
DA:2000,12
DA:2002,12
DA:2004,26
DA:2005,26
DA:2006,26
DA:2007,26
DA:2008,26
DA:2009,26
DA:2010,26
DA:2012,44
DA:2013,44
DA:2014,44
DA:2015,44
DA:2016,44
DA:2017,44
DA:2018,44
DA:2019,44
DA:2020,44
DA:2023,44
DA:2024,44
DA:2026,48
DA:2027,48
DA:2028,59
DA:2029,59
DA:2030,59
DA:2032,48
DA:2033,48
DA:2034,48
DA:2035,48
DA:2036,0
DA:2038,48
DA:2039,48
DA:2041,158
DA:2042,158
DA:2043,158
DA:2044,158
DA:2045,158
DA:2046,2
DA:2047,2
DA:2048,2
DA:2049,158
DA:2051,16
DA:2052,16
DA:2053,16
DA:2054,16
DA:2055,16
DA:2056,0
DA:2057,0
DA:2058,0
DA:2059,0
DA:2060,0
DA:2061,0
DA:2062,16
DA:2064,16
DA:2065,16
DA:2066,16
DA:2067,16
DA:2069,7
DA:2070,7
DA:2071,7
DA:2072,7
DA:2073,7
DA:2074,7
DA:2075,6
DA:2076,6
DA:2077,6
DA:2078,6
DA:2079,6
DA:2080,6
DA:2082,6
DA:2083,6
DA:2084,6
DA:2085,6
DA:2086,6
DA:2088,6
DA:2089,1
DA:2090,5
DA:2092,6
DA:2093,6
DA:2095,0
DA:2096,0
DA:2099,1
DA:2100,1
DA:2102,1
DA:2104,1
DA:2107,7
DA:2109,12
DA:2110,12
DA:2111,12
DA:2112,12
DA:2113,12
DA:2114,12
DA:2115,9
DA:2117,5
DA:2118,5
DA:2120,5
DA:2125,5
DA:2127,7
DA:2129,7
DA:2130,6
DA:2131,1
DA:2132,1
DA:2133,1
DA:2135,1
DA:2137,1
DA:2142,6
DA:2143,6
DA:2144,6
DA:2145,1
DA:2147,5
DA:2149,6
DA:2150,6
DA:2151,6
DA:2152,6
DA:2153,6
DA:2154,6
DA:2156,6
DA:2157,6
DA:2158,6
DA:2159,6
DA:2161,6
DA:2162,6
DA:2163,6
DA:2164,6
DA:2165,6
DA:2166,6
DA:2167,6
DA:2168,6
DA:2170,6
DA:2171,6
DA:2172,0
DA:2173,6
DA:2175,6
DA:2177,0
DA:2178,0
DA:2180,0
DA:2182,0
DA:2185,12
DA:2187,9
DA:2188,9
DA:2189,9
DA:2190,9
DA:2191,9
DA:2192,9
DA:2193,8
DA:2194,1
DA:2195,1
DA:2196,1
DA:2198,1
DA:2200,1
DA:2205,8
DA:2206,7
DA:2207,5
DA:2208,5
DA:2209,5
DA:2210,5
DA:2211,5
DA:2212,5
DA:2214,5
DA:2215,5
DA:2216,5
DA:2217,5
DA:2219,5
DA:2220,1
DA:2221,1
DA:2222,4
DA:2223,4
DA:2224,4
DA:2225,5
DA:2226,5
DA:2227,5
DA:2228,5
DA:2229,5
DA:2230,5
DA:2232,5
DA:2233,5
DA:2234,1
DA:2235,4
DA:2236,5
DA:2238,1
DA:2239,2
DA:2240,1
DA:2241,1
DA:2242,1
DA:2244,1
DA:2245,1
DA:2246,1
DA:2247,1
DA:2248,1
DA:2249,1
DA:2251,1
DA:2252,1
DA:2253,1
DA:2254,1
DA:2256,1
DA:2257,1
DA:2258,1
DA:2259,1
DA:2260,1
DA:2261,1
DA:2262,1
DA:2263,1
DA:2265,1
DA:2266,1
DA:2267,0
DA:2268,1
DA:2269,1
DA:2271,1
DA:2272,1
DA:2274,1
DA:2279,1
DA:2280,1
DA:2282,1
DA:2283,1
DA:2284,1
DA:2285,1
DA:2286,0
DA:2290,0
DA:2292,1
DA:2293,1
DA:2294,1
DA:2295,1
DA:2296,1
DA:2297,1
DA:2299,1
DA:2300,1
DA:2301,1
DA:2302,1
DA:2304,1
DA:2305,0
DA:2306,0
DA:2307,0
DA:2308,0
DA:2309,0
DA:2310,0
DA:2311,0
DA:2312,1
DA:2313,1
DA:2315,1
DA:2316,1
DA:2318,1
DA:2320,1
DA:2323,9
DA:2325,2
DA:2326,2
DA:2327,2
DA:2328,2
DA:2329,2
DA:2330,2
DA:2331,2
DA:2334,2
DA:2335,1
DA:2336,1
DA:2337,2
DA:2338,1
DA:2339,1
DA:2340,2
DA:2341,1
DA:2342,1
DA:2343,2
DA:2344,1
DA:2345,1
DA:2347,2
DA:2348,2
DA:2350,2
DA:2351,2
DA:2352,2
DA:2353,2
DA:2354,2
DA:2355,0
DA:2358,2
DA:2359,0
DA:2360,0
DA:2361,0
DA:2364,2
DA:2365,2
DA:2366,0
DA:2367,0
DA:2368,0
DA:2372,2
DA:2373,2
DA:2374,0
DA:2376,0
DA:2378,0
DA:2379,0
DA:2380,0
DA:2385,2
DA:2386,0
DA:2388,0
DA:2389,0
DA:2390,0
DA:2394,2
DA:2395,0
DA:2397,3
DA:2399,2
DA:2400,0
DA:2402,0
DA:2403,0
DA:2404,0
DA:2408,2
DA:2409,2
DA:2410,2
DA:2411,2
DA:2412,2
DA:2413,2
DA:2414,2
DA:2415,2
DA:2416,2
DA:2417,2
DA:2418,2
DA:2419,2
DA:2421,2
DA:2422,2
DA:2423,2
DA:2424,2
DA:2425,2
DA:2427,2
DA:2428,2
DA:2429,2
DA:2430,2
DA:2432,2
DA:2433,0
DA:2434,0
DA:2435,0
DA:2436,0
DA:2437,2
DA:2439,2
DA:2440,2
DA:2441,2
DA:2442,2
DA:2443,2
DA:2444,2
DA:2445,2
DA:2446,2
DA:2448,2
DA:2450,2
DA:2452,18
DA:2453,18
DA:2454,13
DA:2455,13
DA:2456,11
DA:2457,2
DA:2458,2
DA:2459,2
DA:2461,2
DA:2462,2
DA:2463,2
DA:2464,2
DA:2465,18
DA:2467,2
DA:2468,2
DA:2469,2
DA:2470,2
DA:2471,2
DA:2472,0
DA:2473,0
DA:2474,0
DA:2477,2
DA:2478,0
DA:2479,0
DA:2480,0
DA:2484,2
DA:2485,2
DA:2486,2
DA:2487,0
DA:2488,0
DA:2490,0
DA:2491,0
DA:2492,0
DA:2497,2
DA:2498,2
DA:2499,2
DA:2500,4
DA:2502,0
DA:2505,0
DA:2506,0
DA:2508,2
DA:2510,2
DA:2511,2
DA:2512,2
DA:2513,2
DA:2514,2
DA:2516,2
DA:2517,2
DA:2518,2
DA:2520,2
DA:2521,2
DA:2523,2
DA:2524,2
DA:2525,2
DA:2526,2
DA:2528,2
DA:2530,2
DA:2532,1
DA:2533,1
DA:2534,1
DA:2535,1
DA:2536,1
DA:2537,0
DA:2538,0
DA:2539,0
DA:2542,1
DA:2543,0
DA:2544,0
DA:2545,0
DA:2549,1
DA:2550,1
DA:2551,1
DA:2552,1
DA:2553,1
DA:2554,1
DA:2556,0
DA:2557,1
DA:2558,0
DA:2559,0
DA:2560,0
DA:2561,0
DA:2562,0
DA:2563,0
DA:2564,0
DA:2565,0
DA:2566,0
DA:2568,0
DA:2570,0
DA:2571,0
DA:2572,0
DA:2575,0
DA:2576,0
DA:2580,0
DA:2581,0
DA:2584,0
DA:2585,0
DA:2588,1
DA:2590,1
DA:2591,1
DA:2592,1
DA:2593,1
DA:2594,1
DA:2595,1
DA:2596,1
DA:2597,1
DA:2598,1
DA:2600,1
DA:2602,1
DA:2604,0
DA:2605,0
DA:2606,0
DA:2607,0
DA:2608,0
DA:2609,0
DA:2611,0
DA:2613,0
DA:2615,0
DA:2616,0
DA:2618,0
DA:2619,0
DA:2620,0
DA:2621,0
DA:2622,0
DA:2623,0
DA:2625,0
DA:2627,0
DA:2629,0
DA:2630,0
DA:2632,0
DA:2633,0
DA:2634,0
DA:2635,0
DA:2636,0
DA:2637,0
DA:2638,0
DA:2639,0
DA:2640,0
DA:2641,0
DA:2642,0
DA:2643,0
DA:2644,0
DA:2645,0
DA:2646,0
DA:2647,0
DA:2648,0
DA:2649,0
DA:2650,0
DA:2651,0
DA:2653,0
DA:2654,0
DA:2655,0
DA:2657,5
DA:2658,5
DA:2659,5
DA:2660,5
DA:2661,5
DA:2662,5
DA:2663,5
DA:2664,5
DA:2665,5
DA:2666,5
DA:2667,5
DA:2668,5
DA:2669,5
DA:2671,4
DA:2672,4
DA:2673,4
DA:2674,4
DA:2675,4
DA:2676,4
DA:2677,4
DA:2678,4
DA:2679,4
DA:2681,2
DA:2682,2
DA:2683,2
DA:2684,2
DA:2685,2
DA:2686,2
DA:2687,2
DA:2688,1
DA:2689,1
DA:2690,2
DA:2691,2
DA:2693,2
DA:2694,2
DA:2695,2
DA:2696,2
DA:2697,2
DA:2698,2
DA:2699,2
DA:2700,2
DA:2701,2
DA:2703,2
DA:2704,2
DA:2712,2
DA:2714,7
DA:2715,7
DA:2716,7
DA:2717,7
DA:2718,7
DA:2719,7
DA:2720,11
DA:2721,11
DA:2722,11
DA:2723,11
DA:2724,10
DA:2725,10
DA:2726,10
DA:2727,10
DA:2728,11
DA:2729,7
DA:2730,7
DA:2732,8
DA:2733,8
DA:2734,8
DA:2735,8
DA:2736,8
DA:2737,8
DA:2738,8
DA:2740,8
DA:2741,8
DA:2742,8
DA:2743,8
DA:2745,8
DA:2746,6
DA:2747,6
DA:2748,6
DA:2749,6
DA:2750,6
DA:2751,6
DA:2752,6
DA:2753,6
DA:2754,6
DA:2755,6
DA:2756,6
DA:2757,6
DA:2758,2
DA:2760,2
DA:2761,2
DA:2762,2
DA:2763,2
DA:2764,2
DA:2765,2
DA:2766,2
DA:2767,2
DA:2768,2
DA:2769,2
DA:2770,0
DA:2772,0
DA:2775,8
DA:2776,8
DA:2779,2
DA:2780,2
DA:2781,2
DA:2782,2
DA:2783,2
DA:2784,2
DA:2785,2
DA:2786,2
DA:2787,2
DA:2788,2
DA:2789,2
DA:2790,2
DA:2791,2
DA:2792,2
DA:2793,2
DA:2794,2
DA:2795,2
DA:2797,2
DA:2799,2
DA:2800,2
DA:2801,2
DA:2802,2
DA:2803,2
DA:2807,1
DA:2808,1
DA:2809,1
DA:2810,1
DA:2811,1
DA:2812,1
DA:2813,1
DA:2815,1
DA:2817,9
DA:2818,9
DA:2819,9
DA:2820,9
DA:2821,9
DA:2822,9
DA:2823,9
DA:2824,9
DA:2825,9
DA:2826,9
DA:2827,1
DA:2828,1
DA:2829,1
DA:2831,8
DA:2832,8
DA:2833,8
DA:2834,8
DA:2835,8
DA:2836,8
DA:2837,9
DA:2839,9
DA:2840,9
DA:2841,2
DA:2843,7
DA:2845,9
DA:2847,3
DA:2848,3
DA:2849,3
DA:2850,3
DA:2851,3
DA:2852,3
DA:2854,4
DA:2855,4
DA:2856,4
DA:2878,16
DA:2879,16
DA:2880,16
DA:2884,1
DA:2885,1
DA:2886,1
DA:2888,2
DA:2889,2
DA:2890,2
DA:2891,2
DA:2892,2
DA:2893,2
DA:2895,2
DA:2897,8
DA:2898,8
DA:2899,8
DA:2900,8
DA:2901,8
DA:2902,8
DA:2903,8
DA:2904,8
DA:2905,8
DA:2908,42
DA:2910,42
DA:2911,41
DA:2912,1
DA:2914,1
DA:2915,42
DA:2917,8
DA:2918,8
DA:2919,8
DA:3029,5
DA:3030,5
DA:3031,5
DA:3032,5
DA:3033,5
DA:3035,6
DA:3036,6
DA:3037,6
DA:3038,6
DA:3039,6
DA:3040,6
DA:3041,6
DA:3044,6
DA:3045,6
DA:3046,6
DA:3047,6
DA:3050,6
DA:3051,6
DA:3052,6
DA:3054,9
DA:3055,9
DA:3056,9
DA:3057,9
DA:3058,9
DA:3059,9
DA:3060,9
DA:3061,9
DA:3062,9
DA:3063,9
DA:3064,9
DA:3065,9
DA:3066,9
DA:3067,9
DA:3068,9
DA:3069,9
DA:3070,9
DA:3071,9
DA:3072,9
DA:3073,9
DA:3074,9
DA:3075,9
DA:3077,3
DA:3078,3
DA:3079,3
DA:3080,3
DA:3081,3
DA:3082,3
DA:3083,3
DA:3084,3
DA:3085,3
DA:3086,3
DA:3087,3
DA:3088,3
DA:3089,3
DA:3090,3
DA:3091,3
DA:3092,3
DA:3093,3
DA:3094,3
DA:3095,3
DA:3096,3
DA:3097,3
DA:3098,3
DA:3099,3
DA:3100,3
DA:3101,3
DA:3102,3
DA:3103,3
DA:3104,3
DA:3105,3
DA:3106,3
DA:3107,3
DA:3108,3
DA:3109,3
DA:3110,3
DA:3111,3
DA:3112,3
DA:3113,3
DA:3114,3
DA:3115,3
DA:3116,3
DA:3117,3
DA:3118,3
DA:3119,3
DA:3120,3
DA:3121,3
DA:3122,3
DA:3123,3
DA:3124,3
DA:3125,3
DA:3126,3
DA:3127,3
DA:3128,3
DA:3129,3
DA:3130,3
DA:3131,3
DA:3132,3
DA:3133,3
DA:3134,3
DA:3135,3
DA:3136,3
DA:3137,3
DA:3139,10
DA:3140,10
DA:3141,10
DA:3142,10
DA:3143,10
DA:3144,10
DA:3145,10
DA:3146,10
DA:3147,10
DA:3148,10
DA:3149,10
DA:3150,10
DA:3151,10
DA:3152,10
DA:3153,10
DA:3155,2
DA:3156,2
DA:3157,2
DA:3158,2
DA:3159,2
DA:3160,2
DA:3161,2
DA:3162,2
DA:3163,2
DA:3164,2
DA:3165,2
DA:3166,2
DA:3167,2
DA:3168,2
DA:3169,2
DA:3170,2
DA:3171,2
DA:3172,2
DA:3173,2
DA:3176,1
DA:3177,1
DA:3178,1
DA:3180,1
DA:3181,1
DA:3184,1
DA:3185,1
DA:3186,1
DA:3187,1
DA:3188,1
DA:3189,1
DA:3190,1
DA:3191,1
DA:3192,1
DA:3193,1
DA:3194,1
DA:3195,1
DA:3196,1
DA:3197,1
DA:3199,1
DA:3200,1
DA:3202,1
DA:3203,1
DA:3204,1
DA:3205,1
DA:3208,1
DA:3209,1
DA:3210,1
DA:3211,1
DA:3212,1
DA:3213,1
DA:3214,1
DA:3215,1
DA:3216,1
DA:3217,1
DA:3218,1
DA:3219,1
DA:3220,1
DA:3221,1
DA:3224,1
DA:3225,1
DA:3226,1
DA:3227,1
DA:3228,1
DA:3229,1
DA:3230,1
DA:3231,1
DA:3232,1
DA:3233,1
DA:3234,1
DA:3235,1
DA:3236,1
DA:3239,1
DA:3240,1
DA:3241,1
DA:3242,1
DA:3243,1
DA:3244,1
DA:3245,1
DA:3246,1
DA:3247,1
DA:3250,1
DA:3251,1
DA:3252,1
DA:3253,1
DA:3254,1
DA:3255,1
DA:3256,1
DA:3257,1
DA:3260,1
DA:3261,1
DA:3262,1
DA:3263,1
DA:3264,1
DA:3265,1
DA:3266,1
DA:3267,1
DA:3270,1
DA:3271,1
DA:3272,1
DA:3273,1
DA:3274,1
DA:3275,1
DA:3276,1
DA:3277,1
DA:3280,1
DA:3283,1
DA:3284,1
DA:3285,1
DA:3286,1
DA:3287,1
DA:3291,1
DA:3292,1
DA:3293,1
DA:3296,1
DA:3299,1
DA:3300,1
DA:3301,1
DA:3302,1
DA:3303,1
DA:3305,1
DA:3306,1
DA:3307,1
DA:3308,1
DA:3310,1
DA:3311,1
DA:3312,1
DA:3315,1
DA:3316,1
DA:3317,3
DA:3318,1
DA:3321,1
DA:3322,1
DA:3323,1
DA:3326,1
DA:3327,1
DA:3328,3
DA:3329,1
DA:3332,1
DA:3333,1
DA:3334,1
DA:3337,1
DA:3338,1
DA:3339,5
DA:3340,1
DA:3342,1
DA:3343,1
DA:3344,1
DA:3345,1
DA:3348,1
DA:3351,1
DA:3352,1
DA:3353,1
DA:3354,1
DA:3355,1
DA:3357,1
DA:3359,1
DA:3360,7
DA:3361,1
DA:3363,1
DA:3364,1
DA:3365,1
DA:3366,1
DA:3367,1
DA:3368,1
DA:3371,1
DA:3374,1
DA:3375,1
DA:3376,1
DA:3377,1
DA:3379,1
DA:3380,1
DA:3381,1
DA:3382,1
DA:3383,1
DA:3385,1
DA:3386,1
DA:3388,1
DA:3389,1
DA:3390,1
DA:3391,1
DA:3393,1
DA:3394,1
DA:3395,1
DA:3397,1
DA:3400,1
DA:3401,1
DA:3402,1
DA:3403,1
DA:3404,1
DA:3405,1
DA:3406,1
DA:3407,1
DA:3408,1
DA:3409,1
DA:3410,1
DA:3413,1
DA:3415,1
DA:3416,1
DA:3417,1
DA:3418,1
DA:3420,1
DA:3423,1
DA:3424,1
DA:3425,1
DA:3426,1
DA:3428,1
DA:3429,1
DA:3430,1
DA:3431,1
DA:3433,1
DA:3434,1
DA:3435,1
DA:3436,1
DA:3438,1
DA:3439,1
DA:3441,1
DA:3442,1
DA:3443,1
DA:3444,1
DA:3446,1
DA:3447,1
DA:3448,1
DA:3449,1
DA:3450,1
DA:3452,1
DA:3453,1
DA:3454,1
DA:3455,1
DA:3456,1
DA:3457,1
DA:3459,1
DA:3462,1
DA:3463,1
DA:3464,1
DA:3465,1
DA:3467,1
DA:3468,1
DA:3469,1
DA:3470,1
DA:3472,1
DA:3473,1
DA:3474,1
DA:3475,1
DA:3477,1
DA:3478,1
DA:3479,1
DA:3480,1
DA:3483,1
DA:3484,1
DA:3485,1
DA:3487,1
DA:3488,1
DA:3489,1
DA:3490,1
DA:3492,1
DA:3493,1
DA:3494,1
DA:3495,1
DA:3496,1
DA:3499,1
DA:3500,1
DA:3501,1
DA:3502,1
DA:3503,1
DA:3504,1
DA:3505,1
DA:3506,1
DA:3508,1
DA:3509,1
DA:3510,1
DA:3513,1
DA:3514,1
DA:3515,1
DA:3516,1
DA:3518,1
DA:3519,1
DA:3520,1
DA:3521,1
DA:3522,1
DA:3523,1
DA:3524,1
DA:3526,1
DA:3528,1
DA:3529,1
DA:3530,3
DA:3531,1
DA:3534,1
DA:3535,1
DA:3536,1
DA:3537,1
DA:3539,1
DA:3540,1
DA:3541,1
DA:3542,1
DA:3544,1
DA:3545,1
DA:3546,1
DA:3547,1
DA:3551,1
DA:3552,1
DA:3553,1
DA:3554,1
DA:3556,1
DA:3557,1
DA:3559,1
DA:3560,1
DA:3561,1
DA:3563,1
DA:3564,1
DA:3565,1
DA:3566,1
DA:3567,1
DA:3570,1
DA:3571,1
DA:3572,1
DA:3573,1
DA:3575,1
DA:3576,1
DA:3577,1
DA:3578,1
DA:3579,1
DA:3580,1
DA:3581,1
DA:3582,1
DA:3583,1
DA:3584,1
DA:3585,1
DA:3586,1
DA:3587,1
DA:3588,1
DA:3589,1
DA:3590,1
DA:3591,1
DA:3592,1
DA:3593,1
DA:3594,1
DA:3595,1
DA:3596,1
DA:3598,1
DA:3599,1
DA:3600,1
DA:3601,1
DA:3602,1
DA:3603,1
DA:3604,1
DA:3605,1
DA:3606,1
DA:3607,1
DA:3608,1
DA:3609,1
DA:3610,1
DA:3612,1
DA:3613,1
DA:3614,1
DA:3616,1
DA:3619,1
DA:3621,1
DA:3622,1
DA:3623,1
DA:3625,1
DA:3626,1
DA:3627,1
DA:3629,1
DA:3630,1
DA:3631,1
DA:3633,1
DA:3634,1
DA:3635,1
DA:3637,1
DA:3640,1
DA:3641,1
DA:3642,1
DA:3643,1
DA:3644,1
DA:3645,1
DA:3646,1
DA:3647,1
DA:3648,1
DA:3649,1
DA:3650,1
DA:3651,1
DA:3652,1
DA:3653,1
DA:3654,1
DA:3655,1
DA:3656,1
DA:3657,1
DA:3658,1
DA:3659,1
DA:3661,1
DA:3662,1
DA:3663,1
DA:3664,1
DA:3665,1
DA:3666,1
DA:3667,1
DA:3668,1
DA:3669,1
DA:3670,1
DA:3671,1
DA:3673,1
DA:3675,1
DA:3677,1
DA:3678,1
DA:3679,1
DA:3680,1
DA:3683,1
DA:3684,1
DA:3685,1
DA:3686,1
DA:3687,1
DA:3688,1
DA:3689,1
DA:3690,1
DA:3691,1
DA:3692,1
DA:3693,1
DA:3694,1
DA:3696,1
DA:3698,1
DA:3700,1
DA:3701,1
DA:3704,1
DA:3705,1
DA:3706,1
DA:3707,1
DA:3708,1
DA:3709,1
DA:3710,1
DA:3711,1
DA:3712,1
DA:3713,1
DA:3714,1
DA:3715,1
DA:3716,1
DA:3717,1
DA:3718,1
DA:3720,1
DA:3721,1
DA:3722,1
DA:3723,1
DA:3724,1
DA:3725,1
DA:3727,1
DA:3728,1
DA:3729,1
DA:3730,1
DA:3731,1
DA:3732,1
DA:3734,1
DA:3735,1
DA:3736,1
DA:3739,1
DA:3740,1
DA:3741,1
DA:3742,1
DA:3743,1
DA:3748,1
DA:3749,1
DA:3750,1
DA:3752,1
DA:3753,1
DA:3755,1
DA:3756,1
DA:3758,1
DA:3759,1
DA:3760,1
DA:3762,1
DA:3763,1
DA:3764,1
DA:3765,1
DA:3766,1
DA:3768,1
DA:3769,1
DA:3771,1
DA:3772,1
DA:3773,1
DA:3775,1
DA:3776,1
DA:3778,1
DA:3779,1
DA:3782,1
DA:3783,1
DA:3784,1
DA:3785,1
DA:3786,1
DA:3789,1
DA:3790,1
DA:3791,1
DA:3792,1
DA:3793,1
DA:3794,1
DA:3795,1
DA:3796,1
DA:3797,1
DA:3798,1
DA:3799,1
DA:3800,1
DA:3801,1
DA:3802,1
DA:3803,1
DA:3804,1
DA:3805,1
DA:3806,1
DA:3808,1
DA:3809,1
DA:3811,1
DA:3812,1
DA:3814,1
DA:3816,1
DA:3817,1
DA:3818,1
DA:3821,1
DA:3822,1
DA:3823,1
DA:3826,1
DA:3827,1
DA:3828,1
DA:3829,1
DA:3830,1
DA:3831,1
DA:3832,1
DA:3835,1
DA:3836,1
DA:3839,1
DA:3840,1
DA:3844,1
DA:3845,1
DA:3846,1
DA:3847,1
DA:3848,1
DA:3849,1
DA:3850,1
DA:3851,1
DA:3852,1
DA:3853,1
DA:3854,1
DA:3855,1
DA:3856,1
DA:3857,1
DA:3858,1
DA:3859,1
DA:3860,1
DA:3861,1
DA:3862,1
DA:3863,1
DA:3864,1
DA:3865,1
DA:3866,1
DA:3867,1
DA:3868,1
DA:3869,1
DA:3870,1
DA:3873,1
DA:3874,1
DA:3875,1
DA:3877,1
DA:3878,1
DA:3879,1
DA:3880,1
DA:3883,1
DA:3884,1
DA:3885,1
DA:3886,1
DA:3887,1
DA:3889,1
DA:3890,1
DA:3891,1
DA:3892,1
DA:3894,1
DA:3895,1
DA:3896,1
DA:3897,1
DA:3899,1
DA:3900,1
DA:3901,1
DA:3902,1
DA:3904,1
DA:3905,1
DA:3906,1
DA:3907,1
DA:3908,1
DA:3909,1
DA:3910,1
DA:3911,1
DA:3912,1
DA:3913,1
DA:3914,1
DA:3915,1
DA:3916,1
DA:3917,1
DA:3918,1
DA:3919,1
DA:3920,1
DA:3921,1
DA:3922,1
DA:3924,1
DA:3925,1
DA:3926,1
DA:3927,1
DA:3928,1
DA:3929,1
DA:3930,1
DA:3931,1
DA:3932,1
DA:3933,1
DA:3934,1
DA:3935,1
DA:3936,3
DA:3937,1
DA:3938,1
DA:3939,1
DA:3940,4
DA:3943,1
DA:3944,1
DA:3945,1
DA:3946,1
DA:3947,1
DA:3948,1
DA:3949,1
DA:3950,1
DA:3951,1
DA:3952,1
DA:3953,1
DA:3954,1
DA:3955,1
DA:3956,1
DA:3957,1
DA:3958,3
DA:3960,4
DA:3961,5
DA:3962,6
DA:3963,6
DA:3964,6
DA:3965,1
BRF:0
BRH:0
LF:3011
LH:1968
end_of_record
SF:/Users/rt/workspace/synod/src/orchestrator/decision_loop.rs
FN:302,_RNCNvMNtNtCs3oCotP8OZr6_5synod12orchestrator13decision_loopINtB4_12DecisionLoopNtNtNtB8_8adapters11trace_store14FileTraceStoreE15dispatch_action0B8_
FN:307,_RNCNvMNtNtCs3oCotP8OZr6_5synod12orchestrator13decision_loopINtB4_12DecisionLoopNtNtNtB8_8adapters11trace_store14FileTraceStoreE15dispatch_actions0_0B8_
FN:308,_RNCNvMNtNtCs3oCotP8OZr6_5synod12orchestrator13decision_loopINtB4_12DecisionLoopNtNtNtB8_8adapters11trace_store14FileTraceStoreE15dispatch_actions1_0B8_
FN:303,_RNCNvMNtNtCs3oCotP8OZr6_5synod12orchestrator13decision_loopINtB4_12DecisionLoopNtNtNtB8_8adapters11trace_store14FileTraceStoreE15dispatch_actions_0B8_
FN:115,_RNCNvMNtNtCs3oCotP8OZr6_5synod12orchestrator13decision_loopINtB4_12DecisionLoopNtNtNtB8_8adapters11trace_store14FileTraceStoreE3run0B8_
FN:131,_RNCNvMNtNtCs3oCotP8OZr6_5synod12orchestrator13decision_loopINtB4_12DecisionLoopNtNtNtB8_8adapters11trace_store14FileTraceStoreE3runs0_0B8_
FN:140,_RNCNvMNtNtCs3oCotP8OZr6_5synod12orchestrator13decision_loopINtB4_12DecisionLoopNtNtNtB8_8adapters11trace_store14FileTraceStoreE3runs1_0B8_
FN:141,_RNCNvMNtNtCs3oCotP8OZr6_5synod12orchestrator13decision_loopINtB4_12DecisionLoopNtNtNtB8_8adapters11trace_store14FileTraceStoreE3runs2_0B8_
FN:144,_RNCNvMNtNtCs3oCotP8OZr6_5synod12orchestrator13decision_loopINtB4_12DecisionLoopNtNtNtB8_8adapters11trace_store14FileTraceStoreE3runs3_0B8_
FN:152,_RNCNvMNtNtCs3oCotP8OZr6_5synod12orchestrator13decision_loopINtB4_12DecisionLoopNtNtNtB8_8adapters11trace_store14FileTraceStoreE3runs4_0B8_
FN:185,_RNCNvMNtNtCs3oCotP8OZr6_5synod12orchestrator13decision_loopINtB4_12DecisionLoopNtNtNtB8_8adapters11trace_store14FileTraceStoreE3runs5_0B8_
FN:116,_RNCNvMNtNtCs3oCotP8OZr6_5synod12orchestrator13decision_loopINtB4_12DecisionLoopNtNtNtB8_8adapters11trace_store14FileTraceStoreE3runs_0B8_
FN:274,_RNvMNtNtCs3oCotP8OZr6_5synod12orchestrator13decision_loopINtB2_12DecisionLoopNtNtNtB6_8adapters11trace_store14FileTraceStoreE15dispatch_actionB6_
FN:51,_RNvMNtNtCs3oCotP8OZr6_5synod12orchestrator13decision_loopINtB2_12DecisionLoopNtNtNtB6_8adapters11trace_store14FileTraceStoreE3newB6_
FN:61,_RNvMNtNtCs3oCotP8OZr6_5synod12orchestrator13decision_loopINtB2_12DecisionLoopNtNtNtB6_8adapters11trace_store14FileTraceStoreE3runB6_
FN:373,_RNvNtNtCs3oCotP8OZr6_5synod12orchestrator13decision_loop15adapter_binding
FN:316,_RNvNtNtCs3oCotP8OZr6_5synod12orchestrator13decision_loop22decision_event_payload
FN:382,_RNvNtNtCs3oCotP8OZr6_5synod12orchestrator13decision_loop22missing_adapter_result
FN:345,_RNvNtNtCs3oCotP8OZr6_5synod12orchestrator13decision_loop22recovery_decision_type
FN:330,_RNvNtNtCs3oCotP8OZr6_5synod12orchestrator13decision_loop22recovery_event_payload
FN:392,_RNvNtNtCs3oCotP8OZr6_5synod12orchestrator13decision_loop31tool_result_from_step_execution
FNDA:8,_RNCNvMNtNtCs3oCotP8OZr6_5synod12orchestrator13decision_loopINtB4_12DecisionLoopNtNtNtB8_8adapters11trace_store14FileTraceStoreE15dispatch_action0B8_
FNDA:4,_RNCNvMNtNtCs3oCotP8OZr6_5synod12orchestrator13decision_loopINtB4_12DecisionLoopNtNtNtB8_8adapters11trace_store14FileTraceStoreE15dispatch_actions0_0B8_
FNDA:0,_RNCNvMNtNtCs3oCotP8OZr6_5synod12orchestrator13decision_loopINtB4_12DecisionLoopNtNtNtB8_8adapters11trace_store14FileTraceStoreE15dispatch_actions1_0B8_
FNDA:0,_RNCNvMNtNtCs3oCotP8OZr6_5synod12orchestrator13decision_loopINtB4_12DecisionLoopNtNtNtB8_8adapters11trace_store14FileTraceStoreE15dispatch_actions_0B8_
FNDA:48,_RNCNvMNtNtCs3oCotP8OZr6_5synod12orchestrator13decision_loopINtB4_12DecisionLoopNtNtNtB8_8adapters11trace_store14FileTraceStoreE3run0B8_
FNDA:24,_RNCNvMNtNtCs3oCotP8OZr6_5synod12orchestrator13decision_loopINtB4_12DecisionLoopNtNtNtB8_8adapters11trace_store14FileTraceStoreE3runs0_0B8_
FNDA:12,_RNCNvMNtNtCs3oCotP8OZr6_5synod12orchestrator13decision_loopINtB4_12DecisionLoopNtNtNtB8_8adapters11trace_store14FileTraceStoreE3runs1_0B8_
FNDA:12,_RNCNvMNtNtCs3oCotP8OZr6_5synod12orchestrator13decision_loopINtB4_12DecisionLoopNtNtNtB8_8adapters11trace_store14FileTraceStoreE3runs2_0B8_
FNDA:24,_RNCNvMNtNtCs3oCotP8OZr6_5synod12orchestrator13decision_loopINtB4_12DecisionLoopNtNtNtB8_8adapters11trace_store14FileTraceStoreE3runs3_0B8_
FNDA:8,_RNCNvMNtNtCs3oCotP8OZr6_5synod12orchestrator13decision_loopINtB4_12DecisionLoopNtNtNtB8_8adapters11trace_store14FileTraceStoreE3runs4_0B8_
FNDA:0,_RNCNvMNtNtCs3oCotP8OZr6_5synod12orchestrator13decision_loopINtB4_12DecisionLoopNtNtNtB8_8adapters11trace_store14FileTraceStoreE3runs5_0B8_
FNDA:24,_RNCNvMNtNtCs3oCotP8OZr6_5synod12orchestrator13decision_loopINtB4_12DecisionLoopNtNtNtB8_8adapters11trace_store14FileTraceStoreE3runs_0B8_
FNDA:12,_RNvMNtNtCs3oCotP8OZr6_5synod12orchestrator13decision_loopINtB2_12DecisionLoopNtNtNtB6_8adapters11trace_store14FileTraceStoreE15dispatch_actionB6_
FNDA:4,_RNvMNtNtCs3oCotP8OZr6_5synod12orchestrator13decision_loopINtB2_12DecisionLoopNtNtNtB6_8adapters11trace_store14FileTraceStoreE3newB6_
FNDA:4,_RNvMNtNtCs3oCotP8OZr6_5synod12orchestrator13decision_loopINtB2_12DecisionLoopNtNtNtB6_8adapters11trace_store14FileTraceStoreE3runB6_
FNDA:12,_RNvNtNtCs3oCotP8OZr6_5synod12orchestrator13decision_loop15adapter_binding
FNDA:36,_RNvNtNtCs3oCotP8OZr6_5synod12orchestrator13decision_loop22decision_event_payload
FNDA:0,_RNvNtNtCs3oCotP8OZr6_5synod12orchestrator13decision_loop22missing_adapter_result
FNDA:0,_RNvNtNtCs3oCotP8OZr6_5synod12orchestrator13decision_loop22recovery_decision_type
FNDA:0,_RNvNtNtCs3oCotP8OZr6_5synod12orchestrator13decision_loop22recovery_event_payload
FNDA:12,_RNvNtNtCs3oCotP8OZr6_5synod12orchestrator13decision_loop31tool_result_from_step_execution
FNF:21
FNH:15
DA:51,4
DA:52,4
DA:53,4
DA:54,4
DA:55,4
DA:56,4
DA:57,4
DA:58,4
DA:61,4
DA:62,4
DA:63,4
DA:64,4
DA:65,4
DA:66,4
DA:67,4
DA:68,4
DA:69,4
DA:70,4
DA:71,4
DA:73,4
DA:74,4
DA:75,4
DA:77,4
DA:78,4
DA:79,4
DA:80,4
DA:81,4
DA:82,4
DA:83,4
DA:87,4
DA:88,4
DA:89,4
DA:90,4
DA:94,16
DA:95,0
DA:96,0
DA:97,0
DA:98,0
DA:99,0
DA:101,0
DA:102,0
DA:103,0
DA:104,0
DA:107,0
DA:108,16
DA:111,16
DA:112,16
DA:113,16
DA:114,16
DA:115,48
DA:116,24
DA:117,16
DA:119,16
DA:120,4
DA:121,4
DA:122,4
DA:123,4
DA:125,4
DA:127,4
DA:128,12
DA:130,12
DA:131,24
DA:132,12
DA:133,12
DA:134,12
DA:135,12
DA:136,12
DA:137,12
DA:138,12
DA:139,12
DA:140,12
DA:141,12
DA:143,12
DA:144,24
DA:148,12
DA:149,12
DA:150,12
DA:151,12
DA:152,12
DA:153,12
DA:154,12
DA:155,0
DA:157,12
DA:158,12
DA:159,12
DA:160,12
DA:162,0
DA:163,0
DA:166,0
DA:170,12
DA:171,12
DA:172,0
DA:173,0
DA:174,0
DA:175,0
DA:176,0
DA:177,0
DA:180,12
DA:181,12
DA:182,12
DA:183,12
DA:184,12
DA:185,12
DA:186,12
DA:190,12
DA:191,12
DA:193,12
DA:194,12
DA:195,12
DA:197,12
DA:201,12
DA:202,12
DA:203,12
DA:204,12
DA:206,12
DA:211,12
DA:214,12
DA:215,12
DA:216,12
DA:217,12
DA:218,12
DA:220,12
DA:222,12
DA:223,0
DA:224,0
DA:225,0
DA:226,0
DA:227,0
DA:229,0
DA:231,0
DA:233,12
DA:235,12
DA:236,12
DA:237,12
DA:240,0
DA:241,0
DA:242,0
DA:243,0
DA:245,0
DA:248,0
DA:249,0
DA:250,0
DA:251,0
DA:252,0
DA:253,0
DA:254,0
DA:255,0
DA:256,0
DA:258,0
DA:259,0
DA:260,0
DA:263,0
DA:264,0
DA:268,12
DA:269,12
DA:271,4
DA:274,12
DA:275,12
DA:276,12
DA:277,12
DA:278,12
DA:279,12
DA:280,12
DA:281,12
DA:282,12
DA:283,12
DA:284,12
DA:285,12
DA:286,12
DA:287,12
DA:288,12
DA:289,12
DA:290,12
DA:291,12
DA:292,12
DA:293,12
DA:294,12
DA:295,12
DA:296,12
DA:297,12
DA:298,12
DA:299,8
DA:300,8
DA:301,8
DA:302,8
DA:303,8
DA:304,4
DA:305,4
DA:306,4
DA:307,4
DA:308,4
DA:309,0
DA:312,12
DA:313,12
DA:316,36
DA:317,36
DA:318,36
DA:319,36
DA:320,36
DA:321,36
DA:322,36
DA:323,36
DA:324,36
DA:325,36
DA:326,36
DA:328,36
DA:330,0
DA:331,0
DA:332,0
DA:333,0
DA:334,0
DA:335,0
DA:336,0
DA:337,0
DA:338,0
DA:339,0
DA:340,0
DA:341,0
DA:343,0
DA:345,0
DA:346,0
DA:347,0
DA:348,0
DA:349,0
DA:350,0
DA:351,0
DA:352,0
DA:353,0
DA:356,0
DA:357,0
DA:358,0
DA:359,0
DA:360,0
DA:363,0
DA:364,0
DA:366,0
DA:367,0
DA:368,0
DA:370,0
DA:371,0
DA:373,12
DA:374,12
DA:375,4
DA:376,4
DA:377,4
DA:378,0
DA:380,12
DA:382,0
DA:383,0
DA:384,0
DA:386,0
DA:388,0
DA:390,0
DA:392,12
DA:393,12
DA:394,12
DA:395,12
DA:396,12
DA:397,12
DA:398,12
DA:399,12
DA:400,12
DA:404,12
DA:405,12
DA:406,12
DA:407,12
DA:408,0
DA:409,0
DA:411,12
DA:412,4
DA:413,8
DA:415,12
DA:416,4
DA:417,8
DA:419,12
DA:420,4
DA:421,8
DA:422,0
DA:424,12
DA:425,0
DA:426,0
DA:427,0
DA:428,12
DA:430,12
DA:431,8
DA:432,0
DA:433,0
DA:434,12
DA:436,12
DA:437,0
DA:438,12
DA:440,12
DA:441,12
BRF:0
BRH:0
LF:305
LH:205
end_of_record
SF:/Users/rt/workspace/synod/src/orchestrator/engine.rs
FN:1141,_RNvXs1_NtNtNtCs3oCotP8OZr6_5synod12orchestrator6engine5testsNtB5_14TestTraceStoreNtNtNtBb_8adapters11trace_store10TraceStore4load
FN:1145,_RNvXs1_NtNtNtCs3oCotP8OZr6_5synod12orchestrator6engine5testsNtB5_14TestTraceStoreNtNtNtBb_8adapters11trace_store10TraceStore6latest
FN:1090,_RNvMNtNtNtCs3oCotP8OZr6_5synod12orchestrator6engine5testsNtB2_11TestPlanner18with_replan_result
FN:1086,_RNvMNtNtNtCs3oCotP8OZr6_5synod12orchestrator6engine5testsNtB2_11TestPlanner20failing_initial_plan
FN:1082,_RNvMNtNtNtCs3oCotP8OZr6_5synod12orchestrator6engine5testsNtB2_11TestPlanner9from_plan
FN:1120,_RNvMs0_NtNtNtCs3oCotP8OZr6_5synod12orchestrator6engine5testsNtB5_14TestTraceStore10succeeding
FN:1124,_RNvMs0_NtNtNtCs3oCotP8OZr6_5synod12orchestrator6engine5testsNtB5_14TestTraceStore7fail_on
FN:1161,_RNvNtNtNtCs3oCotP8OZr6_5synod12orchestrator6engine5tests13build_context
FN:1150,_RNvNtNtNtCs3oCotP8OZr6_5synod12orchestrator6engine5tests13build_request
FN:1165,_RNvNtNtNtCs3oCotP8OZr6_5synod12orchestrator6engine5tests18build_orchestrator
FN:1202,_RNvNtNtNtCs3oCotP8OZr6_5synod12orchestrator6engine5tests19build_governed_plan
FN:1224,_RNvNtNtNtCs3oCotP8OZr6_5synod12orchestrator6engine5tests19build_governed_task
FN:1176,_RNvNtNtNtCs3oCotP8OZr6_5synod12orchestrator6engine5tests24build_governance_profile
FN:1217,_RNvNtNtNtCs3oCotP8OZr6_5synod12orchestrator6engine5tests27build_governed_orchestrator
FN:1351,_RNvNtNtNtCs3oCotP8OZr6_5synod12orchestrator6engine5testss_49run_stops_with_step_limit_exceeded_after_retrying
FN:1567,_RNvNtNtNtCs3oCotP8OZr6_5synod12orchestrator6engine5testss_53handle_governance_block_continues_for_optional_stages
FN:1613,_RNvNtNtNtCs3oCotP8OZr6_5synod12orchestrator6engine5testss_54run_marks_task_not_credible_when_planner_cannot_replan
FN:1337,_RNvNtNtNtCs3oCotP8OZr6_5synod12orchestrator6engine5testss_54run_returns_planning_errors_from_initial_plan_creation
FN:1366,_RNvNtNtNtCs3oCotP8OZr6_5synod12orchestrator6engine5testss_55run_stops_when_current_plan_has_no_executable_next_step
FN:1272,_RNvNtNtNtCs3oCotP8OZr6_5synod12orchestrator6engine5testss_56execute_agent_and_tool_cover_missing_and_unknown_targets
FN:1399,_RNvNtNtNtCs3oCotP8OZr6_5synod12orchestrator6engine5testss_57run_blocks_required_canon_governance_for_flow_aware_steps
FN:1706,_RNvNtNtNtCs3oCotP8OZr6_5synod12orchestrator6engine5testss_59execute_step_dispatches_registered_agent_and_tool_endpoints
FN:1381,_RNvNtNtNtCs3oCotP8OZr6_5synod12orchestrator6engine5testss_59run_executes_optional_local_governance_for_flow_aware_steps
FN:1424,_RNvNtNtNtCs3oCotP8OZr6_5synod12orchestrator6engine5testss_62record_governance_decision_event_records_full_decision_payload
FN:1518,_RNvNtNtNtCs3oCotP8OZr6_5synod12orchestrator6engine5testss_63apply_governance_response_terminalizes_when_approval_is_pending
FN:1230,_RNvNtNtNtCs3oCotP8OZr6_5synod12orchestrator6engine5testss_63execute_decision_covers_success_retry_replan_and_terminal_paths
FN:1674,_RNvNtNtNtCs3oCotP8OZr6_5synod12orchestrator6engine5testss_64persist_trace_surfaces_store_failures_on_first_and_second_writes
FN:1643,_RNvNtNtNtCs3oCotP8OZr6_5synod12orchestrator6engine5testss_64run_normalizes_invalid_agent_results_into_unrecoverable_failures
FN:1316,_RNvNtNtNtCs3oCotP8OZr6_5synod12orchestrator6engine5testss_65normalize_result_converts_invalid_payloads_into_terminal_failures
FN:1629,_RNvNtNtNtCs3oCotP8OZr6_5synod12orchestrator6engine5testss_66run_marks_task_not_credible_when_replacement_plan_has_no_next_step
FN:1450,_RNvNtNtNtCs3oCotP8OZr6_5synod12orchestrator6engine5testss_73apply_governance_response_continues_after_optional_local_packet_rejection
FN:1130,_RNvXs1_NtNtNtCs3oCotP8OZr6_5synod12orchestrator6engine5testsNtB5_14TestTraceStoreNtNtNtBb_8adapters11trace_store10TraceStore7persist
FN:1096,_RNvXs_NtNtNtCs3oCotP8OZr6_5synod12orchestrator6engine5testsNtB4_11TestPlannerNtNtB8_7planner7Planner19create_initial_plan
FN:1104,_RNvXs_NtNtNtCs3oCotP8OZr6_5synod12orchestrator6engine5testsNtB4_11TestPlannerNtNtB8_7planner7Planner6replan
FN:1607,_RNCNvNtNtNtCs3oCotP8OZr6_5synod12orchestrator6engine5testss_53handle_governance_block_continues_for_optional_stages0B9_
FN:1714,_RNCNvNtNtNtCs3oCotP8OZr6_5synod12orchestrator6engine5testss_59execute_step_dispatches_registered_agent_and_tool_endpoints0B9_
FN:1726,_RNCNvNtNtNtCs3oCotP8OZr6_5synod12orchestrator6engine5testss_59execute_step_dispatches_registered_agent_and_tool_endpointss_0B9_
FN:1562,_RNCNvNtNtNtCs3oCotP8OZr6_5synod12orchestrator6engine5testss_63apply_governance_response_terminalizes_when_approval_is_pending0B9_
FN:1652,_RNCNvNtNtNtCs3oCotP8OZr6_5synod12orchestrator6engine5testss_64run_normalizes_invalid_agent_results_into_unrecoverable_failures0B9_
FN:1510,_RNCNvNtNtNtCs3oCotP8OZr6_5synod12orchestrator6engine5testss_73apply_governance_response_continues_after_optional_local_packet_rejection0B9_
FN:1513,_RNCNvNtNtNtCs3oCotP8OZr6_5synod12orchestrator6engine5testss_73apply_governance_response_continues_after_optional_local_packet_rejections_0B9_
FN:687,_RNCNCNvMNtNtCs3oCotP8OZr6_5synod12orchestrator6engineINtB6_12OrchestratorINtNtCs1OjIl8oxbrv_5alloc4sync3ArcDNtNtB8_7planner7PlannerEL_ENtNtNtBa_8adapters11trace_store14FileTraceStoreE25apply_governance_responses0_00Ba_
FN:693,_RNCNCNvMNtNtCs3oCotP8OZr6_5synod12orchestrator6engineINtB6_12OrchestratorINtNtCs1OjIl8oxbrv_5alloc4sync3ArcDNtNtB8_7planner7PlannerEL_ENtNtNtBa_8adapters11trace_store14FileTraceStoreE25apply_governance_responses0_0s_0Ba_
FN:687,_RNCNCNvMNtNtCs3oCotP8OZr6_5synod12orchestrator6engineINtB6_12OrchestratorNtNtB6_5tests11TestPlannerNtB1b_14TestTraceStoreE25apply_governance_responses0_00Ba_
FN:693,_RNCNCNvMNtNtCs3oCotP8OZr6_5synod12orchestrator6engineINtB6_12OrchestratorNtNtB6_5tests11TestPlannerNtB1b_14TestTraceStoreE25apply_governance_responses0_0s_0Ba_
FN:975,_RNCNvMNtNtCs3oCotP8OZr6_5synod12orchestrator6engineINtB4_12OrchestratorINtNtCs1OjIl8oxbrv_5alloc4sync3ArcDNtNtB6_7planner7PlannerEL_ENtNtNtB8_8adapters11trace_store14FileTraceStoreE16execute_decision0B8_
FN:356,_RNCNvMNtNtCs3oCotP8OZr6_5synod12orchestrator6engineINtB4_12OrchestratorINtNtCs1OjIl8oxbrv_5alloc4sync3ArcDNtNtB6_7planner7PlannerEL_ENtNtNtB8_8adapters11trace_store14FileTraceStoreE23ensure_stage_governance0B8_
FN:387,_RNCNvMNtNtCs3oCotP8OZr6_5synod12orchestrator6engineINtB4_12OrchestratorINtNtCs1OjIl8oxbrv_5alloc4sync3ArcDNtNtB6_7planner7PlannerEL_ENtNtNtB8_8adapters11trace_store14FileTraceStoreE23ensure_stage_governances0_0B8_
FN:392,_RNCNvMNtNtCs3oCotP8OZr6_5synod12orchestrator6engineINtB4_12OrchestratorINtNtCs1OjIl8oxbrv_5alloc4sync3ArcDNtNtB6_7planner7PlannerEL_ENtNtNtB8_8adapters11trace_store14FileTraceStoreE23ensure_stage_governances1_0B8_
FN:399,_RNCNvMNtNtCs3oCotP8OZr6_5synod12orchestrator6engineINtB4_12OrchestratorINtNtCs1OjIl8oxbrv_5alloc4sync3ArcDNtNtB6_7planner7PlannerEL_ENtNtNtB8_8adapters11trace_store14FileTraceStoreE23ensure_stage_governances2_0B8_
FN:417,_RNCNvMNtNtCs3oCotP8OZr6_5synod12orchestrator6engineINtB4_12OrchestratorINtNtCs1OjIl8oxbrv_5alloc4sync3ArcDNtNtB6_7planner7PlannerEL_ENtNtNtB8_8adapters11trace_store14FileTraceStoreE23ensure_stage_governances5_0B8_
FN:510,_RNCNvMNtNtCs3oCotP8OZr6_5synod12orchestrator6engineINtB4_12OrchestratorINtNtCs1OjIl8oxbrv_5alloc4sync3ArcDNtNtB6_7planner7PlannerEL_ENtNtNtB8_8adapters11trace_store14FileTraceStoreE23ensure_stage_governances7_0B8_
FN:511,_RNCNvMNtNtCs3oCotP8OZr6_5synod12orchestrator6engineINtB4_12OrchestratorINtNtCs1OjIl8oxbrv_5alloc4sync3ArcDNtNtB6_7planner7PlannerEL_ENtNtNtB8_8adapters11trace_store14FileTraceStoreE23ensure_stage_governances8_0B8_
FN:512,_RNCNvMNtNtCs3oCotP8OZr6_5synod12orchestrator6engineINtB4_12OrchestratorINtNtCs1OjIl8oxbrv_5alloc4sync3ArcDNtNtB6_7planner7PlannerEL_ENtNtNtB8_8adapters11trace_store14FileTraceStoreE23ensure_stage_governances9_0B8_
FN:378,_RNCNvMNtNtCs3oCotP8OZr6_5synod12orchestrator6engineINtB4_12OrchestratorINtNtCs1OjIl8oxbrv_5alloc4sync3ArcDNtNtB6_7planner7PlannerEL_ENtNtNtB8_8adapters11trace_store14FileTraceStoreE23ensure_stage_governances_0B8_
FN:514,_RNCNvMNtNtCs3oCotP8OZr6_5synod12orchestrator6engineINtB4_12OrchestratorINtNtCs1OjIl8oxbrv_5alloc4sync3ArcDNtNtB6_7planner7PlannerEL_ENtNtNtB8_8adapters11trace_store14FileTraceStoreE23ensure_stage_governancesa_0B8_
FN:536,_RNCNvMNtNtCs3oCotP8OZr6_5synod12orchestrator6engineINtB4_12OrchestratorINtNtCs1OjIl8oxbrv_5alloc4sync3ArcDNtNtB6_7planner7PlannerEL_ENtNtNtB8_8adapters11trace_store14FileTraceStoreE23ensure_stage_governancesb_0B8_
FN:583,_RNCNvMNtNtCs3oCotP8OZr6_5synod12orchestrator6engineINtB4_12OrchestratorINtNtCs1OjIl8oxbrv_5alloc4sync3ArcDNtNtB6_7planner7PlannerEL_ENtNtNtB8_8adapters11trace_store14FileTraceStoreE23ensure_stage_governancesd_0B8_
FN:601,_RNCNvMNtNtCs3oCotP8OZr6_5synod12orchestrator6engineINtB4_12OrchestratorINtNtCs1OjIl8oxbrv_5alloc4sync3ArcDNtNtB6_7planner7PlannerEL_ENtNtNtB8_8adapters11trace_store14FileTraceStoreE23ensure_stage_governancese_0B8_
FN:530,_RNCNvMNtNtCs3oCotP8OZr6_5synod12orchestrator6engineINtB4_12OrchestratorINtNtCs1OjIl8oxbrv_5alloc4sync3ArcDNtNtB6_7planner7PlannerEL_ENtNtNtB8_8adapters11trace_store14FileTraceStoreE23ensure_stage_governancesg_0B8_
FN:531,_RNCNvMNtNtCs3oCotP8OZr6_5synod12orchestrator6engineINtB4_12OrchestratorINtNtCs1OjIl8oxbrv_5alloc4sync3ArcDNtNtB6_7planner7PlannerEL_ENtNtNtB8_8adapters11trace_store14FileTraceStoreE23ensure_stage_governancesh_0B8_
FN:595,_RNCNvMNtNtCs3oCotP8OZr6_5synod12orchestrator6engineINtB4_12OrchestratorINtNtCs1OjIl8oxbrv_5alloc4sync3ArcDNtNtB6_7planner7PlannerEL_ENtNtNtB8_8adapters11trace_store14FileTraceStoreE23ensure_stage_governancesi_0B8_
FN:596,_RNCNvMNtNtCs3oCotP8OZr6_5synod12orchestrator6engineINtB4_12OrchestratorINtNtCs1OjIl8oxbrv_5alloc4sync3ArcDNtNtB6_7planner7PlannerEL_ENtNtNtB8_8adapters11trace_store14FileTraceStoreE23ensure_stage_governancesj_0B8_
FN:852,_RNCNvMNtNtCs3oCotP8OZr6_5synod12orchestrator6engineINtB4_12OrchestratorINtNtCs1OjIl8oxbrv_5alloc4sync3ArcDNtNtB6_7planner7PlannerEL_ENtNtNtB8_8adapters11trace_store14FileTraceStoreE23handle_governance_block0B8_
FN:856,_RNCNvMNtNtCs3oCotP8OZr6_5synod12orchestrator6engineINtB4_12OrchestratorINtNtCs1OjIl8oxbrv_5alloc4sync3ArcDNtNtB6_7planner7PlannerEL_ENtNtNtB8_8adapters11trace_store14FileTraceStoreE23handle_governance_blocks_0B8_
FN:673,_RNCNvMNtNtCs3oCotP8OZr6_5synod12orchestrator6engineINtB4_12OrchestratorINtNtCs1OjIl8oxbrv_5alloc4sync3ArcDNtNtB6_7planner7PlannerEL_ENtNtNtB8_8adapters11trace_store14FileTraceStoreE25apply_governance_response0B8_
FN:683,_RNCNvMNtNtCs3oCotP8OZr6_5synod12orchestrator6engineINtB4_12OrchestratorINtNtCs1OjIl8oxbrv_5alloc4sync3ArcDNtNtB6_7planner7PlannerEL_ENtNtNtB8_8adapters11trace_store14FileTraceStoreE25apply_governance_responses0_0B8_
FN:703,_RNCNvMNtNtCs3oCotP8OZr6_5synod12orchestrator6engineINtB4_12OrchestratorINtNtCs1OjIl8oxbrv_5alloc4sync3ArcDNtNtB6_7planner7PlannerEL_ENtNtNtB8_8adapters11trace_store14FileTraceStoreE25apply_governance_responses1_0B8_
FN:715,_RNCNvMNtNtCs3oCotP8OZr6_5synod12orchestrator6engineINtB4_12OrchestratorINtNtCs1OjIl8oxbrv_5alloc4sync3ArcDNtNtB6_7planner7PlannerEL_ENtNtNtB8_8adapters11trace_store14FileTraceStoreE25apply_governance_responses2_0B8_
FN:716,_RNCNvMNtNtCs3oCotP8OZr6_5synod12orchestrator6engineINtB4_12OrchestratorINtNtCs1OjIl8oxbrv_5alloc4sync3ArcDNtNtB6_7planner7PlannerEL_ENtNtNtB8_8adapters11trace_store14FileTraceStoreE25apply_governance_responses3_0B8_
FN:725,_RNCNvMNtNtCs3oCotP8OZr6_5synod12orchestrator6engineINtB4_12OrchestratorINtNtCs1OjIl8oxbrv_5alloc4sync3ArcDNtNtB6_7planner7PlannerEL_ENtNtNtB8_8adapters11trace_store14FileTraceStoreE25apply_governance_responses4_0B8_
FN:741,_RNCNvMNtNtCs3oCotP8OZr6_5synod12orchestrator6engineINtB4_12OrchestratorINtNtCs1OjIl8oxbrv_5alloc4sync3ArcDNtNtB6_7planner7PlannerEL_ENtNtNtB8_8adapters11trace_store14FileTraceStoreE25apply_governance_responses5_0B8_
FN:742,_RNCNvMNtNtCs3oCotP8OZr6_5synod12orchestrator6engineINtB4_12OrchestratorINtNtCs1OjIl8oxbrv_5alloc4sync3ArcDNtNtB6_7planner7PlannerEL_ENtNtNtB8_8adapters11trace_store14FileTraceStoreE25apply_governance_responses6_0B8_
FN:756,_RNCNvMNtNtCs3oCotP8OZr6_5synod12orchestrator6engineINtB4_12OrchestratorINtNtCs1OjIl8oxbrv_5alloc4sync3ArcDNtNtB6_7planner7PlannerEL_ENtNtNtB8_8adapters11trace_store14FileTraceStoreE25apply_governance_responses7_0B8_
FN:758,_RNCNvMNtNtCs3oCotP8OZr6_5synod12orchestrator6engineINtB4_12OrchestratorINtNtCs1OjIl8oxbrv_5alloc4sync3ArcDNtNtB6_7planner7PlannerEL_ENtNtNtB8_8adapters11trace_store14FileTraceStoreE25apply_governance_responses9_0B8_
FN:682,_RNCNvMNtNtCs3oCotP8OZr6_5synod12orchestrator6engineINtB4_12OrchestratorINtNtCs1OjIl8oxbrv_5alloc4sync3ArcDNtNtB6_7planner7PlannerEL_ENtNtNtB8_8adapters11trace_store14FileTraceStoreE25apply_governance_responses_0B8_
FN:759,_RNCNvMNtNtCs3oCotP8OZr6_5synod12orchestrator6engineINtB4_12OrchestratorINtNtCs1OjIl8oxbrv_5alloc4sync3ArcDNtNtB6_7planner7PlannerEL_ENtNtNtB8_8adapters11trace_store14FileTraceStoreE25apply_governance_responsesa_0B8_
FN:759,_RNCNvMNtNtCs3oCotP8OZr6_5synod12orchestrator6engineINtB4_12OrchestratorINtNtCs1OjIl8oxbrv_5alloc4sync3ArcDNtNtB6_7planner7PlannerEL_ENtNtNtB8_8adapters11trace_store14FileTraceStoreE25apply_governance_responsesb_0B8_
FN:760,_RNCNvMNtNtCs3oCotP8OZr6_5synod12orchestrator6engineINtB4_12OrchestratorINtNtCs1OjIl8oxbrv_5alloc4sync3ArcDNtNtB6_7planner7PlannerEL_ENtNtNtB8_8adapters11trace_store14FileTraceStoreE25apply_governance_responsesc_0B8_
FN:761,_RNCNvMNtNtCs3oCotP8OZr6_5synod12orchestrator6engineINtB4_12OrchestratorINtNtCs1OjIl8oxbrv_5alloc4sync3ArcDNtNtB6_7planner7PlannerEL_ENtNtNtB8_8adapters11trace_store14FileTraceStoreE25apply_governance_responsesd_0B8_
FN:777,_RNCNvMNtNtCs3oCotP8OZr6_5synod12orchestrator6engineINtB4_12OrchestratorINtNtCs1OjIl8oxbrv_5alloc4sync3ArcDNtNtB6_7planner7PlannerEL_ENtNtNtB8_8adapters11trace_store14FileTraceStoreE25apply_governance_responsese_0B8_
FN:778,_RNCNvMNtNtCs3oCotP8OZr6_5synod12orchestrator6engineINtB4_12OrchestratorINtNtCs1OjIl8oxbrv_5alloc4sync3ArcDNtNtB6_7planner7PlannerEL_ENtNtNtB8_8adapters11trace_store14FileTraceStoreE25apply_governance_responsesf_0B8_
FN:803,_RNCNvMNtNtCs3oCotP8OZr6_5synod12orchestrator6engineINtB4_12OrchestratorINtNtCs1OjIl8oxbrv_5alloc4sync3ArcDNtNtB6_7planner7PlannerEL_ENtNtNtB8_8adapters11trace_store14FileTraceStoreE25apply_governance_responsesg_0B8_
FN:804,_RNCNvMNtNtCs3oCotP8OZr6_5synod12orchestrator6engineINtB4_12OrchestratorINtNtCs1OjIl8oxbrv_5alloc4sync3ArcDNtNtB6_7planner7PlannerEL_ENtNtNtB8_8adapters11trace_store14FileTraceStoreE25apply_governance_responsesh_0B8_
FN:805,_RNCNvMNtNtCs3oCotP8OZr6_5synod12orchestrator6engineINtB4_12OrchestratorINtNtCs1OjIl8oxbrv_5alloc4sync3ArcDNtNtB6_7planner7PlannerEL_ENtNtNtB8_8adapters11trace_store14FileTraceStoreE25apply_governance_responsesi_0B8_
FN:975,_RNCNvMNtNtCs3oCotP8OZr6_5synod12orchestrator6engineINtB4_12OrchestratorNtNtB4_5tests11TestPlannerNtB19_14TestTraceStoreE16execute_decision0B8_
FN:356,_RNCNvMNtNtCs3oCotP8OZr6_5synod12orchestrator6engineINtB4_12OrchestratorNtNtB4_5tests11TestPlannerNtB19_14TestTraceStoreE23ensure_stage_governance0B8_
FN:387,_RNCNvMNtNtCs3oCotP8OZr6_5synod12orchestrator6engineINtB4_12OrchestratorNtNtB4_5tests11TestPlannerNtB19_14TestTraceStoreE23ensure_stage_governances0_0B8_
FN:392,_RNCNvMNtNtCs3oCotP8OZr6_5synod12orchestrator6engineINtB4_12OrchestratorNtNtB4_5tests11TestPlannerNtB19_14TestTraceStoreE23ensure_stage_governances1_0B8_
FN:399,_RNCNvMNtNtCs3oCotP8OZr6_5synod12orchestrator6engineINtB4_12OrchestratorNtNtB4_5tests11TestPlannerNtB19_14TestTraceStoreE23ensure_stage_governances2_0B8_
FN:417,_RNCNvMNtNtCs3oCotP8OZr6_5synod12orchestrator6engineINtB4_12OrchestratorNtNtB4_5tests11TestPlannerNtB19_14TestTraceStoreE23ensure_stage_governances5_0B8_
FN:510,_RNCNvMNtNtCs3oCotP8OZr6_5synod12orchestrator6engineINtB4_12OrchestratorNtNtB4_5tests11TestPlannerNtB19_14TestTraceStoreE23ensure_stage_governances7_0B8_
FN:511,_RNCNvMNtNtCs3oCotP8OZr6_5synod12orchestrator6engineINtB4_12OrchestratorNtNtB4_5tests11TestPlannerNtB19_14TestTraceStoreE23ensure_stage_governances8_0B8_
FN:512,_RNCNvMNtNtCs3oCotP8OZr6_5synod12orchestrator6engineINtB4_12OrchestratorNtNtB4_5tests11TestPlannerNtB19_14TestTraceStoreE23ensure_stage_governances9_0B8_
FN:378,_RNCNvMNtNtCs3oCotP8OZr6_5synod12orchestrator6engineINtB4_12OrchestratorNtNtB4_5tests11TestPlannerNtB19_14TestTraceStoreE23ensure_stage_governances_0B8_
FN:514,_RNCNvMNtNtCs3oCotP8OZr6_5synod12orchestrator6engineINtB4_12OrchestratorNtNtB4_5tests11TestPlannerNtB19_14TestTraceStoreE23ensure_stage_governancesa_0B8_
FN:536,_RNCNvMNtNtCs3oCotP8OZr6_5synod12orchestrator6engineINtB4_12OrchestratorNtNtB4_5tests11TestPlannerNtB19_14TestTraceStoreE23ensure_stage_governancesb_0B8_
FN:583,_RNCNvMNtNtCs3oCotP8OZr6_5synod12orchestrator6engineINtB4_12OrchestratorNtNtB4_5tests11TestPlannerNtB19_14TestTraceStoreE23ensure_stage_governancesd_0B8_
FN:601,_RNCNvMNtNtCs3oCotP8OZr6_5synod12orchestrator6engineINtB4_12OrchestratorNtNtB4_5tests11TestPlannerNtB19_14TestTraceStoreE23ensure_stage_governancese_0B8_
FN:530,_RNCNvMNtNtCs3oCotP8OZr6_5synod12orchestrator6engineINtB4_12OrchestratorNtNtB4_5tests11TestPlannerNtB19_14TestTraceStoreE23ensure_stage_governancesg_0B8_
FN:531,_RNCNvMNtNtCs3oCotP8OZr6_5synod12orchestrator6engineINtB4_12OrchestratorNtNtB4_5tests11TestPlannerNtB19_14TestTraceStoreE23ensure_stage_governancesh_0B8_
FN:595,_RNCNvMNtNtCs3oCotP8OZr6_5synod12orchestrator6engineINtB4_12OrchestratorNtNtB4_5tests11TestPlannerNtB19_14TestTraceStoreE23ensure_stage_governancesi_0B8_
FN:596,_RNCNvMNtNtCs3oCotP8OZr6_5synod12orchestrator6engineINtB4_12OrchestratorNtNtB4_5tests11TestPlannerNtB19_14TestTraceStoreE23ensure_stage_governancesj_0B8_
FN:852,_RNCNvMNtNtCs3oCotP8OZr6_5synod12orchestrator6engineINtB4_12OrchestratorNtNtB4_5tests11TestPlannerNtB19_14TestTraceStoreE23handle_governance_block0B8_
FN:856,_RNCNvMNtNtCs3oCotP8OZr6_5synod12orchestrator6engineINtB4_12OrchestratorNtNtB4_5tests11TestPlannerNtB19_14TestTraceStoreE23handle_governance_blocks_0B8_
FN:673,_RNCNvMNtNtCs3oCotP8OZr6_5synod12orchestrator6engineINtB4_12OrchestratorNtNtB4_5tests11TestPlannerNtB19_14TestTraceStoreE25apply_governance_response0B8_
FN:683,_RNCNvMNtNtCs3oCotP8OZr6_5synod12orchestrator6engineINtB4_12OrchestratorNtNtB4_5tests11TestPlannerNtB19_14TestTraceStoreE25apply_governance_responses0_0B8_
FN:703,_RNCNvMNtNtCs3oCotP8OZr6_5synod12orchestrator6engineINtB4_12OrchestratorNtNtB4_5tests11TestPlannerNtB19_14TestTraceStoreE25apply_governance_responses1_0B8_
FN:715,_RNCNvMNtNtCs3oCotP8OZr6_5synod12orchestrator6engineINtB4_12OrchestratorNtNtB4_5tests11TestPlannerNtB19_14TestTraceStoreE25apply_governance_responses2_0B8_
FN:716,_RNCNvMNtNtCs3oCotP8OZr6_5synod12orchestrator6engineINtB4_12OrchestratorNtNtB4_5tests11TestPlannerNtB19_14TestTraceStoreE25apply_governance_responses3_0B8_
FN:725,_RNCNvMNtNtCs3oCotP8OZr6_5synod12orchestrator6engineINtB4_12OrchestratorNtNtB4_5tests11TestPlannerNtB19_14TestTraceStoreE25apply_governance_responses4_0B8_
FN:741,_RNCNvMNtNtCs3oCotP8OZr6_5synod12orchestrator6engineINtB4_12OrchestratorNtNtB4_5tests11TestPlannerNtB19_14TestTraceStoreE25apply_governance_responses5_0B8_
FN:742,_RNCNvMNtNtCs3oCotP8OZr6_5synod12orchestrator6engineINtB4_12OrchestratorNtNtB4_5tests11TestPlannerNtB19_14TestTraceStoreE25apply_governance_responses6_0B8_
FN:756,_RNCNvMNtNtCs3oCotP8OZr6_5synod12orchestrator6engineINtB4_12OrchestratorNtNtB4_5tests11TestPlannerNtB19_14TestTraceStoreE25apply_governance_responses7_0B8_
FN:758,_RNCNvMNtNtCs3oCotP8OZr6_5synod12orchestrator6engineINtB4_12OrchestratorNtNtB4_5tests11TestPlannerNtB19_14TestTraceStoreE25apply_governance_responses9_0B8_
FN:682,_RNCNvMNtNtCs3oCotP8OZr6_5synod12orchestrator6engineINtB4_12OrchestratorNtNtB4_5tests11TestPlannerNtB19_14TestTraceStoreE25apply_governance_responses_0B8_
FN:759,_RNCNvMNtNtCs3oCotP8OZr6_5synod12orchestrator6engineINtB4_12OrchestratorNtNtB4_5tests11TestPlannerNtB19_14TestTraceStoreE25apply_governance_responsesa_0B8_
FN:759,_RNCNvMNtNtCs3oCotP8OZr6_5synod12orchestrator6engineINtB4_12OrchestratorNtNtB4_5tests11TestPlannerNtB19_14TestTraceStoreE25apply_governance_responsesb_0B8_
FN:760,_RNCNvMNtNtCs3oCotP8OZr6_5synod12orchestrator6engineINtB4_12OrchestratorNtNtB4_5tests11TestPlannerNtB19_14TestTraceStoreE25apply_governance_responsesc_0B8_
FN:761,_RNCNvMNtNtCs3oCotP8OZr6_5synod12orchestrator6engineINtB4_12OrchestratorNtNtB4_5tests11TestPlannerNtB19_14TestTraceStoreE25apply_governance_responsesd_0B8_
FN:777,_RNCNvMNtNtCs3oCotP8OZr6_5synod12orchestrator6engineINtB4_12OrchestratorNtNtB4_5tests11TestPlannerNtB19_14TestTraceStoreE25apply_governance_responsese_0B8_
FN:778,_RNCNvMNtNtCs3oCotP8OZr6_5synod12orchestrator6engineINtB4_12OrchestratorNtNtB4_5tests11TestPlannerNtB19_14TestTraceStoreE25apply_governance_responsesf_0B8_
FN:803,_RNCNvMNtNtCs3oCotP8OZr6_5synod12orchestrator6engineINtB4_12OrchestratorNtNtB4_5tests11TestPlannerNtB19_14TestTraceStoreE25apply_governance_responsesg_0B8_
FN:804,_RNCNvMNtNtCs3oCotP8OZr6_5synod12orchestrator6engineINtB4_12OrchestratorNtNtB4_5tests11TestPlannerNtB19_14TestTraceStoreE25apply_governance_responsesh_0B8_
FN:805,_RNCNvMNtNtCs3oCotP8OZr6_5synod12orchestrator6engineINtB4_12OrchestratorNtNtB4_5tests11TestPlannerNtB19_14TestTraceStoreE25apply_governance_responsesi_0B8_
FN:888,_RNvMNtNtCs3oCotP8OZr6_5synod12orchestrator6engineINtB2_12OrchestratorINtNtCs1OjIl8oxbrv_5alloc4sync3ArcDNtNtB4_7planner7PlannerEL_ENtNtNtB6_8adapters11trace_store14FileTraceStoreE12execute_stepB6_
FN:924,_RNvMNtNtCs3oCotP8OZr6_5synod12orchestrator6engineINtB2_12OrchestratorINtNtCs1OjIl8oxbrv_5alloc4sync3ArcDNtNtB4_7planner7PlannerEL_ENtNtNtB6_8adapters11trace_store14FileTraceStoreE12execute_toolB6_
FN:896,_RNvMNtNtCs3oCotP8OZr6_5synod12orchestrator6engineINtB2_12OrchestratorINtNtCs1OjIl8oxbrv_5alloc4sync3ArcDNtNtB4_7planner7PlannerEL_ENtNtNtB6_8adapters11trace_store14FileTraceStoreE13execute_agentB6_
FN:998,_RNvMNtNtCs3oCotP8OZr6_5synod12orchestrator6engineINtB2_12OrchestratorINtNtCs1OjIl8oxbrv_5alloc4sync3ArcDNtNtB4_7planner7PlannerEL_ENtNtNtB6_8adapters11trace_store14FileTraceStoreE13finalize_taskB6_
FN:1019,_RNvMNtNtCs3oCotP8OZr6_5synod12orchestrator6engineINtB2_12OrchestratorINtNtCs1OjIl8oxbrv_5alloc4sync3ArcDNtNtB4_7planner7PlannerEL_ENtNtNtB6_8adapters11trace_store14FileTraceStoreE13persist_traceB6_
FN:56,_RNvMNtNtCs3oCotP8OZr6_5synod12orchestrator6engineINtB2_12OrchestratorINtNtCs1OjIl8oxbrv_5alloc4sync3ArcDNtNtB4_7planner7PlannerEL_ENtNtNtB6_8adapters11trace_store14FileTraceStoreE15with_governanceB6_
FN:949,_RNvMNtNtCs3oCotP8OZr6_5synod12orchestrator6engineINtB2_12OrchestratorINtNtCs1OjIl8oxbrv_5alloc4sync3ArcDNtNtB4_7planner7PlannerEL_ENtNtNtB6_8adapters11trace_store14FileTraceStoreE16execute_decisionB6_
FN:984,_RNvMNtNtCs3oCotP8OZr6_5synod12orchestrator6engineINtB2_12OrchestratorINtNtCs1OjIl8oxbrv_5alloc4sync3ArcDNtNtB4_7planner7PlannerEL_ENtNtNtB6_8adapters11trace_store14FileTraceStoreE16normalize_resultB6_
FN:347,_RNvMNtNtCs3oCotP8OZr6_5synod12orchestrator6engineINtB2_12OrchestratorINtNtCs1OjIl8oxbrv_5alloc4sync3ArcDNtNtB4_7planner7PlannerEL_ENtNtNtB6_8adapters11trace_store14FileTraceStoreE23ensure_stage_governanceB6_
FN:830,_RNvMNtNtCs3oCotP8OZr6_5synod12orchestrator6engineINtB2_12OrchestratorINtNtCs1OjIl8oxbrv_5alloc4sync3ArcDNtNtB4_7planner7PlannerEL_ENtNtNtB6_8adapters11trace_store14FileTraceStoreE23handle_governance_blockB6_
FN:660,_RNvMNtNtCs3oCotP8OZr6_5synod12orchestrator6engineINtB2_12OrchestratorINtNtCs1OjIl8oxbrv_5alloc4sync3ArcDNtNtB4_7planner7PlannerEL_ENtNtNtB6_8adapters11trace_store14FileTraceStoreE25apply_governance_responseB6_
FN:635,_RNvMNtNtCs3oCotP8OZr6_5synod12orchestrator6engineINtB2_12OrchestratorINtNtCs1OjIl8oxbrv_5alloc4sync3ArcDNtNtB4_7planner7PlannerEL_ENtNtNtB6_8adapters11trace_store14FileTraceStoreE32record_governance_decision_eventB6_
FN:52,_RNvMNtNtCs3oCotP8OZr6_5synod12orchestrator6engineINtB2_12OrchestratorINtNtCs1OjIl8oxbrv_5alloc4sync3ArcDNtNtB4_7planner7PlannerEL_ENtNtNtB6_8adapters11trace_store14FileTraceStoreE3newB6_
FN:66,_RNvMNtNtCs3oCotP8OZr6_5synod12orchestrator6engineINtB2_12OrchestratorINtNtCs1OjIl8oxbrv_5alloc4sync3ArcDNtNtB4_7planner7PlannerEL_ENtNtNtB6_8adapters11trace_store14FileTraceStoreE3runB6_
FN:888,_RNvMNtNtCs3oCotP8OZr6_5synod12orchestrator6engineINtB2_12OrchestratorNtNtB2_5tests11TestPlannerNtB17_14TestTraceStoreE12execute_stepB6_
FN:924,_RNvMNtNtCs3oCotP8OZr6_5synod12orchestrator6engineINtB2_12OrchestratorNtNtB2_5tests11TestPlannerNtB17_14TestTraceStoreE12execute_toolB6_
FN:896,_RNvMNtNtCs3oCotP8OZr6_5synod12orchestrator6engineINtB2_12OrchestratorNtNtB2_5tests11TestPlannerNtB17_14TestTraceStoreE13execute_agentB6_
FN:998,_RNvMNtNtCs3oCotP8OZr6_5synod12orchestrator6engineINtB2_12OrchestratorNtNtB2_5tests11TestPlannerNtB17_14TestTraceStoreE13finalize_taskB6_
FN:1019,_RNvMNtNtCs3oCotP8OZr6_5synod12orchestrator6engineINtB2_12OrchestratorNtNtB2_5tests11TestPlannerNtB17_14TestTraceStoreE13persist_traceB6_
FN:56,_RNvMNtNtCs3oCotP8OZr6_5synod12orchestrator6engineINtB2_12OrchestratorNtNtB2_5tests11TestPlannerNtB17_14TestTraceStoreE15with_governanceB6_
FN:949,_RNvMNtNtCs3oCotP8OZr6_5synod12orchestrator6engineINtB2_12OrchestratorNtNtB2_5tests11TestPlannerNtB17_14TestTraceStoreE16execute_decisionB6_
FN:984,_RNvMNtNtCs3oCotP8OZr6_5synod12orchestrator6engineINtB2_12OrchestratorNtNtB2_5tests11TestPlannerNtB17_14TestTraceStoreE16normalize_resultB6_
FN:347,_RNvMNtNtCs3oCotP8OZr6_5synod12orchestrator6engineINtB2_12OrchestratorNtNtB2_5tests11TestPlannerNtB17_14TestTraceStoreE23ensure_stage_governanceB6_
FN:830,_RNvMNtNtCs3oCotP8OZr6_5synod12orchestrator6engineINtB2_12OrchestratorNtNtB2_5tests11TestPlannerNtB17_14TestTraceStoreE23handle_governance_blockB6_
FN:660,_RNvMNtNtCs3oCotP8OZr6_5synod12orchestrator6engineINtB2_12OrchestratorNtNtB2_5tests11TestPlannerNtB17_14TestTraceStoreE25apply_governance_responseB6_
FN:635,_RNvMNtNtCs3oCotP8OZr6_5synod12orchestrator6engineINtB2_12OrchestratorNtNtB2_5tests11TestPlannerNtB17_14TestTraceStoreE32record_governance_decision_eventB6_
FN:52,_RNvMNtNtCs3oCotP8OZr6_5synod12orchestrator6engineINtB2_12OrchestratorNtNtB2_5tests11TestPlannerNtB17_14TestTraceStoreE3newB6_
FN:66,_RNvMNtNtCs3oCotP8OZr6_5synod12orchestrator6engineINtB2_12OrchestratorNtNtB2_5tests11TestPlannerNtB17_14TestTraceStoreE3runB6_
FNDA:0,_RNvXs1_NtNtNtCs3oCotP8OZr6_5synod12orchestrator6engine5testsNtB5_14TestTraceStoreNtNtNtBb_8adapters11trace_store10TraceStore4load
FNDA:0,_RNvXs1_NtNtNtCs3oCotP8OZr6_5synod12orchestrator6engine5testsNtB5_14TestTraceStoreNtNtNtBb_8adapters11trace_store10TraceStore6latest
FNDA:2,_RNvMNtNtNtCs3oCotP8OZr6_5synod12orchestrator6engine5testsNtB2_11TestPlanner18with_replan_result
FNDA:1,_RNvMNtNtNtCs3oCotP8OZr6_5synod12orchestrator6engine5testsNtB2_11TestPlanner20failing_initial_plan
FNDA:14,_RNvMNtNtNtCs3oCotP8OZr6_5synod12orchestrator6engine5testsNtB2_11TestPlanner9from_plan
FNDA:16,_RNvMs0_NtNtNtCs3oCotP8OZr6_5synod12orchestrator6engine5testsNtB5_14TestTraceStore10succeeding
FNDA:2,_RNvMs0_NtNtNtCs3oCotP8OZr6_5synod12orchestrator6engine5testsNtB5_14TestTraceStore7fail_on
FNDA:2,_RNvNtNtNtCs3oCotP8OZr6_5synod12orchestrator6engine5tests13build_context
FNDA:11,_RNvNtNtNtCs3oCotP8OZr6_5synod12orchestrator6engine5tests13build_request
FNDA:14,_RNvNtNtNtCs3oCotP8OZr6_5synod12orchestrator6engine5tests18build_orchestrator
FNDA:10,_RNvNtNtNtCs3oCotP8OZr6_5synod12orchestrator6engine5tests19build_governed_plan
FNDA:3,_RNvNtNtNtCs3oCotP8OZr6_5synod12orchestrator6engine5tests19build_governed_task
FNDA:8,_RNvNtNtNtCs3oCotP8OZr6_5synod12orchestrator6engine5tests24build_governance_profile
FNDA:6,_RNvNtNtNtCs3oCotP8OZr6_5synod12orchestrator6engine5tests27build_governed_orchestrator
FNDA:1,_RNvNtNtNtCs3oCotP8OZr6_5synod12orchestrator6engine5testss_49run_stops_with_step_limit_exceeded_after_retrying
FNDA:1,_RNvNtNtNtCs3oCotP8OZr6_5synod12orchestrator6engine5testss_53handle_governance_block_continues_for_optional_stages
FNDA:1,_RNvNtNtNtCs3oCotP8OZr6_5synod12orchestrator6engine5testss_54run_marks_task_not_credible_when_planner_cannot_replan
FNDA:1,_RNvNtNtNtCs3oCotP8OZr6_5synod12orchestrator6engine5testss_54run_returns_planning_errors_from_initial_plan_creation
FNDA:1,_RNvNtNtNtCs3oCotP8OZr6_5synod12orchestrator6engine5testss_55run_stops_when_current_plan_has_no_executable_next_step
FNDA:1,_RNvNtNtNtCs3oCotP8OZr6_5synod12orchestrator6engine5testss_56execute_agent_and_tool_cover_missing_and_unknown_targets
FNDA:1,_RNvNtNtNtCs3oCotP8OZr6_5synod12orchestrator6engine5testss_57run_blocks_required_canon_governance_for_flow_aware_steps
FNDA:1,_RNvNtNtNtCs3oCotP8OZr6_5synod12orchestrator6engine5testss_59execute_step_dispatches_registered_agent_and_tool_endpoints
FNDA:1,_RNvNtNtNtCs3oCotP8OZr6_5synod12orchestrator6engine5testss_59run_executes_optional_local_governance_for_flow_aware_steps
FNDA:1,_RNvNtNtNtCs3oCotP8OZr6_5synod12orchestrator6engine5testss_62record_governance_decision_event_records_full_decision_payload
FNDA:1,_RNvNtNtNtCs3oCotP8OZr6_5synod12orchestrator6engine5testss_63apply_governance_response_terminalizes_when_approval_is_pending
FNDA:1,_RNvNtNtNtCs3oCotP8OZr6_5synod12orchestrator6engine5testss_63execute_decision_covers_success_retry_replan_and_terminal_paths
FNDA:1,_RNvNtNtNtCs3oCotP8OZr6_5synod12orchestrator6engine5testss_64persist_trace_surfaces_store_failures_on_first_and_second_writes
FNDA:1,_RNvNtNtNtCs3oCotP8OZr6_5synod12orchestrator6engine5testss_64run_normalizes_invalid_agent_results_into_unrecoverable_failures
FNDA:1,_RNvNtNtNtCs3oCotP8OZr6_5synod12orchestrator6engine5testss_65normalize_result_converts_invalid_payloads_into_terminal_failures
FNDA:1,_RNvNtNtNtCs3oCotP8OZr6_5synod12orchestrator6engine5testss_66run_marks_task_not_credible_when_replacement_plan_has_no_next_step
FNDA:1,_RNvNtNtNtCs3oCotP8OZr6_5synod12orchestrator6engine5testss_73apply_governance_response_continues_after_optional_local_packet_rejection
FNDA:51,_RNvXs1_NtNtNtCs3oCotP8OZr6_5synod12orchestrator6engine5testsNtB5_14TestTraceStoreNtNtNtBb_8adapters11trace_store10TraceStore7persist
FNDA:8,_RNvXs_NtNtNtCs3oCotP8OZr6_5synod12orchestrator6engine5testsNtB4_11TestPlannerNtNtB8_7planner7Planner19create_initial_plan
FNDA:2,_RNvXs_NtNtNtCs3oCotP8OZr6_5synod12orchestrator6engine5testsNtB4_11TestPlannerNtNtB8_7planner7Planner6replan
FNDA:1,_RNCNvNtNtNtCs3oCotP8OZr6_5synod12orchestrator6engine5testss_53handle_governance_block_continues_for_optional_stages0B9_
FNDA:1,_RNCNvNtNtNtCs3oCotP8OZr6_5synod12orchestrator6engine5testss_59execute_step_dispatches_registered_agent_and_tool_endpoints0B9_
FNDA:1,_RNCNvNtNtNtCs3oCotP8OZr6_5synod12orchestrator6engine5testss_59execute_step_dispatches_registered_agent_and_tool_endpointss_0B9_
FNDA:1,_RNCNvNtNtNtCs3oCotP8OZr6_5synod12orchestrator6engine5testss_63apply_governance_response_terminalizes_when_approval_is_pending0B9_
FNDA:1,_RNCNvNtNtNtCs3oCotP8OZr6_5synod12orchestrator6engine5testss_64run_normalizes_invalid_agent_results_into_unrecoverable_failures0B9_
FNDA:1,_RNCNvNtNtNtCs3oCotP8OZr6_5synod12orchestrator6engine5testss_73apply_governance_response_continues_after_optional_local_packet_rejection0B9_
FNDA:2,_RNCNvNtNtNtCs3oCotP8OZr6_5synod12orchestrator6engine5testss_73apply_governance_response_continues_after_optional_local_packet_rejections_0B9_
FNDA:0,_RNCNCNvMNtNtCs3oCotP8OZr6_5synod12orchestrator6engineINtB6_12OrchestratorINtNtCs1OjIl8oxbrv_5alloc4sync3ArcDNtNtB8_7planner7PlannerEL_ENtNtNtBa_8adapters11trace_store14FileTraceStoreE25apply_governance_responses0_00Ba_
FNDA:0,_RNCNCNvMNtNtCs3oCotP8OZr6_5synod12orchestrator6engineINtB6_12OrchestratorINtNtCs1OjIl8oxbrv_5alloc4sync3ArcDNtNtB8_7planner7PlannerEL_ENtNtNtBa_8adapters11trace_store14FileTraceStoreE25apply_governance_responses0_0s_0Ba_
FNDA:0,_RNCNCNvMNtNtCs3oCotP8OZr6_5synod12orchestrator6engineINtB6_12OrchestratorNtNtB6_5tests11TestPlannerNtB1b_14TestTraceStoreE25apply_governance_responses0_00Ba_
FNDA:0,_RNCNCNvMNtNtCs3oCotP8OZr6_5synod12orchestrator6engineINtB6_12OrchestratorNtNtB6_5tests11TestPlannerNtB1b_14TestTraceStoreE25apply_governance_responses0_0s_0Ba_
FNDA:0,_RNCNvMNtNtCs3oCotP8OZr6_5synod12orchestrator6engineINtB4_12OrchestratorINtNtCs1OjIl8oxbrv_5alloc4sync3ArcDNtNtB6_7planner7PlannerEL_ENtNtNtB8_8adapters11trace_store14FileTraceStoreE16execute_decision0B8_
FNDA:0,_RNCNvMNtNtCs3oCotP8OZr6_5synod12orchestrator6engineINtB4_12OrchestratorINtNtCs1OjIl8oxbrv_5alloc4sync3ArcDNtNtB6_7planner7PlannerEL_ENtNtNtB8_8adapters11trace_store14FileTraceStoreE23ensure_stage_governance0B8_
FNDA:0,_RNCNvMNtNtCs3oCotP8OZr6_5synod12orchestrator6engineINtB4_12OrchestratorINtNtCs1OjIl8oxbrv_5alloc4sync3ArcDNtNtB6_7planner7PlannerEL_ENtNtNtB8_8adapters11trace_store14FileTraceStoreE23ensure_stage_governances0_0B8_
FNDA:0,_RNCNvMNtNtCs3oCotP8OZr6_5synod12orchestrator6engineINtB4_12OrchestratorINtNtCs1OjIl8oxbrv_5alloc4sync3ArcDNtNtB6_7planner7PlannerEL_ENtNtNtB8_8adapters11trace_store14FileTraceStoreE23ensure_stage_governances1_0B8_
FNDA:0,_RNCNvMNtNtCs3oCotP8OZr6_5synod12orchestrator6engineINtB4_12OrchestratorINtNtCs1OjIl8oxbrv_5alloc4sync3ArcDNtNtB6_7planner7PlannerEL_ENtNtNtB8_8adapters11trace_store14FileTraceStoreE23ensure_stage_governances2_0B8_
FNDA:0,_RNCNvMNtNtCs3oCotP8OZr6_5synod12orchestrator6engineINtB4_12OrchestratorINtNtCs1OjIl8oxbrv_5alloc4sync3ArcDNtNtB6_7planner7PlannerEL_ENtNtNtB8_8adapters11trace_store14FileTraceStoreE23ensure_stage_governances5_0B8_
FNDA:0,_RNCNvMNtNtCs3oCotP8OZr6_5synod12orchestrator6engineINtB4_12OrchestratorINtNtCs1OjIl8oxbrv_5alloc4sync3ArcDNtNtB6_7planner7PlannerEL_ENtNtNtB8_8adapters11trace_store14FileTraceStoreE23ensure_stage_governances7_0B8_
FNDA:0,_RNCNvMNtNtCs3oCotP8OZr6_5synod12orchestrator6engineINtB4_12OrchestratorINtNtCs1OjIl8oxbrv_5alloc4sync3ArcDNtNtB6_7planner7PlannerEL_ENtNtNtB8_8adapters11trace_store14FileTraceStoreE23ensure_stage_governances8_0B8_
FNDA:0,_RNCNvMNtNtCs3oCotP8OZr6_5synod12orchestrator6engineINtB4_12OrchestratorINtNtCs1OjIl8oxbrv_5alloc4sync3ArcDNtNtB6_7planner7PlannerEL_ENtNtNtB8_8adapters11trace_store14FileTraceStoreE23ensure_stage_governances9_0B8_
FNDA:0,_RNCNvMNtNtCs3oCotP8OZr6_5synod12orchestrator6engineINtB4_12OrchestratorINtNtCs1OjIl8oxbrv_5alloc4sync3ArcDNtNtB6_7planner7PlannerEL_ENtNtNtB8_8adapters11trace_store14FileTraceStoreE23ensure_stage_governances_0B8_
FNDA:0,_RNCNvMNtNtCs3oCotP8OZr6_5synod12orchestrator6engineINtB4_12OrchestratorINtNtCs1OjIl8oxbrv_5alloc4sync3ArcDNtNtB6_7planner7PlannerEL_ENtNtNtB8_8adapters11trace_store14FileTraceStoreE23ensure_stage_governancesa_0B8_
FNDA:0,_RNCNvMNtNtCs3oCotP8OZr6_5synod12orchestrator6engineINtB4_12OrchestratorINtNtCs1OjIl8oxbrv_5alloc4sync3ArcDNtNtB6_7planner7PlannerEL_ENtNtNtB8_8adapters11trace_store14FileTraceStoreE23ensure_stage_governancesb_0B8_
FNDA:0,_RNCNvMNtNtCs3oCotP8OZr6_5synod12orchestrator6engineINtB4_12OrchestratorINtNtCs1OjIl8oxbrv_5alloc4sync3ArcDNtNtB6_7planner7PlannerEL_ENtNtNtB8_8adapters11trace_store14FileTraceStoreE23ensure_stage_governancesd_0B8_
FNDA:0,_RNCNvMNtNtCs3oCotP8OZr6_5synod12orchestrator6engineINtB4_12OrchestratorINtNtCs1OjIl8oxbrv_5alloc4sync3ArcDNtNtB6_7planner7PlannerEL_ENtNtNtB8_8adapters11trace_store14FileTraceStoreE23ensure_stage_governancese_0B8_
FNDA:0,_RNCNvMNtNtCs3oCotP8OZr6_5synod12orchestrator6engineINtB4_12OrchestratorINtNtCs1OjIl8oxbrv_5alloc4sync3ArcDNtNtB6_7planner7PlannerEL_ENtNtNtB8_8adapters11trace_store14FileTraceStoreE23ensure_stage_governancesg_0B8_
FNDA:0,_RNCNvMNtNtCs3oCotP8OZr6_5synod12orchestrator6engineINtB4_12OrchestratorINtNtCs1OjIl8oxbrv_5alloc4sync3ArcDNtNtB6_7planner7PlannerEL_ENtNtNtB8_8adapters11trace_store14FileTraceStoreE23ensure_stage_governancesh_0B8_
FNDA:0,_RNCNvMNtNtCs3oCotP8OZr6_5synod12orchestrator6engineINtB4_12OrchestratorINtNtCs1OjIl8oxbrv_5alloc4sync3ArcDNtNtB6_7planner7PlannerEL_ENtNtNtB8_8adapters11trace_store14FileTraceStoreE23ensure_stage_governancesi_0B8_
FNDA:0,_RNCNvMNtNtCs3oCotP8OZr6_5synod12orchestrator6engineINtB4_12OrchestratorINtNtCs1OjIl8oxbrv_5alloc4sync3ArcDNtNtB6_7planner7PlannerEL_ENtNtNtB8_8adapters11trace_store14FileTraceStoreE23ensure_stage_governancesj_0B8_
FNDA:0,_RNCNvMNtNtCs3oCotP8OZr6_5synod12orchestrator6engineINtB4_12OrchestratorINtNtCs1OjIl8oxbrv_5alloc4sync3ArcDNtNtB6_7planner7PlannerEL_ENtNtNtB8_8adapters11trace_store14FileTraceStoreE23handle_governance_block0B8_
FNDA:0,_RNCNvMNtNtCs3oCotP8OZr6_5synod12orchestrator6engineINtB4_12OrchestratorINtNtCs1OjIl8oxbrv_5alloc4sync3ArcDNtNtB6_7planner7PlannerEL_ENtNtNtB8_8adapters11trace_store14FileTraceStoreE23handle_governance_blocks_0B8_
FNDA:0,_RNCNvMNtNtCs3oCotP8OZr6_5synod12orchestrator6engineINtB4_12OrchestratorINtNtCs1OjIl8oxbrv_5alloc4sync3ArcDNtNtB6_7planner7PlannerEL_ENtNtNtB8_8adapters11trace_store14FileTraceStoreE25apply_governance_response0B8_
FNDA:0,_RNCNvMNtNtCs3oCotP8OZr6_5synod12orchestrator6engineINtB4_12OrchestratorINtNtCs1OjIl8oxbrv_5alloc4sync3ArcDNtNtB6_7planner7PlannerEL_ENtNtNtB8_8adapters11trace_store14FileTraceStoreE25apply_governance_responses0_0B8_
FNDA:0,_RNCNvMNtNtCs3oCotP8OZr6_5synod12orchestrator6engineINtB4_12OrchestratorINtNtCs1OjIl8oxbrv_5alloc4sync3ArcDNtNtB6_7planner7PlannerEL_ENtNtNtB8_8adapters11trace_store14FileTraceStoreE25apply_governance_responses1_0B8_
FNDA:0,_RNCNvMNtNtCs3oCotP8OZr6_5synod12orchestrator6engineINtB4_12OrchestratorINtNtCs1OjIl8oxbrv_5alloc4sync3ArcDNtNtB6_7planner7PlannerEL_ENtNtNtB8_8adapters11trace_store14FileTraceStoreE25apply_governance_responses2_0B8_
FNDA:0,_RNCNvMNtNtCs3oCotP8OZr6_5synod12orchestrator6engineINtB4_12OrchestratorINtNtCs1OjIl8oxbrv_5alloc4sync3ArcDNtNtB6_7planner7PlannerEL_ENtNtNtB8_8adapters11trace_store14FileTraceStoreE25apply_governance_responses3_0B8_
FNDA:0,_RNCNvMNtNtCs3oCotP8OZr6_5synod12orchestrator6engineINtB4_12OrchestratorINtNtCs1OjIl8oxbrv_5alloc4sync3ArcDNtNtB6_7planner7PlannerEL_ENtNtNtB8_8adapters11trace_store14FileTraceStoreE25apply_governance_responses4_0B8_
FNDA:0,_RNCNvMNtNtCs3oCotP8OZr6_5synod12orchestrator6engineINtB4_12OrchestratorINtNtCs1OjIl8oxbrv_5alloc4sync3ArcDNtNtB6_7planner7PlannerEL_ENtNtNtB8_8adapters11trace_store14FileTraceStoreE25apply_governance_responses5_0B8_
FNDA:0,_RNCNvMNtNtCs3oCotP8OZr6_5synod12orchestrator6engineINtB4_12OrchestratorINtNtCs1OjIl8oxbrv_5alloc4sync3ArcDNtNtB6_7planner7PlannerEL_ENtNtNtB8_8adapters11trace_store14FileTraceStoreE25apply_governance_responses6_0B8_
FNDA:0,_RNCNvMNtNtCs3oCotP8OZr6_5synod12orchestrator6engineINtB4_12OrchestratorINtNtCs1OjIl8oxbrv_5alloc4sync3ArcDNtNtB6_7planner7PlannerEL_ENtNtNtB8_8adapters11trace_store14FileTraceStoreE25apply_governance_responses7_0B8_
FNDA:0,_RNCNvMNtNtCs3oCotP8OZr6_5synod12orchestrator6engineINtB4_12OrchestratorINtNtCs1OjIl8oxbrv_5alloc4sync3ArcDNtNtB6_7planner7PlannerEL_ENtNtNtB8_8adapters11trace_store14FileTraceStoreE25apply_governance_responses9_0B8_
FNDA:0,_RNCNvMNtNtCs3oCotP8OZr6_5synod12orchestrator6engineINtB4_12OrchestratorINtNtCs1OjIl8oxbrv_5alloc4sync3ArcDNtNtB6_7planner7PlannerEL_ENtNtNtB8_8adapters11trace_store14FileTraceStoreE25apply_governance_responses_0B8_
FNDA:0,_RNCNvMNtNtCs3oCotP8OZr6_5synod12orchestrator6engineINtB4_12OrchestratorINtNtCs1OjIl8oxbrv_5alloc4sync3ArcDNtNtB6_7planner7PlannerEL_ENtNtNtB8_8adapters11trace_store14FileTraceStoreE25apply_governance_responsesa_0B8_
FNDA:0,_RNCNvMNtNtCs3oCotP8OZr6_5synod12orchestrator6engineINtB4_12OrchestratorINtNtCs1OjIl8oxbrv_5alloc4sync3ArcDNtNtB6_7planner7PlannerEL_ENtNtNtB8_8adapters11trace_store14FileTraceStoreE25apply_governance_responsesb_0B8_
FNDA:0,_RNCNvMNtNtCs3oCotP8OZr6_5synod12orchestrator6engineINtB4_12OrchestratorINtNtCs1OjIl8oxbrv_5alloc4sync3ArcDNtNtB6_7planner7PlannerEL_ENtNtNtB8_8adapters11trace_store14FileTraceStoreE25apply_governance_responsesc_0B8_
FNDA:0,_RNCNvMNtNtCs3oCotP8OZr6_5synod12orchestrator6engineINtB4_12OrchestratorINtNtCs1OjIl8oxbrv_5alloc4sync3ArcDNtNtB6_7planner7PlannerEL_ENtNtNtB8_8adapters11trace_store14FileTraceStoreE25apply_governance_responsesd_0B8_
FNDA:0,_RNCNvMNtNtCs3oCotP8OZr6_5synod12orchestrator6engineINtB4_12OrchestratorINtNtCs1OjIl8oxbrv_5alloc4sync3ArcDNtNtB6_7planner7PlannerEL_ENtNtNtB8_8adapters11trace_store14FileTraceStoreE25apply_governance_responsese_0B8_
FNDA:0,_RNCNvMNtNtCs3oCotP8OZr6_5synod12orchestrator6engineINtB4_12OrchestratorINtNtCs1OjIl8oxbrv_5alloc4sync3ArcDNtNtB6_7planner7PlannerEL_ENtNtNtB8_8adapters11trace_store14FileTraceStoreE25apply_governance_responsesf_0B8_
FNDA:0,_RNCNvMNtNtCs3oCotP8OZr6_5synod12orchestrator6engineINtB4_12OrchestratorINtNtCs1OjIl8oxbrv_5alloc4sync3ArcDNtNtB6_7planner7PlannerEL_ENtNtNtB8_8adapters11trace_store14FileTraceStoreE25apply_governance_responsesg_0B8_
FNDA:0,_RNCNvMNtNtCs3oCotP8OZr6_5synod12orchestrator6engineINtB4_12OrchestratorINtNtCs1OjIl8oxbrv_5alloc4sync3ArcDNtNtB6_7planner7PlannerEL_ENtNtNtB8_8adapters11trace_store14FileTraceStoreE25apply_governance_responsesh_0B8_
FNDA:0,_RNCNvMNtNtCs3oCotP8OZr6_5synod12orchestrator6engineINtB4_12OrchestratorINtNtCs1OjIl8oxbrv_5alloc4sync3ArcDNtNtB6_7planner7PlannerEL_ENtNtNtB8_8adapters11trace_store14FileTraceStoreE25apply_governance_responsesi_0B8_
FNDA:0,_RNCNvMNtNtCs3oCotP8OZr6_5synod12orchestrator6engineINtB4_12OrchestratorNtNtB4_5tests11TestPlannerNtB19_14TestTraceStoreE16execute_decision0B8_
FNDA:0,_RNCNvMNtNtCs3oCotP8OZr6_5synod12orchestrator6engineINtB4_12OrchestratorNtNtB4_5tests11TestPlannerNtB19_14TestTraceStoreE23ensure_stage_governance0B8_
FNDA:0,_RNCNvMNtNtCs3oCotP8OZr6_5synod12orchestrator6engineINtB4_12OrchestratorNtNtB4_5tests11TestPlannerNtB19_14TestTraceStoreE23ensure_stage_governances0_0B8_
FNDA:0,_RNCNvMNtNtCs3oCotP8OZr6_5synod12orchestrator6engineINtB4_12OrchestratorNtNtB4_5tests11TestPlannerNtB19_14TestTraceStoreE23ensure_stage_governances1_0B8_
FNDA:2,_RNCNvMNtNtCs3oCotP8OZr6_5synod12orchestrator6engineINtB4_12OrchestratorNtNtB4_5tests11TestPlannerNtB19_14TestTraceStoreE23ensure_stage_governances2_0B8_
FNDA:2,_RNCNvMNtNtCs3oCotP8OZr6_5synod12orchestrator6engineINtB4_12OrchestratorNtNtB4_5tests11TestPlannerNtB19_14TestTraceStoreE23ensure_stage_governances5_0B8_
FNDA:0,_RNCNvMNtNtCs3oCotP8OZr6_5synod12orchestrator6engineINtB4_12OrchestratorNtNtB4_5tests11TestPlannerNtB19_14TestTraceStoreE23ensure_stage_governances7_0B8_
FNDA:0,_RNCNvMNtNtCs3oCotP8OZr6_5synod12orchestrator6engineINtB4_12OrchestratorNtNtB4_5tests11TestPlannerNtB19_14TestTraceStoreE23ensure_stage_governances8_0B8_
FNDA:0,_RNCNvMNtNtCs3oCotP8OZr6_5synod12orchestrator6engineINtB4_12OrchestratorNtNtB4_5tests11TestPlannerNtB19_14TestTraceStoreE23ensure_stage_governances9_0B8_
FNDA:0,_RNCNvMNtNtCs3oCotP8OZr6_5synod12orchestrator6engineINtB4_12OrchestratorNtNtB4_5tests11TestPlannerNtB19_14TestTraceStoreE23ensure_stage_governances_0B8_
FNDA:0,_RNCNvMNtNtCs3oCotP8OZr6_5synod12orchestrator6engineINtB4_12OrchestratorNtNtB4_5tests11TestPlannerNtB19_14TestTraceStoreE23ensure_stage_governancesa_0B8_
FNDA:0,_RNCNvMNtNtCs3oCotP8OZr6_5synod12orchestrator6engineINtB4_12OrchestratorNtNtB4_5tests11TestPlannerNtB19_14TestTraceStoreE23ensure_stage_governancesb_0B8_
FNDA:0,_RNCNvMNtNtCs3oCotP8OZr6_5synod12orchestrator6engineINtB4_12OrchestratorNtNtB4_5tests11TestPlannerNtB19_14TestTraceStoreE23ensure_stage_governancesd_0B8_
FNDA:0,_RNCNvMNtNtCs3oCotP8OZr6_5synod12orchestrator6engineINtB4_12OrchestratorNtNtB4_5tests11TestPlannerNtB19_14TestTraceStoreE23ensure_stage_governancese_0B8_
FNDA:0,_RNCNvMNtNtCs3oCotP8OZr6_5synod12orchestrator6engineINtB4_12OrchestratorNtNtB4_5tests11TestPlannerNtB19_14TestTraceStoreE23ensure_stage_governancesg_0B8_
FNDA:0,_RNCNvMNtNtCs3oCotP8OZr6_5synod12orchestrator6engineINtB4_12OrchestratorNtNtB4_5tests11TestPlannerNtB19_14TestTraceStoreE23ensure_stage_governancesh_0B8_
FNDA:0,_RNCNvMNtNtCs3oCotP8OZr6_5synod12orchestrator6engineINtB4_12OrchestratorNtNtB4_5tests11TestPlannerNtB19_14TestTraceStoreE23ensure_stage_governancesi_0B8_
FNDA:0,_RNCNvMNtNtCs3oCotP8OZr6_5synod12orchestrator6engineINtB4_12OrchestratorNtNtB4_5tests11TestPlannerNtB19_14TestTraceStoreE23ensure_stage_governancesj_0B8_
FNDA:1,_RNCNvMNtNtCs3oCotP8OZr6_5synod12orchestrator6engineINtB4_12OrchestratorNtNtB4_5tests11TestPlannerNtB19_14TestTraceStoreE23handle_governance_block0B8_
FNDA:0,_RNCNvMNtNtCs3oCotP8OZr6_5synod12orchestrator6engineINtB4_12OrchestratorNtNtB4_5tests11TestPlannerNtB19_14TestTraceStoreE23handle_governance_blocks_0B8_
FNDA:2,_RNCNvMNtNtCs3oCotP8OZr6_5synod12orchestrator6engineINtB4_12OrchestratorNtNtB4_5tests11TestPlannerNtB19_14TestTraceStoreE25apply_governance_response0B8_
FNDA:0,_RNCNvMNtNtCs3oCotP8OZr6_5synod12orchestrator6engineINtB4_12OrchestratorNtNtB4_5tests11TestPlannerNtB19_14TestTraceStoreE25apply_governance_responses0_0B8_
FNDA:0,_RNCNvMNtNtCs3oCotP8OZr6_5synod12orchestrator6engineINtB4_12OrchestratorNtNtB4_5tests11TestPlannerNtB19_14TestTraceStoreE25apply_governance_responses1_0B8_
FNDA:2,_RNCNvMNtNtCs3oCotP8OZr6_5synod12orchestrator6engineINtB4_12OrchestratorNtNtB4_5tests11TestPlannerNtB19_14TestTraceStoreE25apply_governance_responses2_0B8_
FNDA:1,_RNCNvMNtNtCs3oCotP8OZr6_5synod12orchestrator6engineINtB4_12OrchestratorNtNtB4_5tests11TestPlannerNtB19_14TestTraceStoreE25apply_governance_responses3_0B8_
FNDA:0,_RNCNvMNtNtCs3oCotP8OZr6_5synod12orchestrator6engineINtB4_12OrchestratorNtNtB4_5tests11TestPlannerNtB19_14TestTraceStoreE25apply_governance_responses4_0B8_
FNDA:0,_RNCNvMNtNtCs3oCotP8OZr6_5synod12orchestrator6engineINtB4_12OrchestratorNtNtB4_5tests11TestPlannerNtB19_14TestTraceStoreE25apply_governance_responses5_0B8_
FNDA:0,_RNCNvMNtNtCs3oCotP8OZr6_5synod12orchestrator6engineINtB4_12OrchestratorNtNtB4_5tests11TestPlannerNtB19_14TestTraceStoreE25apply_governance_responses6_0B8_
FNDA:1,_RNCNvMNtNtCs3oCotP8OZr6_5synod12orchestrator6engineINtB4_12OrchestratorNtNtB4_5tests11TestPlannerNtB19_14TestTraceStoreE25apply_governance_responses7_0B8_
FNDA:1,_RNCNvMNtNtCs3oCotP8OZr6_5synod12orchestrator6engineINtB4_12OrchestratorNtNtB4_5tests11TestPlannerNtB19_14TestTraceStoreE25apply_governance_responses9_0B8_
FNDA:1,_RNCNvMNtNtCs3oCotP8OZr6_5synod12orchestrator6engineINtB4_12OrchestratorNtNtB4_5tests11TestPlannerNtB19_14TestTraceStoreE25apply_governance_responses_0B8_
FNDA:1,_RNCNvMNtNtCs3oCotP8OZr6_5synod12orchestrator6engineINtB4_12OrchestratorNtNtB4_5tests11TestPlannerNtB19_14TestTraceStoreE25apply_governance_responsesa_0B8_
FNDA:0,_RNCNvMNtNtCs3oCotP8OZr6_5synod12orchestrator6engineINtB4_12OrchestratorNtNtB4_5tests11TestPlannerNtB19_14TestTraceStoreE25apply_governance_responsesb_0B8_
FNDA:0,_RNCNvMNtNtCs3oCotP8OZr6_5synod12orchestrator6engineINtB4_12OrchestratorNtNtB4_5tests11TestPlannerNtB19_14TestTraceStoreE25apply_governance_responsesc_0B8_
FNDA:0,_RNCNvMNtNtCs3oCotP8OZr6_5synod12orchestrator6engineINtB4_12OrchestratorNtNtB4_5tests11TestPlannerNtB19_14TestTraceStoreE25apply_governance_responsesd_0B8_
FNDA:0,_RNCNvMNtNtCs3oCotP8OZr6_5synod12orchestrator6engineINtB4_12OrchestratorNtNtB4_5tests11TestPlannerNtB19_14TestTraceStoreE25apply_governance_responsese_0B8_
FNDA:0,_RNCNvMNtNtCs3oCotP8OZr6_5synod12orchestrator6engineINtB4_12OrchestratorNtNtB4_5tests11TestPlannerNtB19_14TestTraceStoreE25apply_governance_responsesf_0B8_
FNDA:1,_RNCNvMNtNtCs3oCotP8OZr6_5synod12orchestrator6engineINtB4_12OrchestratorNtNtB4_5tests11TestPlannerNtB19_14TestTraceStoreE25apply_governance_responsesg_0B8_
FNDA:0,_RNCNvMNtNtCs3oCotP8OZr6_5synod12orchestrator6engineINtB4_12OrchestratorNtNtB4_5tests11TestPlannerNtB19_14TestTraceStoreE25apply_governance_responsesh_0B8_
FNDA:0,_RNCNvMNtNtCs3oCotP8OZr6_5synod12orchestrator6engineINtB4_12OrchestratorNtNtB4_5tests11TestPlannerNtB19_14TestTraceStoreE25apply_governance_responsesi_0B8_
FNDA:0,_RNvMNtNtCs3oCotP8OZr6_5synod12orchestrator6engineINtB2_12OrchestratorINtNtCs1OjIl8oxbrv_5alloc4sync3ArcDNtNtB4_7planner7PlannerEL_ENtNtNtB6_8adapters11trace_store14FileTraceStoreE12execute_stepB6_
FNDA:0,_RNvMNtNtCs3oCotP8OZr6_5synod12orchestrator6engineINtB2_12OrchestratorINtNtCs1OjIl8oxbrv_5alloc4sync3ArcDNtNtB4_7planner7PlannerEL_ENtNtNtB6_8adapters11trace_store14FileTraceStoreE12execute_toolB6_
FNDA:0,_RNvMNtNtCs3oCotP8OZr6_5synod12orchestrator6engineINtB2_12OrchestratorINtNtCs1OjIl8oxbrv_5alloc4sync3ArcDNtNtB4_7planner7PlannerEL_ENtNtNtB6_8adapters11trace_store14FileTraceStoreE13execute_agentB6_
FNDA:0,_RNvMNtNtCs3oCotP8OZr6_5synod12orchestrator6engineINtB2_12OrchestratorINtNtCs1OjIl8oxbrv_5alloc4sync3ArcDNtNtB4_7planner7PlannerEL_ENtNtNtB6_8adapters11trace_store14FileTraceStoreE13finalize_taskB6_
FNDA:0,_RNvMNtNtCs3oCotP8OZr6_5synod12orchestrator6engineINtB2_12OrchestratorINtNtCs1OjIl8oxbrv_5alloc4sync3ArcDNtNtB4_7planner7PlannerEL_ENtNtNtB6_8adapters11trace_store14FileTraceStoreE13persist_traceB6_
FNDA:0,_RNvMNtNtCs3oCotP8OZr6_5synod12orchestrator6engineINtB2_12OrchestratorINtNtCs1OjIl8oxbrv_5alloc4sync3ArcDNtNtB4_7planner7PlannerEL_ENtNtNtB6_8adapters11trace_store14FileTraceStoreE15with_governanceB6_
FNDA:0,_RNvMNtNtCs3oCotP8OZr6_5synod12orchestrator6engineINtB2_12OrchestratorINtNtCs1OjIl8oxbrv_5alloc4sync3ArcDNtNtB4_7planner7PlannerEL_ENtNtNtB6_8adapters11trace_store14FileTraceStoreE16execute_decisionB6_
FNDA:0,_RNvMNtNtCs3oCotP8OZr6_5synod12orchestrator6engineINtB2_12OrchestratorINtNtCs1OjIl8oxbrv_5alloc4sync3ArcDNtNtB4_7planner7PlannerEL_ENtNtNtB6_8adapters11trace_store14FileTraceStoreE16normalize_resultB6_
FNDA:0,_RNvMNtNtCs3oCotP8OZr6_5synod12orchestrator6engineINtB2_12OrchestratorINtNtCs1OjIl8oxbrv_5alloc4sync3ArcDNtNtB4_7planner7PlannerEL_ENtNtNtB6_8adapters11trace_store14FileTraceStoreE23ensure_stage_governanceB6_
FNDA:0,_RNvMNtNtCs3oCotP8OZr6_5synod12orchestrator6engineINtB2_12OrchestratorINtNtCs1OjIl8oxbrv_5alloc4sync3ArcDNtNtB4_7planner7PlannerEL_ENtNtNtB6_8adapters11trace_store14FileTraceStoreE23handle_governance_blockB6_
FNDA:0,_RNvMNtNtCs3oCotP8OZr6_5synod12orchestrator6engineINtB2_12OrchestratorINtNtCs1OjIl8oxbrv_5alloc4sync3ArcDNtNtB4_7planner7PlannerEL_ENtNtNtB6_8adapters11trace_store14FileTraceStoreE25apply_governance_responseB6_
FNDA:0,_RNvMNtNtCs3oCotP8OZr6_5synod12orchestrator6engineINtB2_12OrchestratorINtNtCs1OjIl8oxbrv_5alloc4sync3ArcDNtNtB4_7planner7PlannerEL_ENtNtNtB6_8adapters11trace_store14FileTraceStoreE32record_governance_decision_eventB6_
FNDA:0,_RNvMNtNtCs3oCotP8OZr6_5synod12orchestrator6engineINtB2_12OrchestratorINtNtCs1OjIl8oxbrv_5alloc4sync3ArcDNtNtB4_7planner7PlannerEL_ENtNtNtB6_8adapters11trace_store14FileTraceStoreE3newB6_
FNDA:0,_RNvMNtNtCs3oCotP8OZr6_5synod12orchestrator6engineINtB2_12OrchestratorINtNtCs1OjIl8oxbrv_5alloc4sync3ArcDNtNtB4_7planner7PlannerEL_ENtNtNtB6_8adapters11trace_store14FileTraceStoreE3runB6_
FNDA:7,_RNvMNtNtCs3oCotP8OZr6_5synod12orchestrator6engineINtB2_12OrchestratorNtNtB2_5tests11TestPlannerNtB17_14TestTraceStoreE12execute_stepB6_
FNDA:3,_RNvMNtNtCs3oCotP8OZr6_5synod12orchestrator6engineINtB2_12OrchestratorNtNtB2_5tests11TestPlannerNtB17_14TestTraceStoreE12execute_toolB6_
FNDA:4,_RNvMNtNtCs3oCotP8OZr6_5synod12orchestrator6engineINtB2_12OrchestratorNtNtB2_5tests11TestPlannerNtB17_14TestTraceStoreE13execute_agentB6_
FNDA:8,_RNvMNtNtCs3oCotP8OZr6_5synod12orchestrator6engineINtB2_12OrchestratorNtNtB2_5tests11TestPlannerNtB17_14TestTraceStoreE13finalize_taskB6_
FNDA:26,_RNvMNtNtCs3oCotP8OZr6_5synod12orchestrator6engineINtB2_12OrchestratorNtNtB2_5tests11TestPlannerNtB17_14TestTraceStoreE13persist_traceB6_
FNDA:6,_RNvMNtNtCs3oCotP8OZr6_5synod12orchestrator6engineINtB2_12OrchestratorNtNtB2_5tests11TestPlannerNtB17_14TestTraceStoreE15with_governanceB6_
FNDA:9,_RNvMNtNtCs3oCotP8OZr6_5synod12orchestrator6engineINtB2_12OrchestratorNtNtB2_5tests11TestPlannerNtB17_14TestTraceStoreE16execute_decisionB6_
FNDA:6,_RNvMNtNtCs3oCotP8OZr6_5synod12orchestrator6engineINtB2_12OrchestratorNtNtB2_5tests11TestPlannerNtB17_14TestTraceStoreE16normalize_resultB6_
FNDA:6,_RNvMNtNtCs3oCotP8OZr6_5synod12orchestrator6engineINtB2_12OrchestratorNtNtB2_5tests11TestPlannerNtB17_14TestTraceStoreE23ensure_stage_governanceB6_
FNDA:2,_RNvMNtNtCs3oCotP8OZr6_5synod12orchestrator6engineINtB2_12OrchestratorNtNtB2_5tests11TestPlannerNtB17_14TestTraceStoreE23handle_governance_blockB6_
FNDA:3,_RNvMNtNtCs3oCotP8OZr6_5synod12orchestrator6engineINtB2_12OrchestratorNtNtB2_5tests11TestPlannerNtB17_14TestTraceStoreE25apply_governance_responseB6_
FNDA:1,_RNvMNtNtCs3oCotP8OZr6_5synod12orchestrator6engineINtB2_12OrchestratorNtNtB2_5tests11TestPlannerNtB17_14TestTraceStoreE32record_governance_decision_eventB6_
FNDA:18,_RNvMNtNtCs3oCotP8OZr6_5synod12orchestrator6engineINtB2_12OrchestratorNtNtB2_5tests11TestPlannerNtB17_14TestTraceStoreE3newB6_
FNDA:8,_RNvMNtNtCs3oCotP8OZr6_5synod12orchestrator6engineINtB2_12OrchestratorNtNtB2_5tests11TestPlannerNtB17_14TestTraceStoreE3runB6_
FNF:97
FNH:64
DA:52,18
DA:53,18
DA:54,18
DA:56,6
DA:57,6
DA:58,6
DA:59,6
DA:60,6
DA:61,6
DA:62,6
DA:63,6
DA:64,6
DA:66,8
DA:67,8
DA:69,8
DA:70,8
DA:71,8
DA:72,8
DA:73,8
DA:76,8
DA:77,8
DA:78,8
DA:79,8
DA:81,7
DA:82,7
DA:83,7
DA:84,7
DA:86,7
DA:87,7
DA:88,7
DA:89,7
DA:91,7
DA:92,7
DA:93,7
DA:94,7
DA:95,7
DA:96,7
DA:97,7
DA:98,7
DA:101,7
DA:103,7
DA:104,8
DA:105,1
DA:106,1
DA:108,1
DA:109,1
DA:110,1
DA:111,1
DA:113,1
DA:114,7
DA:116,7
DA:117,1
DA:118,1
DA:120,1
DA:121,1
DA:122,1
DA:124,1
DA:125,6
DA:127,6
DA:128,5
DA:130,0
DA:132,1
DA:135,5
DA:136,5
DA:137,5
DA:138,5
DA:139,5
DA:140,5
DA:141,5
DA:142,5
DA:144,5
DA:146,5
DA:147,5
DA:148,5
DA:149,5
DA:150,5
DA:151,5
DA:152,5
DA:153,5
DA:154,5
DA:155,5
DA:156,5
DA:159,5
DA:160,5
DA:161,5
DA:162,5
DA:163,5
DA:164,5
DA:166,5
DA:168,5
DA:169,5
DA:170,5
DA:171,5
DA:173,5
DA:175,1
DA:176,1
DA:177,1
DA:178,1
DA:179,1
DA:180,1
DA:182,1
DA:183,1
DA:185,1
DA:186,1
DA:187,1
DA:188,1
DA:189,1
DA:190,1
DA:191,1
DA:192,1
DA:193,1
DA:196,1
DA:197,1
DA:198,1
DA:199,1
DA:200,1
DA:201,1
DA:202,1
DA:205,1
DA:206,1
DA:207,1
DA:208,1
DA:209,1
DA:210,1
DA:211,0
DA:213,1
DA:214,1
DA:215,1
DA:216,1
DA:217,1
DA:218,1
DA:219,1
DA:220,1
DA:222,1
DA:223,0
DA:225,0
DA:226,0
DA:229,4
DA:230,4
DA:231,4
DA:232,4
DA:233,0
DA:234,4
DA:235,4
DA:236,4
DA:238,4
DA:239,4
DA:240,4
DA:241,4
DA:242,4
DA:243,4
DA:244,4
DA:245,4
DA:246,4
DA:247,4
DA:250,4
DA:251,4
DA:252,4
DA:253,4
DA:254,4
DA:255,4
DA:256,4
DA:259,4
DA:261,0
DA:263,1
DA:264,1
DA:265,1
DA:266,1
DA:267,1
DA:268,1
DA:269,1
DA:270,1
DA:271,1
DA:272,1
DA:273,1
DA:276,1
DA:278,2
DA:279,2
DA:280,2
DA:281,2
DA:282,2
DA:283,2
DA:284,1
DA:285,1
DA:286,1
DA:287,0
DA:288,0
DA:289,0
DA:290,0
DA:291,1
DA:292,1
DA:293,1
DA:294,1
DA:298,1
DA:299,1
DA:300,0
DA:301,1
DA:302,1
DA:303,1
DA:305,1
DA:307,1
DA:311,0
DA:312,0
DA:313,0
DA:314,0
DA:315,0
DA:316,0
DA:317,0
DA:318,0
DA:319,0
DA:320,0
DA:321,0
DA:324,0
DA:326,1
DA:327,1
DA:334,7
DA:335,7
DA:336,7
DA:337,7
DA:338,7
DA:339,7
DA:340,7
DA:341,7
DA:342,7
DA:343,7
DA:344,7
DA:345,8
DA:347,6
DA:348,6
DA:349,6
DA:350,6
DA:351,6
DA:352,6
DA:353,0
DA:355,6
DA:356,6
DA:358,4
DA:360,2
DA:361,0
DA:363,2
DA:364,2
DA:366,0
DA:368,2
DA:369,2
DA:370,2
DA:371,0
DA:372,2
DA:374,2
DA:375,2
DA:376,2
DA:377,2
DA:378,2
DA:379,0
DA:381,0
DA:382,2
DA:384,2
DA:385,2
DA:386,2
DA:387,2
DA:388,2
DA:389,2
DA:390,2
DA:391,2
DA:392,2
DA:393,2
DA:395,2
DA:396,2
DA:397,2
DA:398,2
DA:399,2
DA:400,2
DA:401,2
DA:402,2
DA:403,2
DA:404,2
DA:405,2
DA:406,2
DA:407,2
DA:408,2
DA:409,2
DA:412,0
DA:414,2
DA:415,2
DA:416,2
DA:417,2
DA:418,2
DA:419,2
DA:420,2
DA:421,2
DA:422,2
DA:423,1
DA:424,1
DA:425,1
DA:426,1
DA:428,2
DA:429,2
DA:430,2
DA:431,2
DA:432,2
DA:433,2
DA:434,2
DA:435,2
DA:436,2
DA:437,2
DA:441,2
DA:442,0
DA:443,2
DA:445,2
DA:446,2
DA:448,1
DA:449,0
DA:450,0
DA:451,0
DA:452,0
DA:453,0
DA:454,0
DA:455,0
DA:456,0
DA:457,0
DA:458,0
DA:459,0
DA:460,0
DA:461,0
DA:462,0
DA:465,1
DA:466,1
DA:467,1
DA:468,1
DA:469,1
DA:470,1
DA:471,1
DA:472,1
DA:473,1
DA:474,1
DA:475,1
DA:476,1
DA:477,1
DA:478,1
DA:479,1
DA:480,1
DA:482,0
DA:483,0
DA:484,0
DA:485,0
DA:486,0
DA:487,0
DA:488,0
DA:489,0
DA:490,0
DA:491,0
DA:492,0
DA:493,0
DA:494,0
DA:495,0
DA:496,0
DA:497,0
DA:501,0
DA:502,0
DA:503,0
DA:504,0
DA:505,0
DA:506,0
DA:507,0
DA:508,0
DA:509,0
DA:510,0
DA:511,0
DA:512,0
DA:513,0
DA:514,0
DA:515,0
DA:516,0
DA:518,0
DA:519,0
DA:520,0
DA:521,0
DA:522,0
DA:523,0
DA:524,0
DA:525,0
DA:526,0
DA:527,0
DA:528,0
DA:529,0
DA:530,0
DA:531,0
DA:534,0
DA:535,0
DA:536,0
DA:537,0
DA:538,0
DA:540,0
DA:541,0
DA:542,0
DA:543,0
DA:544,0
DA:545,0
DA:546,0
DA:547,0
DA:548,0
DA:550,0
DA:551,0
DA:552,0
DA:553,0
DA:556,0
DA:557,0
DA:558,0
DA:559,0
DA:560,0
DA:561,0
DA:562,0
DA:563,0
DA:564,0
DA:565,0
DA:566,0
DA:568,1
DA:570,1
DA:571,1
DA:572,1
DA:573,1
DA:574,1
DA:575,1
DA:576,1
DA:577,1
DA:578,1
DA:579,1
DA:580,1
DA:581,1
DA:582,1
DA:583,1
DA:584,1
DA:585,1
DA:588,1
DA:589,1
DA:590,1
DA:591,1
DA:592,1
DA:593,1
DA:594,1
DA:595,1
DA:596,1
DA:599,1
DA:600,1
DA:601,1
DA:602,1
DA:603,0
DA:605,1
DA:606,1
DA:607,1
DA:608,1
DA:609,1
DA:610,1
DA:611,1
DA:612,1
DA:613,1
DA:615,1
DA:616,0
DA:617,1
DA:618,1
DA:621,1
DA:622,1
DA:623,1
DA:624,1
DA:625,1
DA:626,1
DA:627,1
DA:628,1
DA:629,1
DA:630,1
DA:631,1
DA:633,6
DA:635,1
DA:636,1
DA:637,1
DA:638,1
DA:639,1
DA:640,1
DA:641,1
DA:642,1
DA:643,1
DA:644,1
DA:645,1
DA:646,1
DA:647,1
DA:648,1
DA:649,1
DA:650,1
DA:651,1
DA:652,1
DA:653,1
DA:654,1
DA:657,1
DA:660,3
DA:661,3
DA:662,3
DA:663,3
DA:664,3
DA:665,3
DA:666,3
DA:667,3
DA:668,3
DA:669,3
DA:670,3
DA:671,3
DA:672,3
DA:673,3
DA:674,2
DA:675,2
DA:676,3
DA:677,3
DA:678,3
DA:680,1
DA:681,1
DA:682,1
DA:683,1
DA:684,0
DA:685,0
DA:686,0
DA:687,0
DA:688,0
DA:692,0
DA:693,0
DA:694,0
DA:695,0
DA:696,0
DA:699,2
DA:700,2
DA:703,2
DA:705,3
DA:706,3
DA:707,3
DA:708,3
DA:709,3
DA:710,3
DA:711,3
DA:712,3
DA:713,3
DA:714,3
DA:715,3
DA:716,3
DA:717,3
DA:719,3
DA:720,3
DA:721,3
DA:722,3
DA:723,3
DA:725,3
DA:726,3
DA:728,3
DA:729,2
DA:731,1
DA:732,1
DA:733,1
DA:734,1
DA:735,1
DA:736,1
DA:737,1
DA:738,1
DA:739,1
DA:740,1
DA:741,1
DA:742,1
DA:745,2
DA:747,3
DA:749,1
DA:750,1
DA:751,1
DA:752,1
DA:753,1
DA:754,1
DA:755,1
DA:756,1
DA:757,1
DA:758,1
DA:759,1
DA:760,1
DA:761,1
DA:764,1
DA:765,1
DA:768,1
DA:769,1
DA:770,1
DA:771,1
DA:772,1
DA:773,1
DA:774,1
DA:775,1
DA:776,1
DA:777,1
DA:778,1
DA:781,1
DA:782,1
DA:783,1
DA:784,1
DA:785,1
DA:786,1
DA:787,1
DA:788,1
DA:790,1
DA:793,1
DA:794,1
DA:795,1
DA:796,1
DA:797,1
DA:798,1
DA:799,1
DA:800,1
DA:801,1
DA:802,1
DA:803,1
DA:804,1
DA:805,1
DA:809,1
DA:810,0
DA:811,0
DA:812,0
DA:813,0
DA:814,0
DA:815,0
DA:816,0
DA:817,0
DA:819,0
DA:820,0
DA:822,1
DA:823,1
DA:826,0
DA:828,3
DA:830,2
DA:831,2
DA:832,2
DA:833,2
DA:834,2
DA:835,2
DA:836,2
DA:837,2
DA:838,2
DA:839,2
DA:840,2
DA:841,2
DA:842,2
DA:843,2
DA:844,2
DA:845,2
DA:847,2
DA:850,2
DA:851,2
DA:852,2
DA:853,2
DA:855,2
DA:856,2
DA:857,2
DA:858,2
DA:859,2
DA:860,2
DA:861,2
DA:862,2
DA:863,2
DA:864,2
DA:865,2
DA:866,2
DA:870,2
DA:871,1
DA:872,1
DA:873,1
DA:874,1
DA:875,1
DA:876,1
DA:877,1
DA:878,1
DA:880,1
DA:881,1
DA:883,1
DA:884,1
DA:886,2
DA:888,7
DA:889,7
DA:890,2
DA:891,1
DA:892,4
DA:894,7
DA:896,4
DA:897,4
DA:898,1
DA:899,1
DA:900,1
DA:904,3
DA:905,1
DA:906,1
DA:908,1
DA:910,1
DA:914,2
DA:915,2
DA:916,2
DA:917,2
DA:918,2
DA:919,2
DA:920,2
DA:921,2
DA:922,4
DA:924,3
DA:925,3
DA:926,1
DA:927,1
DA:928,1
DA:932,2
DA:933,1
DA:934,1
DA:935,1
DA:939,1
DA:940,1
DA:941,1
DA:942,1
DA:943,1
DA:944,1
DA:945,1
DA:946,1
DA:947,3
DA:949,9
DA:950,9
DA:951,1
DA:954,8
DA:955,2
DA:956,2
DA:957,2
DA:959,6
DA:961,6
DA:962,3
DA:963,3
DA:964,3
DA:966,3
DA:968,3
DA:969,1
DA:970,1
DA:971,1
DA:973,2
DA:975,2
DA:976,2
DA:978,2
DA:979,2
DA:980,0
DA:982,9
DA:984,6
DA:985,6
DA:986,4
DA:987,2
DA:988,2
DA:990,2
DA:992,2
DA:993,2
DA:996,6
DA:998,8
DA:999,8
DA:1000,8
DA:1001,8
DA:1002,8
DA:1003,8
DA:1004,8
DA:1005,8
DA:1006,8
DA:1007,8
DA:1008,8
DA:1009,8
DA:1010,8
DA:1011,8
DA:1014,8
DA:1015,8
DA:1016,8
DA:1017,8
DA:1019,26
DA:1020,26
DA:1021,25
DA:1022,25
DA:1023,25
DA:1024,24
DA:1025,26
DA:1082,14
DA:1083,14
DA:1084,14
DA:1086,1
DA:1087,1
DA:1088,1
DA:1090,2
DA:1091,2
DA:1092,2
DA:1096,8
DA:1097,8
DA:1098,8
DA:1099,8
DA:1100,8
DA:1101,8
DA:1102,8
DA:1104,2
DA:1105,2
DA:1106,2
DA:1107,2
DA:1108,2
DA:1109,2
DA:1110,2
DA:1111,2
DA:1120,16
DA:1121,16
DA:1122,16
DA:1124,2
DA:1125,2
DA:1126,2
DA:1130,51
DA:1131,51
DA:1132,51
DA:1134,51
DA:1135,2
DA:1136,49
DA:1138,49
DA:1139,51
DA:1141,0
DA:1142,0
DA:1143,0
DA:1145,0
DA:1146,0
DA:1147,0
DA:1150,11
DA:1151,11
DA:1152,11
DA:1153,11
DA:1154,11
DA:1155,11
DA:1156,11
DA:1157,11
DA:1158,11
DA:1159,11
DA:1161,2
DA:1162,2
DA:1163,2
DA:1165,14
DA:1166,14
DA:1167,14
DA:1168,14
DA:1169,14
DA:1170,14
DA:1172,14
DA:1176,8
DA:1177,8
DA:1178,8
DA:1179,8
DA:1180,8
DA:1181,8
DA:1182,8
DA:1183,8
DA:1184,8
DA:1185,8
DA:1186,8
DA:1187,8
DA:1188,8
DA:1189,8
DA:1190,8
DA:1191,8
DA:1192,8
DA:1193,8
DA:1194,8
DA:1195,8
DA:1196,8
DA:1197,8
DA:1198,8
DA:1199,8
DA:1200,8
DA:1202,10
DA:1203,10
DA:1204,10
DA:1205,10
DA:1206,10
DA:1207,10
DA:1209,10
DA:1212,10
DA:1214,10
DA:1215,10
DA:1217,6
DA:1218,6
DA:1219,6
DA:1220,6
DA:1222,6
DA:1224,3
DA:1225,3
DA:1226,3
DA:1227,3
DA:1230,1
DA:1231,1
DA:1232,1
DA:1235,1
DA:1236,1
DA:1237,1
DA:1238,1
DA:1240,1
DA:1241,1
DA:1242,1
DA:1246,1
DA:1247,1
DA:1248,1
DA:1252,1
DA:1253,1
DA:1254,1
DA:1258,1
DA:1260,1
DA:1261,1
DA:1262,1
DA:1265,1
DA:1266,1
DA:1267,1
DA:1268,1
DA:1269,1
DA:1272,1
DA:1273,1
DA:1274,1
DA:1276,1
DA:1278,1
DA:1279,1
DA:1280,1
DA:1281,1
DA:1282,1
DA:1283,1
DA:1284,1
DA:1285,1
DA:1286,1
DA:1287,1
DA:1288,1
DA:1289,1
DA:1290,1
DA:1292,1
DA:1293,1
DA:1294,1
DA:1296,1
DA:1297,1
DA:1298,1
DA:1299,1
DA:1300,1
DA:1301,1
DA:1302,1
DA:1303,1
DA:1304,1
DA:1305,1
DA:1306,1
DA:1307,1
DA:1308,1
DA:1310,1
DA:1311,1
DA:1312,1
DA:1313,1
DA:1316,1
DA:1317,1
DA:1318,1
DA:1320,1
DA:1321,1
DA:1322,1
DA:1323,1
DA:1324,1
DA:1325,1
DA:1326,1
DA:1327,1
DA:1328,1
DA:1330,1
DA:1331,1
DA:1332,1
DA:1333,1
DA:1334,1
DA:1337,1
DA:1338,1
DA:1339,1
DA:1342,1
DA:1343,1
DA:1344,1
DA:1346,0
DA:1348,1
DA:1351,1
DA:1352,1
DA:1353,1
DA:1354,1
DA:1355,1
DA:1357,1
DA:1358,1
DA:1359,1
DA:1361,1
DA:1362,1
DA:1363,1
DA:1366,1
DA:1367,1
DA:1368,1
DA:1369,1
DA:1370,1
DA:1371,1
DA:1372,1
DA:1373,1
DA:1375,1
DA:1377,1
DA:1378,1
DA:1381,1
DA:1382,1
DA:1384,1
DA:1385,1
DA:1386,1
DA:1387,1
DA:1388,1
DA:1389,1
DA:1391,1
DA:1392,1
DA:1393,1
DA:1394,1
DA:1395,1
DA:1396,1
DA:1399,1
DA:1400,1
DA:1402,1
DA:1403,1
DA:1404,1
DA:1405,1
DA:1406,1
DA:1407,1
DA:1409,1
DA:1410,1
DA:1411,1
DA:1412,1
DA:1413,1
DA:1414,1
DA:1416,1
DA:1417,1
DA:1418,1
DA:1419,1
DA:1421,1
DA:1424,1
DA:1425,1
DA:1426,1
DA:1427,1
DA:1428,1
DA:1429,1
DA:1430,1
DA:1431,1
DA:1432,1
DA:1433,1
DA:1434,1
DA:1435,1
DA:1436,1
DA:1437,1
DA:1438,1
DA:1440,1
DA:1442,1
DA:1443,1
DA:1444,1
DA:1445,1
DA:1446,1
DA:1447,1
DA:1450,1
DA:1451,1
DA:1452,1
DA:1453,1
DA:1454,1
DA:1455,1
DA:1456,1
DA:1457,1
DA:1458,1
DA:1459,1
DA:1460,1
DA:1461,1
DA:1462,1
DA:1463,1
DA:1464,1
DA:1465,1
DA:1466,1
DA:1467,1
DA:1468,1
DA:1469,1
DA:1470,1
DA:1471,1
DA:1472,1
DA:1473,1
DA:1474,1
DA:1475,1
DA:1476,1
DA:1477,1
DA:1478,1
DA:1479,1
DA:1480,1
DA:1481,1
DA:1482,1
DA:1484,1
DA:1485,1
DA:1486,1
DA:1487,1
DA:1488,1
DA:1489,1
DA:1490,1
DA:1491,1
DA:1492,1
DA:1493,1
DA:1494,1
DA:1495,1
DA:1497,1
DA:1499,1
DA:1500,1
DA:1503,1
DA:1504,1
DA:1505,1
DA:1506,1
DA:1507,1
DA:1508,1
DA:1509,1
DA:1510,1
DA:1512,1
DA:1513,2
DA:1515,1
DA:1518,1
DA:1519,1
DA:1520,1
DA:1521,1
DA:1522,1
DA:1523,1
DA:1524,1
DA:1525,1
DA:1526,1
DA:1527,1
DA:1528,1
DA:1529,1
DA:1530,1
DA:1532,1
DA:1533,1
DA:1534,1
DA:1535,1
DA:1536,1
DA:1537,1
DA:1538,1
DA:1539,1
DA:1540,1
DA:1541,1
DA:1542,1
DA:1543,1
DA:1545,1
DA:1547,1
DA:1548,1
DA:1549,1
DA:1551,0
DA:1553,1
DA:1554,1
DA:1555,1
DA:1558,1
DA:1559,1
DA:1560,1
DA:1561,1
DA:1562,1
DA:1564,1
DA:1567,1
DA:1568,1
DA:1569,1
DA:1570,1
DA:1571,1
DA:1572,1
DA:1573,1
DA:1574,1
DA:1575,1
DA:1576,1
DA:1577,1
DA:1578,1
DA:1579,1
DA:1580,1
DA:1581,1
DA:1583,1
DA:1584,1
DA:1585,1
DA:1586,1
DA:1587,1
DA:1588,1
DA:1589,1
DA:1590,1
DA:1591,1
DA:1592,1
DA:1593,1
DA:1594,1
DA:1595,1
DA:1597,1
DA:1599,1
DA:1600,1
DA:1603,1
DA:1604,1
DA:1605,1
DA:1606,1
DA:1607,1
DA:1609,1
DA:1610,1
DA:1613,1
DA:1614,1
DA:1615,1
DA:1616,1
DA:1617,1
DA:1618,1
DA:1619,1
DA:1622,1
DA:1624,1
DA:1625,1
DA:1626,1
DA:1629,1
DA:1630,1
DA:1631,1
DA:1632,1
DA:1633,1
DA:1634,1
DA:1636,1
DA:1638,1
DA:1639,1
DA:1640,1
DA:1643,1
DA:1644,1
DA:1645,1
DA:1646,1
DA:1647,1
DA:1648,1
DA:1649,1
DA:1651,1
DA:1652,1
DA:1653,1
DA:1654,1
DA:1655,1
DA:1656,1
DA:1657,1
DA:1658,1
DA:1660,1
DA:1661,1
DA:1662,1
DA:1664,1
DA:1666,1
DA:1667,1
DA:1668,1
DA:1669,1
DA:1671,1
DA:1674,1
DA:1675,1
DA:1676,1
DA:1679,1
DA:1680,1
DA:1681,1
DA:1682,1
DA:1683,1
DA:1685,1
DA:1686,1
DA:1687,1
DA:1688,1
DA:1689,1
DA:1692,1
DA:1693,1
DA:1695,1
DA:1696,1
DA:1699,1
DA:1700,1
DA:1703,1
DA:1706,1
DA:1707,1
DA:1708,1
DA:1710,1
DA:1711,1
DA:1712,1
DA:1714,1
DA:1715,1
DA:1716,1
DA:1717,1
DA:1719,1
DA:1721,1
DA:1722,1
DA:1723,1
DA:1724,1
DA:1726,1
DA:1727,1
DA:1728,1
DA:1729,1
DA:1731,1
DA:1733,1
DA:1735,1
DA:1736,1
DA:1737,1
DA:1738,1
DA:1739,1
DA:1740,1
DA:1742,1
DA:1743,1
DA:1745,1
DA:1746,1
DA:1747,1
BRF:0
BRH:0
LF:1328
LH:1144
end_of_record
SF:/Users/rt/workspace/synod/src/orchestrator/flow_inference.rs
FN:20,_RNvNtNtCs3oCotP8OZr6_5synod12orchestrator14flow_inference10infer_flow
FN:26,_RNCNvNtNtCs3oCotP8OZr6_5synod12orchestrator14flow_inference10infer_flow0B7_
FN:48,_RNCNvNtNtCs3oCotP8OZr6_5synod12orchestrator14flow_inference10infer_flows0_0B7_
FN:37,_RNCNvNtNtCs3oCotP8OZr6_5synod12orchestrator14flow_inference10infer_flows_0B7_
FNDA:4,_RNvNtNtCs3oCotP8OZr6_5synod12orchestrator14flow_inference10infer_flow
FNDA:4,_RNCNvNtNtCs3oCotP8OZr6_5synod12orchestrator14flow_inference10infer_flow0B7_
FNDA:0,_RNCNvNtNtCs3oCotP8OZr6_5synod12orchestrator14flow_inference10infer_flows0_0B7_
FNDA:0,_RNCNvNtNtCs3oCotP8OZr6_5synod12orchestrator14flow_inference10infer_flows_0B7_
FNF:4
FNH:2
DA:20,4
DA:21,4
DA:22,4
DA:25,4
DA:26,4
DA:27,4
DA:28,4
DA:29,4
DA:30,4
DA:31,4
DA:32,0
DA:36,0
DA:37,0
DA:38,0
DA:39,0
DA:40,0
DA:41,0
DA:42,0
DA:43,0
DA:47,0
DA:48,0
DA:49,0
DA:50,0
DA:51,0
DA:52,0
DA:53,0
DA:54,0
DA:57,0
DA:58,4
BRF:0
BRH:0
LF:32
LH:12
end_of_record
SF:/Users/rt/workspace/synod/src/orchestrator/goal_planner.rs
FN:82,_RNCNvNtNtCs3oCotP8OZr6_5synod12orchestrator12goal_planner21select_primary_target0B7_
FN:49,_RNvNtNtCs3oCotP8OZr6_5synod12orchestrator12goal_planner11count_files
FN:134,_RNvNtNtCs3oCotP8OZr6_5synod12orchestrator12goal_planner12derive_tasks
FN:186,_RNvNtNtCs3oCotP8OZr6_5synod12orchestrator12goal_planner15build_goal_plan
FN:85,_RNvNtNtCs3oCotP8OZr6_5synod12orchestrator12goal_planner20first_workspace_file
FN:115,_RNvNtNtCs3oCotP8OZr6_5synod12orchestrator12goal_planner20scan_canon_artifacts
FN:74,_RNvNtNtCs3oCotP8OZr6_5synod12orchestrator12goal_planner21select_primary_target
FN:16,_RNvNtNtCs3oCotP8OZr6_5synod12orchestrator12goal_planner25collect_workspace_signals
FNDA:2,_RNCNvNtNtCs3oCotP8OZr6_5synod12orchestrator12goal_planner21select_primary_target0B7_
FNDA:25,_RNvNtNtCs3oCotP8OZr6_5synod12orchestrator12goal_planner11count_files
FNDA:10,_RNvNtNtCs3oCotP8OZr6_5synod12orchestrator12goal_planner12derive_tasks
FNDA:10,_RNvNtNtCs3oCotP8OZr6_5synod12orchestrator12goal_planner15build_goal_plan
FNDA:2,_RNvNtNtCs3oCotP8OZr6_5synod12orchestrator12goal_planner20first_workspace_file
